Archive member included because of file (symbol)

d:/programowanieavr/avr studio 5.0/avr toolchain/bin/../lib/gcc/avr/4.5.1/avr4\libgcc.a(_udivmodhi4.o)
                              Usefull/Sharp.o (__udivmodhi4)
d:/programowanieavr/avr studio 5.0/avr toolchain/bin/../lib/gcc/avr/4.5.1/avr4\libgcc.a(_divmodhi4.o)
                              Usefull/Silniki.o (__divmodhi4)
d:/programowanieavr/avr studio 5.0/avr toolchain/bin/../lib/gcc/avr/4.5.1/avr4\libgcc.a(_exit.o)
                              d:/programowanieavr/avr studio 5.0/avr toolchain/bin/../lib/gcc/avr/4.5.1/../../../../avr/lib/avr4/crtm8.o (exit)
d:/programowanieavr/avr studio 5.0/avr toolchain/bin/../lib/gcc/avr/4.5.1/avr4\libgcc.a(_copy_data.o)
                              Usefull/Sharp.o (__do_copy_data)
d:/programowanieavr/avr studio 5.0/avr toolchain/bin/../lib/gcc/avr/4.5.1/avr4\libgcc.a(_clear_bss.o)
                              Rysiu.o (__do_clear_bss)

Allocating common symbols
Common symbol       size              file

I2C_received        0x1               Rysiu.o
ADC0                0x2               Rysiu.o
akt_indeks          0x1               Rysiu.o
buf_i               0x1               Rysiu.o
buffer              0x6               Rysiu.o
ADC2                0x2               Rysiu.o
Sharp_Timer_Value   0x2               Rysiu.o
ADC3                0x2               Rysiu.o
receive             0x1               Usefull/USART.o
ADC1                0x2               Rysiu.o

Memory Configuration

Name             Origin             Length             Attributes
text             0x00000000         0x00002000         xr
data             0x00800060         0x0000ffa0         rw !x
eeprom           0x00810000         0x00010000         rw !x
fuse             0x00820000         0x00000400         rw !x
lock             0x00830000         0x00000400         rw !x
signature        0x00840000         0x00000400         rw !x
*default*        0x00000000         0xffffffff

Linker script and memory map

LOAD d:/programowanieavr/avr studio 5.0/avr toolchain/bin/../lib/gcc/avr/4.5.1/../../../../avr/lib/avr4/crtm8.o
LOAD Rysiu.o
LOAD Usefull/Enkoders.o
LOAD Usefull/I2C.o
LOAD Usefull/Sharp.o
LOAD Usefull/Silniki.o
LOAD Usefull/USART.o
LOAD d:/programowanieavr/avr studio 5.0/avr toolchain/bin/../lib/gcc/avr/4.5.1/avr4\libgcc.a
LOAD d:/programowanieavr/avr studio 5.0/avr toolchain/bin/../lib/gcc/avr/4.5.1/../../../../avr/lib/avr4\libc.a
LOAD d:/programowanieavr/avr studio 5.0/avr toolchain/bin/../lib/gcc/avr/4.5.1/avr4\libgcc.a

.hash
 *(.hash)

.dynsym
 *(.dynsym)

.dynstr
 *(.dynstr)

.gnu.version
 *(.gnu.version)

.gnu.version_d
 *(.gnu.version_d)

.gnu.version_r
 *(.gnu.version_r)

.rel.init
 *(.rel.init)

.rela.init
 *(.rela.init)

.rel.text
 *(.rel.text)
 *(.rel.text.*)
 *(.rel.gnu.linkonce.t*)

.rela.text
 *(.rela.text)
 *(.rela.text.*)
 *(.rela.gnu.linkonce.t*)

.rel.fini
 *(.rel.fini)

.rela.fini
 *(.rela.fini)

.rel.rodata
 *(.rel.rodata)
 *(.rel.rodata.*)
 *(.rel.gnu.linkonce.r*)

.rela.rodata
 *(.rela.rodata)
 *(.rela.rodata.*)
 *(.rela.gnu.linkonce.r*)

.rel.data
 *(.rel.data)
 *(.rel.data.*)
 *(.rel.gnu.linkonce.d*)

.rela.data
 *(.rela.data)
 *(.rela.data.*)
 *(.rela.gnu.linkonce.d*)

.rel.ctors
 *(.rel.ctors)

.rela.ctors
 *(.rela.ctors)

.rel.dtors
 *(.rel.dtors)

.rela.dtors
 *(.rela.dtors)

.rel.got
 *(.rel.got)

.rela.got
 *(.rela.got)

.rel.bss
 *(.rel.bss)

.rela.bss
 *(.rela.bss)

.rel.plt
 *(.rel.plt)

.rela.plt
 *(.rela.plt)

.text           0x00000000      0x7d8
 *(.vectors)
 .vectors       0x00000000       0x26 d:/programowanieavr/avr studio 5.0/avr toolchain/bin/../lib/gcc/avr/4.5.1/../../../../avr/lib/avr4/crtm8.o
                0x00000000                __vector_default
                0x00000000                __vectors
 *(.vectors)
 *(.progmem.gcc*)
 *(.progmem*)
                0x00000026                . = ALIGN (0x2)
                0x00000026                __trampolines_start = .
 *(.trampolines)
 .trampolines   0x00000026        0x0 linker stubs
 *(.trampolines*)
                0x00000026                __trampolines_end = .
 *(.jumptables)
 *(.jumptables*)
 *(.lowtext)
 *(.lowtext*)
                0x00000026                __ctors_start = .
 *(.ctors)
                0x00000026                __ctors_end = .
                0x00000026                __dtors_start = .
 *(.dtors)
                0x00000026                __dtors_end = .
 SORT(*)(.ctors)
 SORT(*)(.dtors)
 *(.init0)
 .init0         0x00000026        0x0 d:/programowanieavr/avr studio 5.0/avr toolchain/bin/../lib/gcc/avr/4.5.1/../../../../avr/lib/avr4/crtm8.o
                0x00000026                __init
 *(.init0)
 *(.init1)
 *(.init1)
 *(.init2)
 .init2         0x00000026        0xc d:/programowanieavr/avr studio 5.0/avr toolchain/bin/../lib/gcc/avr/4.5.1/../../../../avr/lib/avr4/crtm8.o
 *(.init2)
 *(.init3)
 *(.init3)
 *(.init4)
 .init4         0x00000032       0x16 d:/programowanieavr/avr studio 5.0/avr toolchain/bin/../lib/gcc/avr/4.5.1/avr4\libgcc.a(_copy_data.o)
                0x00000032                __do_copy_data
 .init4         0x00000048       0x10 d:/programowanieavr/avr studio 5.0/avr toolchain/bin/../lib/gcc/avr/4.5.1/avr4\libgcc.a(_clear_bss.o)
                0x00000048                __do_clear_bss
 *(.init4)
 *(.init5)
 *(.init5)
 *(.init6)
 *(.init6)
 *(.init7)
 *(.init7)
 *(.init8)
 *(.init8)
 *(.init9)
 .init9         0x00000058        0x4 d:/programowanieavr/avr studio 5.0/avr toolchain/bin/../lib/gcc/avr/4.5.1/../../../../avr/lib/avr4/crtm8.o
 *(.init9)
 *(.text)
 .text          0x0000005c        0x2 d:/programowanieavr/avr studio 5.0/avr toolchain/bin/../lib/gcc/avr/4.5.1/../../../../avr/lib/avr4/crtm8.o
                0x0000005c                __vector_12
                0x0000005c                __bad_interrupt
                0x0000005c                __vector_6
                0x0000005c                __vector_3
                0x0000005c                __vector_13
                0x0000005c                __vector_7
                0x0000005c                __vector_5
                0x0000005c                __vector_4
                0x0000005c                __vector_15
                0x0000005c                __vector_8
                0x0000005c                __vector_14
                0x0000005c                __vector_10
                0x0000005c                __vector_16
                0x0000005c                __vector_18
 .text          0x0000005e       0x2c Rysiu.o
                0x0000005e                Init
                0x0000006a                main
 .text          0x0000008a      0x114 Usefull/Enkoders.o
                0x0000008a                Enkoders_Init
                0x000000a2                __vector_1
                0x00000120                __vector_2
 .text          0x0000019e       0xf0 Usefull/I2C.o
                0x0000019e                I2C_init
                0x000001b6                I2C_RequestTransmision
                0x000001c2                __vector_17
 .text          0x0000028e      0x3b0 Usefull/Sharp.o
                0x0000028e                Sharp_Init
                0x000002c8                ADC_Timer_Init
                0x000002e0                Zrob_Pomiar
                0x00000334                Pomiar2Indeks
                0x00000364                __vector_9
 .text          0x0000063e       0xc8 Usefull/Silniki.o
                0x0000063e                Silniki_Init
                0x00000668                Silniki_Start
                0x00000672                SetWypelnieniePWM
                0x00000692                JazdaNaPrzod
                0x000006a4                SkretWLewo
                0x000006b6                SkretWPrawo
                0x000006c8                Silniki_Stop
                0x000006d2                ZmienKierunek
                0x000006ee                ZmienKierunekLewe
                0x000006fe                ZmienKierunekPrawe
 .text          0x00000706       0x80 Usefull/USART.o
                0x00000706                USART_init
                0x00000728                USART_transmit
                0x00000730                USART_receive
                0x0000073c                USART_SendInt
                0x00000762                __vector_11
 .text          0x00000786        0x0 d:/programowanieavr/avr studio 5.0/avr toolchain/bin/../lib/gcc/avr/4.5.1/avr4\libgcc.a(_udivmodhi4.o)
 .text          0x00000786        0x0 d:/programowanieavr/avr studio 5.0/avr toolchain/bin/../lib/gcc/avr/4.5.1/avr4\libgcc.a(_divmodhi4.o)
 .text          0x00000786        0x0 d:/programowanieavr/avr studio 5.0/avr toolchain/bin/../lib/gcc/avr/4.5.1/avr4\libgcc.a(_exit.o)
 .text          0x00000786        0x0 d:/programowanieavr/avr studio 5.0/avr toolchain/bin/../lib/gcc/avr/4.5.1/avr4\libgcc.a(_copy_data.o)
 .text          0x00000786        0x0 d:/programowanieavr/avr studio 5.0/avr toolchain/bin/../lib/gcc/avr/4.5.1/avr4\libgcc.a(_clear_bss.o)
                0x00000786                . = ALIGN (0x2)
 *(.text.*)
 .text.libgcc   0x00000786       0x28 d:/programowanieavr/avr studio 5.0/avr toolchain/bin/../lib/gcc/avr/4.5.1/avr4\libgcc.a(_udivmodhi4.o)
                0x00000786                __udivmodhi4
 .text.libgcc   0x000007ae       0x26 d:/programowanieavr/avr studio 5.0/avr toolchain/bin/../lib/gcc/avr/4.5.1/avr4\libgcc.a(_divmodhi4.o)
                0x000007ae                _div
                0x000007ae                __divmodhi4
 .text.libgcc   0x000007d4        0x0 d:/programowanieavr/avr studio 5.0/avr toolchain/bin/../lib/gcc/avr/4.5.1/avr4\libgcc.a(_exit.o)
 .text.libgcc   0x000007d4        0x0 d:/programowanieavr/avr studio 5.0/avr toolchain/bin/../lib/gcc/avr/4.5.1/avr4\libgcc.a(_copy_data.o)
 .text.libgcc   0x000007d4        0x0 d:/programowanieavr/avr studio 5.0/avr toolchain/bin/../lib/gcc/avr/4.5.1/avr4\libgcc.a(_clear_bss.o)
                0x000007d4                . = ALIGN (0x2)
 *(.fini9)
 .fini9         0x000007d4        0x0 d:/programowanieavr/avr studio 5.0/avr toolchain/bin/../lib/gcc/avr/4.5.1/avr4\libgcc.a(_exit.o)
                0x000007d4                _exit
                0x000007d4                exit
 *(.fini9)
 *(.fini8)
 *(.fini8)
 *(.fini7)
 *(.fini7)
 *(.fini6)
 *(.fini6)
 *(.fini5)
 *(.fini5)
 *(.fini4)
 *(.fini4)
 *(.fini3)
 *(.fini3)
 *(.fini2)
 *(.fini2)
 *(.fini1)
 *(.fini1)
 *(.fini0)
 .fini0         0x000007d4        0x4 d:/programowanieavr/avr studio 5.0/avr toolchain/bin/../lib/gcc/avr/4.5.1/avr4\libgcc.a(_exit.o)
 *(.fini0)
                0x000007d8                _etext = .

.data           0x00800060       0x38 load address 0x000007d8
                0x00800060                PROVIDE (__data_start, .)
 *(.data)
 .data          0x00800060        0x0 d:/programowanieavr/avr studio 5.0/avr toolchain/bin/../lib/gcc/avr/4.5.1/../../../../avr/lib/avr4/crtm8.o
 .data          0x00800060        0x0 Rysiu.o
 .data          0x00800060        0x0 Usefull/Enkoders.o
 .data          0x00800060        0x0 Usefull/I2C.o
 .data          0x00800060       0x38 Usefull/Sharp.o
 .data          0x00800098        0x0 Usefull/Silniki.o
 .data          0x00800098        0x0 Usefull/USART.o
 .data          0x00800098        0x0 d:/programowanieavr/avr studio 5.0/avr toolchain/bin/../lib/gcc/avr/4.5.1/avr4\libgcc.a(_udivmodhi4.o)
 .data          0x00800098        0x0 d:/programowanieavr/avr studio 5.0/avr toolchain/bin/../lib/gcc/avr/4.5.1/avr4\libgcc.a(_divmodhi4.o)
 .data          0x00800098        0x0 d:/programowanieavr/avr studio 5.0/avr toolchain/bin/../lib/gcc/avr/4.5.1/avr4\libgcc.a(_exit.o)
 .data          0x00800098        0x0 d:/programowanieavr/avr studio 5.0/avr toolchain/bin/../lib/gcc/avr/4.5.1/avr4\libgcc.a(_copy_data.o)
 .data          0x00800098        0x0 d:/programowanieavr/avr studio 5.0/avr toolchain/bin/../lib/gcc/avr/4.5.1/avr4\libgcc.a(_clear_bss.o)
 *(.data*)
 *(.rodata)
 *(.rodata*)
 *(.gnu.linkonce.d*)
                0x00800098                . = ALIGN (0x2)
                0x00800098                _edata = .
                0x00800098                PROVIDE (__data_end, .)

.bss            0x00800098       0x14
                0x00800098                PROVIDE (__bss_start, .)
 *(.bss)
 .bss           0x00800098        0x0 d:/programowanieavr/avr studio 5.0/avr toolchain/bin/../lib/gcc/avr/4.5.1/../../../../avr/lib/avr4/crtm8.o
 .bss           0x00800098        0x0 Rysiu.o
 .bss           0x00800098        0x0 Usefull/Enkoders.o
 .bss           0x00800098        0x0 Usefull/I2C.o
 .bss           0x00800098        0x0 Usefull/Sharp.o
 .bss           0x00800098        0x0 Usefull/Silniki.o
 .bss           0x00800098        0x0 Usefull/USART.o
 .bss           0x00800098        0x0 d:/programowanieavr/avr studio 5.0/avr toolchain/bin/../lib/gcc/avr/4.5.1/avr4\libgcc.a(_udivmodhi4.o)
 .bss           0x00800098        0x0 d:/programowanieavr/avr studio 5.0/avr toolchain/bin/../lib/gcc/avr/4.5.1/avr4\libgcc.a(_divmodhi4.o)
 .bss           0x00800098        0x0 d:/programowanieavr/avr studio 5.0/avr toolchain/bin/../lib/gcc/avr/4.5.1/avr4\libgcc.a(_exit.o)
 .bss           0x00800098        0x0 d:/programowanieavr/avr studio 5.0/avr toolchain/bin/../lib/gcc/avr/4.5.1/avr4\libgcc.a(_copy_data.o)
 .bss           0x00800098        0x0 d:/programowanieavr/avr studio 5.0/avr toolchain/bin/../lib/gcc/avr/4.5.1/avr4\libgcc.a(_clear_bss.o)
 *(.bss*)
 *(COMMON)
 COMMON         0x00800098       0x13 Rysiu.o
                0x00800098                I2C_received
                0x00800099                ADC0
                0x0080009b                akt_indeks
                0x0080009c                buf_i
                0x0080009d                buffer
                0x008000a3                ADC2
                0x008000a5                Sharp_Timer_Value
                0x008000a7                ADC3
                0x008000a9                ADC1
 COMMON         0x008000ab        0x1 Usefull/USART.o
                0x008000ab                receive
                0x008000ac                PROVIDE (__bss_end, .)
                0x000007d8                __data_load_start = LOADADDR (.data)
                0x00000810                __data_load_end = (__data_load_start + SIZEOF (.data))

.noinit         0x008000ac        0x0
                0x008000ac                PROVIDE (__noinit_start, .)
 *(.noinit*)
                0x008000ac                PROVIDE (__noinit_end, .)
                0x008000ac                _end = .
                0x008000ac                PROVIDE (__heap_start, .)

.eeprom         0x00810000        0x0
 *(.eeprom*)
                0x00810000                __eeprom_end = .

.fuse
 *(.fuse)
 *(.lfuse)
 *(.hfuse)
 *(.efuse)

.lock
 *(.lock*)

.signature
 *(.signature*)

.stab           0x00000000      0x6cc
 *(.stab)
 .stab          0x00000000      0x6cc d:/programowanieavr/avr studio 5.0/avr toolchain/bin/../lib/gcc/avr/4.5.1/../../../../avr/lib/avr4/crtm8.o

.stabstr        0x00000000       0x85
 *(.stabstr)
 .stabstr       0x00000000       0x85 d:/programowanieavr/avr studio 5.0/avr toolchain/bin/../lib/gcc/avr/4.5.1/../../../../avr/lib/avr4/crtm8.o

.stab.excl
 *(.stab.excl)

.stab.exclstr
 *(.stab.exclstr)

.stab.index
 *(.stab.index)

.stab.indexstr
 *(.stab.indexstr)

.comment
 *(.comment)

.debug
 *(.debug)

.line
 *(.line)

.debug_srcinfo
 *(.debug_srcinfo)

.debug_sfnames
 *(.debug_sfnames)

.debug_aranges  0x00000000       0xc0
 *(.debug_aranges)
 .debug_aranges
                0x00000000       0x20 Rysiu.o
 .debug_aranges
                0x00000020       0x20 Usefull/Enkoders.o
 .debug_aranges
                0x00000040       0x20 Usefull/I2C.o
 .debug_aranges
                0x00000060       0x20 Usefull/Sharp.o
 .debug_aranges
                0x00000080       0x20 Usefull/Silniki.o
 .debug_aranges
                0x000000a0       0x20 Usefull/USART.o

.debug_pubnames
                0x00000000      0x4ee
 *(.debug_pubnames)
 .debug_pubnames
                0x00000000       0x93 Rysiu.o
 .debug_pubnames
                0x00000093       0xb1 Usefull/Enkoders.o
 .debug_pubnames
                0x00000144       0xb9 Usefull/I2C.o
 .debug_pubnames
                0x000001fd       0xd4 Usefull/Sharp.o
 .debug_pubnames
                0x000002d1      0x13a Usefull/Silniki.o
 .debug_pubnames
                0x0000040b       0xe3 Usefull/USART.o

.debug_info     0x00000000      0xe9b
 *(.debug_info)
 .debug_info    0x00000000      0x251 Rysiu.o
 .debug_info    0x00000251      0x1a5 Usefull/Enkoders.o
 .debug_info    0x000003f6      0x1be Usefull/I2C.o
 .debug_info    0x000005b4      0x367 Usefull/Sharp.o
 .debug_info    0x0000091b      0x317 Usefull/Silniki.o
 .debug_info    0x00000c32      0x269 Usefull/USART.o
 *(.gnu.linkonce.wi.*)

.debug_abbrev   0x00000000      0x608
 *(.debug_abbrev)
 .debug_abbrev  0x00000000      0x14c Rysiu.o
 .debug_abbrev  0x0000014c       0xa7 Usefull/Enkoders.o
 .debug_abbrev  0x000001f3       0xa7 Usefull/I2C.o
 .debug_abbrev  0x0000029a      0x132 Usefull/Sharp.o
 .debug_abbrev  0x000003cc      0x10d Usefull/Silniki.o
 .debug_abbrev  0x000004d9      0x12f Usefull/USART.o

.debug_line     0x00000000      0xf2c
 *(.debug_line)
 .debug_line    0x00000000      0x1ee Rysiu.o
 .debug_line    0x000001ee      0x1c4 Usefull/Enkoders.o
 .debug_line    0x000003b2      0x20d Usefull/I2C.o
 .debug_line    0x000005bf      0x475 Usefull/Sharp.o
 .debug_line    0x00000a34      0x30b Usefull/Silniki.o
 .debug_line    0x00000d3f      0x1ed Usefull/USART.o

.debug_frame    0x00000000      0x220
 *(.debug_frame)
 .debug_frame   0x00000000       0x30 Rysiu.o
 .debug_frame   0x00000030       0x40 Usefull/Enkoders.o
 .debug_frame   0x00000070       0x40 Usefull/I2C.o
 .debug_frame   0x000000b0       0x60 Usefull/Sharp.o
 .debug_frame   0x00000110       0xb0 Usefull/Silniki.o
 .debug_frame   0x000001c0       0x60 Usefull/USART.o

.debug_str      0x00000000      0x32f
 *(.debug_str)
 .debug_str     0x00000000      0x147 Rysiu.o
                                0x185 (size before relaxing)
 .debug_str     0x00000147       0x42 Usefull/Enkoders.o
                                0x153 (size before relaxing)
 .debug_str     0x00000189       0x3d Usefull/I2C.o
                                0x156 (size before relaxing)
 .debug_str     0x000001c6       0x52 Usefull/Sharp.o
                                0x16b (size before relaxing)
 .debug_str     0x00000218       0xa6 Usefull/Silniki.o
                                0x1bf (size before relaxing)
 .debug_str     0x000002be       0x71 Usefull/USART.o
                                0x192 (size before relaxing)

.debug_loc      0x00000000      0x2cd
 *(.debug_loc)
 .debug_loc     0x00000000      0x229 Usefull/Sharp.o
 .debug_loc     0x00000229       0x30 Usefull/Silniki.o
 .debug_loc     0x00000259       0x74 Usefull/USART.o

.debug_macinfo
 *(.debug_macinfo)
OUTPUT(Rysiu.elf elf32-avr)
LOAD linker stubs

.debug_pubtypes
                0x00000000      0x103
 .debug_pubtypes
                0x00000000       0x2c Rysiu.o
 .debug_pubtypes
                0x0000002c       0x2b Usefull/Enkoders.o
 .debug_pubtypes
                0x00000057       0x2b Usefull/I2C.o
 .debug_pubtypes
                0x00000082       0x2b Usefull/Sharp.o
 .debug_pubtypes
                0x000000ad       0x2b Usefull/Silniki.o
 .debug_pubtypes
                0x000000d8       0x2b Usefull/USART.o

.debug_ranges   0x00000000       0x30
 .debug_ranges  0x00000000       0x30 Usefull/Silniki.o
