   1              		.syntax unified
   2              		.cpu cortex-m3
   3              		.fpu softvfp
   4              		.eabi_attribute 20, 1
   5              		.eabi_attribute 21, 1
   6              		.eabi_attribute 23, 3
   7              		.eabi_attribute 24, 1
   8              		.eabi_attribute 25, 1
   9              		.eabi_attribute 26, 1
  10              		.eabi_attribute 30, 6
  11              		.eabi_attribute 18, 4
  12              		.thumb
  13              		.file	"stm32f10x_tim.c"
  23              	.Ltext0:
  24              		.file 1 "../Libraries/STM32F10x_StdPeriph_Driver/src/stm32f10x_tim.c"
 20468              		.align	2
 20469              		.global	TIM_DeInit
 20470              		.thumb
 20471              		.thumb_func
 20473              	TIM_DeInit:
 20474              	.LFB29:
   1:../Libraries/STM32F10x_StdPeriph_Driver/src/stm32f10x_tim.c **** /**
   2:../Libraries/STM32F10x_StdPeriph_Driver/src/stm32f10x_tim.c ****   ******************************************************************************
   3:../Libraries/STM32F10x_StdPeriph_Driver/src/stm32f10x_tim.c ****   * @file    stm32f10x_tim.c
   4:../Libraries/STM32F10x_StdPeriph_Driver/src/stm32f10x_tim.c ****   * @author  MCD Application Team
   5:../Libraries/STM32F10x_StdPeriph_Driver/src/stm32f10x_tim.c ****   * @version V3.5.0
   6:../Libraries/STM32F10x_StdPeriph_Driver/src/stm32f10x_tim.c ****   * @date    11-March-2011
   7:../Libraries/STM32F10x_StdPeriph_Driver/src/stm32f10x_tim.c ****   * @brief   This file provides all the TIM firmware functions.
   8:../Libraries/STM32F10x_StdPeriph_Driver/src/stm32f10x_tim.c ****   ******************************************************************************
   9:../Libraries/STM32F10x_StdPeriph_Driver/src/stm32f10x_tim.c ****   * @attention
  10:../Libraries/STM32F10x_StdPeriph_Driver/src/stm32f10x_tim.c ****   *
  11:../Libraries/STM32F10x_StdPeriph_Driver/src/stm32f10x_tim.c ****   * THE PRESENT FIRMWARE WHICH IS FOR GUIDANCE ONLY AIMS AT PROVIDING CUSTOMERS
  12:../Libraries/STM32F10x_StdPeriph_Driver/src/stm32f10x_tim.c ****   * WITH CODING INFORMATION REGARDING THEIR PRODUCTS IN ORDER FOR THEM TO SAVE
  13:../Libraries/STM32F10x_StdPeriph_Driver/src/stm32f10x_tim.c ****   * TIME. AS A RESULT, STMICROELECTRONICS SHALL NOT BE HELD LIABLE FOR ANY
  14:../Libraries/STM32F10x_StdPeriph_Driver/src/stm32f10x_tim.c ****   * DIRECT, INDIRECT OR CONSEQUENTIAL DAMAGES WITH RESPECT TO ANY CLAIMS ARISING
  15:../Libraries/STM32F10x_StdPeriph_Driver/src/stm32f10x_tim.c ****   * FROM THE CONTENT OF SUCH FIRMWARE AND/OR THE USE MADE BY CUSTOMERS OF THE
  16:../Libraries/STM32F10x_StdPeriph_Driver/src/stm32f10x_tim.c ****   * CODING INFORMATION CONTAINED HEREIN IN CONNECTION WITH THEIR PRODUCTS.
  17:../Libraries/STM32F10x_StdPeriph_Driver/src/stm32f10x_tim.c ****   *
  18:../Libraries/STM32F10x_StdPeriph_Driver/src/stm32f10x_tim.c ****   * <h2><center>&copy; COPYRIGHT 2011 STMicroelectronics</center></h2>
  19:../Libraries/STM32F10x_StdPeriph_Driver/src/stm32f10x_tim.c ****   ******************************************************************************
  20:../Libraries/STM32F10x_StdPeriph_Driver/src/stm32f10x_tim.c ****   */
  21:../Libraries/STM32F10x_StdPeriph_Driver/src/stm32f10x_tim.c **** 
  22:../Libraries/STM32F10x_StdPeriph_Driver/src/stm32f10x_tim.c **** /* Includes ------------------------------------------------------------------*/
  23:../Libraries/STM32F10x_StdPeriph_Driver/src/stm32f10x_tim.c **** #include "stm32f10x_tim.h"
  24:../Libraries/STM32F10x_StdPeriph_Driver/src/stm32f10x_tim.c **** #include "stm32f10x_rcc.h"
  25:../Libraries/STM32F10x_StdPeriph_Driver/src/stm32f10x_tim.c **** 
  26:../Libraries/STM32F10x_StdPeriph_Driver/src/stm32f10x_tim.c **** /** @addtogroup STM32F10x_StdPeriph_Driver
  27:../Libraries/STM32F10x_StdPeriph_Driver/src/stm32f10x_tim.c ****   * @{
  28:../Libraries/STM32F10x_StdPeriph_Driver/src/stm32f10x_tim.c ****   */
  29:../Libraries/STM32F10x_StdPeriph_Driver/src/stm32f10x_tim.c **** 
  30:../Libraries/STM32F10x_StdPeriph_Driver/src/stm32f10x_tim.c **** /** @defgroup TIM 
  31:../Libraries/STM32F10x_StdPeriph_Driver/src/stm32f10x_tim.c ****   * @brief TIM driver modules
  32:../Libraries/STM32F10x_StdPeriph_Driver/src/stm32f10x_tim.c ****   * @{
  33:../Libraries/STM32F10x_StdPeriph_Driver/src/stm32f10x_tim.c ****   */
  34:../Libraries/STM32F10x_StdPeriph_Driver/src/stm32f10x_tim.c **** 
  35:../Libraries/STM32F10x_StdPeriph_Driver/src/stm32f10x_tim.c **** /** @defgroup TIM_Private_TypesDefinitions
  36:../Libraries/STM32F10x_StdPeriph_Driver/src/stm32f10x_tim.c ****   * @{
  37:../Libraries/STM32F10x_StdPeriph_Driver/src/stm32f10x_tim.c ****   */
  38:../Libraries/STM32F10x_StdPeriph_Driver/src/stm32f10x_tim.c **** 
  39:../Libraries/STM32F10x_StdPeriph_Driver/src/stm32f10x_tim.c **** /**
  40:../Libraries/STM32F10x_StdPeriph_Driver/src/stm32f10x_tim.c ****   * @}
  41:../Libraries/STM32F10x_StdPeriph_Driver/src/stm32f10x_tim.c ****   */
  42:../Libraries/STM32F10x_StdPeriph_Driver/src/stm32f10x_tim.c **** 
  43:../Libraries/STM32F10x_StdPeriph_Driver/src/stm32f10x_tim.c **** /** @defgroup TIM_Private_Defines
  44:../Libraries/STM32F10x_StdPeriph_Driver/src/stm32f10x_tim.c ****   * @{
  45:../Libraries/STM32F10x_StdPeriph_Driver/src/stm32f10x_tim.c ****   */
  46:../Libraries/STM32F10x_StdPeriph_Driver/src/stm32f10x_tim.c **** 
  47:../Libraries/STM32F10x_StdPeriph_Driver/src/stm32f10x_tim.c **** /* ---------------------- TIM registers bit mask ------------------------ */
  48:../Libraries/STM32F10x_StdPeriph_Driver/src/stm32f10x_tim.c **** #define SMCR_ETR_Mask               ((uint16_t)0x00FF) 
  49:../Libraries/STM32F10x_StdPeriph_Driver/src/stm32f10x_tim.c **** #define CCMR_Offset                 ((uint16_t)0x0018)
  50:../Libraries/STM32F10x_StdPeriph_Driver/src/stm32f10x_tim.c **** #define CCER_CCE_Set                ((uint16_t)0x0001)  
  51:../Libraries/STM32F10x_StdPeriph_Driver/src/stm32f10x_tim.c **** #define	CCER_CCNE_Set               ((uint16_t)0x0004) 
  52:../Libraries/STM32F10x_StdPeriph_Driver/src/stm32f10x_tim.c **** 
  53:../Libraries/STM32F10x_StdPeriph_Driver/src/stm32f10x_tim.c **** /**
  54:../Libraries/STM32F10x_StdPeriph_Driver/src/stm32f10x_tim.c ****   * @}
  55:../Libraries/STM32F10x_StdPeriph_Driver/src/stm32f10x_tim.c ****   */
  56:../Libraries/STM32F10x_StdPeriph_Driver/src/stm32f10x_tim.c **** 
  57:../Libraries/STM32F10x_StdPeriph_Driver/src/stm32f10x_tim.c **** /** @defgroup TIM_Private_Macros
  58:../Libraries/STM32F10x_StdPeriph_Driver/src/stm32f10x_tim.c ****   * @{
  59:../Libraries/STM32F10x_StdPeriph_Driver/src/stm32f10x_tim.c ****   */
  60:../Libraries/STM32F10x_StdPeriph_Driver/src/stm32f10x_tim.c **** 
  61:../Libraries/STM32F10x_StdPeriph_Driver/src/stm32f10x_tim.c **** /**
  62:../Libraries/STM32F10x_StdPeriph_Driver/src/stm32f10x_tim.c ****   * @}
  63:../Libraries/STM32F10x_StdPeriph_Driver/src/stm32f10x_tim.c ****   */
  64:../Libraries/STM32F10x_StdPeriph_Driver/src/stm32f10x_tim.c **** 
  65:../Libraries/STM32F10x_StdPeriph_Driver/src/stm32f10x_tim.c **** /** @defgroup TIM_Private_Variables
  66:../Libraries/STM32F10x_StdPeriph_Driver/src/stm32f10x_tim.c ****   * @{
  67:../Libraries/STM32F10x_StdPeriph_Driver/src/stm32f10x_tim.c ****   */
  68:../Libraries/STM32F10x_StdPeriph_Driver/src/stm32f10x_tim.c **** 
  69:../Libraries/STM32F10x_StdPeriph_Driver/src/stm32f10x_tim.c **** /**
  70:../Libraries/STM32F10x_StdPeriph_Driver/src/stm32f10x_tim.c ****   * @}
  71:../Libraries/STM32F10x_StdPeriph_Driver/src/stm32f10x_tim.c ****   */
  72:../Libraries/STM32F10x_StdPeriph_Driver/src/stm32f10x_tim.c **** 
  73:../Libraries/STM32F10x_StdPeriph_Driver/src/stm32f10x_tim.c **** /** @defgroup TIM_Private_FunctionPrototypes
  74:../Libraries/STM32F10x_StdPeriph_Driver/src/stm32f10x_tim.c ****   * @{
  75:../Libraries/STM32F10x_StdPeriph_Driver/src/stm32f10x_tim.c ****   */
  76:../Libraries/STM32F10x_StdPeriph_Driver/src/stm32f10x_tim.c **** 
  77:../Libraries/STM32F10x_StdPeriph_Driver/src/stm32f10x_tim.c **** static void TI1_Config(TIM_TypeDef* TIMx, uint16_t TIM_ICPolarity, uint16_t TIM_ICSelection,
  78:../Libraries/STM32F10x_StdPeriph_Driver/src/stm32f10x_tim.c ****                        uint16_t TIM_ICFilter);
  79:../Libraries/STM32F10x_StdPeriph_Driver/src/stm32f10x_tim.c **** static void TI2_Config(TIM_TypeDef* TIMx, uint16_t TIM_ICPolarity, uint16_t TIM_ICSelection,
  80:../Libraries/STM32F10x_StdPeriph_Driver/src/stm32f10x_tim.c ****                        uint16_t TIM_ICFilter);
  81:../Libraries/STM32F10x_StdPeriph_Driver/src/stm32f10x_tim.c **** static void TI3_Config(TIM_TypeDef* TIMx, uint16_t TIM_ICPolarity, uint16_t TIM_ICSelection,
  82:../Libraries/STM32F10x_StdPeriph_Driver/src/stm32f10x_tim.c ****                        uint16_t TIM_ICFilter);
  83:../Libraries/STM32F10x_StdPeriph_Driver/src/stm32f10x_tim.c **** static void TI4_Config(TIM_TypeDef* TIMx, uint16_t TIM_ICPolarity, uint16_t TIM_ICSelection,
  84:../Libraries/STM32F10x_StdPeriph_Driver/src/stm32f10x_tim.c ****                        uint16_t TIM_ICFilter);
  85:../Libraries/STM32F10x_StdPeriph_Driver/src/stm32f10x_tim.c **** /**
  86:../Libraries/STM32F10x_StdPeriph_Driver/src/stm32f10x_tim.c ****   * @}
  87:../Libraries/STM32F10x_StdPeriph_Driver/src/stm32f10x_tim.c ****   */
  88:../Libraries/STM32F10x_StdPeriph_Driver/src/stm32f10x_tim.c **** 
  89:../Libraries/STM32F10x_StdPeriph_Driver/src/stm32f10x_tim.c **** /** @defgroup TIM_Private_Macros
  90:../Libraries/STM32F10x_StdPeriph_Driver/src/stm32f10x_tim.c ****   * @{
  91:../Libraries/STM32F10x_StdPeriph_Driver/src/stm32f10x_tim.c ****   */
  92:../Libraries/STM32F10x_StdPeriph_Driver/src/stm32f10x_tim.c **** 
  93:../Libraries/STM32F10x_StdPeriph_Driver/src/stm32f10x_tim.c **** /**
  94:../Libraries/STM32F10x_StdPeriph_Driver/src/stm32f10x_tim.c ****   * @}
  95:../Libraries/STM32F10x_StdPeriph_Driver/src/stm32f10x_tim.c ****   */
  96:../Libraries/STM32F10x_StdPeriph_Driver/src/stm32f10x_tim.c **** 
  97:../Libraries/STM32F10x_StdPeriph_Driver/src/stm32f10x_tim.c **** /** @defgroup TIM_Private_Variables
  98:../Libraries/STM32F10x_StdPeriph_Driver/src/stm32f10x_tim.c ****   * @{
  99:../Libraries/STM32F10x_StdPeriph_Driver/src/stm32f10x_tim.c ****   */
 100:../Libraries/STM32F10x_StdPeriph_Driver/src/stm32f10x_tim.c **** 
 101:../Libraries/STM32F10x_StdPeriph_Driver/src/stm32f10x_tim.c **** /**
 102:../Libraries/STM32F10x_StdPeriph_Driver/src/stm32f10x_tim.c ****   * @}
 103:../Libraries/STM32F10x_StdPeriph_Driver/src/stm32f10x_tim.c ****   */
 104:../Libraries/STM32F10x_StdPeriph_Driver/src/stm32f10x_tim.c **** 
 105:../Libraries/STM32F10x_StdPeriph_Driver/src/stm32f10x_tim.c **** /** @defgroup TIM_Private_FunctionPrototypes
 106:../Libraries/STM32F10x_StdPeriph_Driver/src/stm32f10x_tim.c ****   * @{
 107:../Libraries/STM32F10x_StdPeriph_Driver/src/stm32f10x_tim.c ****   */
 108:../Libraries/STM32F10x_StdPeriph_Driver/src/stm32f10x_tim.c **** 
 109:../Libraries/STM32F10x_StdPeriph_Driver/src/stm32f10x_tim.c **** /**
 110:../Libraries/STM32F10x_StdPeriph_Driver/src/stm32f10x_tim.c ****   * @}
 111:../Libraries/STM32F10x_StdPeriph_Driver/src/stm32f10x_tim.c ****   */
 112:../Libraries/STM32F10x_StdPeriph_Driver/src/stm32f10x_tim.c **** 
 113:../Libraries/STM32F10x_StdPeriph_Driver/src/stm32f10x_tim.c **** /** @defgroup TIM_Private_Functions
 114:../Libraries/STM32F10x_StdPeriph_Driver/src/stm32f10x_tim.c ****   * @{
 115:../Libraries/STM32F10x_StdPeriph_Driver/src/stm32f10x_tim.c ****   */
 116:../Libraries/STM32F10x_StdPeriph_Driver/src/stm32f10x_tim.c **** 
 117:../Libraries/STM32F10x_StdPeriph_Driver/src/stm32f10x_tim.c **** /**
 118:../Libraries/STM32F10x_StdPeriph_Driver/src/stm32f10x_tim.c ****   * @brief  Deinitializes the TIMx peripheral registers to their default reset values.
 119:../Libraries/STM32F10x_StdPeriph_Driver/src/stm32f10x_tim.c ****   * @param  TIMx: where x can be 1 to 17 to select the TIM peripheral.
 120:../Libraries/STM32F10x_StdPeriph_Driver/src/stm32f10x_tim.c ****   * @retval None
 121:../Libraries/STM32F10x_StdPeriph_Driver/src/stm32f10x_tim.c ****   */
 122:../Libraries/STM32F10x_StdPeriph_Driver/src/stm32f10x_tim.c **** void TIM_DeInit(TIM_TypeDef* TIMx)
 123:../Libraries/STM32F10x_StdPeriph_Driver/src/stm32f10x_tim.c **** {
 20475              		.loc 1 123 0
 20476              		.cfi_startproc
 20477              		@ args = 0, pretend = 0, frame = 8
 20478              		@ frame_needed = 1, uses_anonymous_args = 0
 20479 0000 80B5     		push	{r7, lr}
 20480              	.LCFI0:
 20481              		.cfi_def_cfa_offset 8
 20482 0002 82B0     		sub	sp, sp, #8
 20483              	.LCFI1:
 20484              		.cfi_def_cfa_offset 16
 20485 0004 00AF     		add	r7, sp, #0
 20486              		.cfi_offset 14, -4
 20487              		.cfi_offset 7, -8
 20488              	.LCFI2:
 20489              		.cfi_def_cfa_register 7
 20490 0006 7860     		str	r0, [r7, #4]
 124:../Libraries/STM32F10x_StdPeriph_Driver/src/stm32f10x_tim.c ****   /* Check the parameters */
 125:../Libraries/STM32F10x_StdPeriph_Driver/src/stm32f10x_tim.c ****   assert_param(IS_TIM_ALL_PERIPH(TIMx)); 
 126:../Libraries/STM32F10x_StdPeriph_Driver/src/stm32f10x_tim.c ****  
 127:../Libraries/STM32F10x_StdPeriph_Driver/src/stm32f10x_tim.c ****   if (TIMx == TIM1)
 20491              		.loc 1 127 0
 20492 0008 7A68     		ldr	r2, [r7, #4]
 20493 000a 914B     		ldr	r3, .L19
 20494 000c 9A42     		cmp	r2, r3
 20495 000e 0CD1     		bne	.L2
 128:../Libraries/STM32F10x_StdPeriph_Driver/src/stm32f10x_tim.c ****   {
 129:../Libraries/STM32F10x_StdPeriph_Driver/src/stm32f10x_tim.c ****     RCC_APB2PeriphResetCmd(RCC_APB2Periph_TIM1, ENABLE);
 20496              		.loc 1 129 0
 20497 0010 4FF40060 		mov	r0, #2048
 20498 0014 4FF00101 		mov	r1, #1
 20499 0018 FFF7FEFF 		bl	RCC_APB2PeriphResetCmd
 130:../Libraries/STM32F10x_StdPeriph_Driver/src/stm32f10x_tim.c ****     RCC_APB2PeriphResetCmd(RCC_APB2Periph_TIM1, DISABLE);  
 20500              		.loc 1 130 0
 20501 001c 4FF40060 		mov	r0, #2048
 20502 0020 4FF00001 		mov	r1, #0
 20503 0024 FFF7FEFF 		bl	RCC_APB2PeriphResetCmd
 20504 0028 0EE1     		b	.L1
 20505              	.L2:
 131:../Libraries/STM32F10x_StdPeriph_Driver/src/stm32f10x_tim.c ****   }     
 132:../Libraries/STM32F10x_StdPeriph_Driver/src/stm32f10x_tim.c ****   else if (TIMx == TIM2)
 20506              		.loc 1 132 0
 20507 002a 7B68     		ldr	r3, [r7, #4]
 20508 002c B3F1804F 		cmp	r3, #1073741824
 20509 0030 0CD1     		bne	.L4
 133:../Libraries/STM32F10x_StdPeriph_Driver/src/stm32f10x_tim.c ****   {
 134:../Libraries/STM32F10x_StdPeriph_Driver/src/stm32f10x_tim.c ****     RCC_APB1PeriphResetCmd(RCC_APB1Periph_TIM2, ENABLE);
 20510              		.loc 1 134 0
 20511 0032 4FF00100 		mov	r0, #1
 20512 0036 4FF00101 		mov	r1, #1
 20513 003a FFF7FEFF 		bl	RCC_APB1PeriphResetCmd
 135:../Libraries/STM32F10x_StdPeriph_Driver/src/stm32f10x_tim.c ****     RCC_APB1PeriphResetCmd(RCC_APB1Periph_TIM2, DISABLE);
 20514              		.loc 1 135 0
 20515 003e 4FF00100 		mov	r0, #1
 20516 0042 4FF00001 		mov	r1, #0
 20517 0046 FFF7FEFF 		bl	RCC_APB1PeriphResetCmd
 20518 004a FDE0     		b	.L1
 20519              	.L4:
 136:../Libraries/STM32F10x_StdPeriph_Driver/src/stm32f10x_tim.c ****   }
 137:../Libraries/STM32F10x_StdPeriph_Driver/src/stm32f10x_tim.c ****   else if (TIMx == TIM3)
 20520              		.loc 1 137 0
 20521 004c 7A68     		ldr	r2, [r7, #4]
 20522 004e 814B     		ldr	r3, .L19+4
 20523 0050 9A42     		cmp	r2, r3
 20524 0052 0CD1     		bne	.L5
 138:../Libraries/STM32F10x_StdPeriph_Driver/src/stm32f10x_tim.c ****   {
 139:../Libraries/STM32F10x_StdPeriph_Driver/src/stm32f10x_tim.c ****     RCC_APB1PeriphResetCmd(RCC_APB1Periph_TIM3, ENABLE);
 20525              		.loc 1 139 0
 20526 0054 4FF00200 		mov	r0, #2
 20527 0058 4FF00101 		mov	r1, #1
 20528 005c FFF7FEFF 		bl	RCC_APB1PeriphResetCmd
 140:../Libraries/STM32F10x_StdPeriph_Driver/src/stm32f10x_tim.c ****     RCC_APB1PeriphResetCmd(RCC_APB1Periph_TIM3, DISABLE);
 20529              		.loc 1 140 0
 20530 0060 4FF00200 		mov	r0, #2
 20531 0064 4FF00001 		mov	r1, #0
 20532 0068 FFF7FEFF 		bl	RCC_APB1PeriphResetCmd
 20533 006c ECE0     		b	.L1
 20534              	.L5:
 141:../Libraries/STM32F10x_StdPeriph_Driver/src/stm32f10x_tim.c ****   }
 142:../Libraries/STM32F10x_StdPeriph_Driver/src/stm32f10x_tim.c ****   else if (TIMx == TIM4)
 20535              		.loc 1 142 0
 20536 006e 7A68     		ldr	r2, [r7, #4]
 20537 0070 794B     		ldr	r3, .L19+8
 20538 0072 9A42     		cmp	r2, r3
 20539 0074 0CD1     		bne	.L6
 143:../Libraries/STM32F10x_StdPeriph_Driver/src/stm32f10x_tim.c ****   {
 144:../Libraries/STM32F10x_StdPeriph_Driver/src/stm32f10x_tim.c ****     RCC_APB1PeriphResetCmd(RCC_APB1Periph_TIM4, ENABLE);
 20540              		.loc 1 144 0
 20541 0076 4FF00400 		mov	r0, #4
 20542 007a 4FF00101 		mov	r1, #1
 20543 007e FFF7FEFF 		bl	RCC_APB1PeriphResetCmd
 145:../Libraries/STM32F10x_StdPeriph_Driver/src/stm32f10x_tim.c ****     RCC_APB1PeriphResetCmd(RCC_APB1Periph_TIM4, DISABLE);
 20544              		.loc 1 145 0
 20545 0082 4FF00400 		mov	r0, #4
 20546 0086 4FF00001 		mov	r1, #0
 20547 008a FFF7FEFF 		bl	RCC_APB1PeriphResetCmd
 20548 008e DBE0     		b	.L1
 20549              	.L6:
 146:../Libraries/STM32F10x_StdPeriph_Driver/src/stm32f10x_tim.c ****   } 
 147:../Libraries/STM32F10x_StdPeriph_Driver/src/stm32f10x_tim.c ****   else if (TIMx == TIM5)
 20550              		.loc 1 147 0
 20551 0090 7A68     		ldr	r2, [r7, #4]
 20552 0092 724B     		ldr	r3, .L19+12
 20553 0094 9A42     		cmp	r2, r3
 20554 0096 0CD1     		bne	.L7
 148:../Libraries/STM32F10x_StdPeriph_Driver/src/stm32f10x_tim.c ****   {
 149:../Libraries/STM32F10x_StdPeriph_Driver/src/stm32f10x_tim.c ****     RCC_APB1PeriphResetCmd(RCC_APB1Periph_TIM5, ENABLE);
 20555              		.loc 1 149 0
 20556 0098 4FF00800 		mov	r0, #8
 20557 009c 4FF00101 		mov	r1, #1
 20558 00a0 FFF7FEFF 		bl	RCC_APB1PeriphResetCmd
 150:../Libraries/STM32F10x_StdPeriph_Driver/src/stm32f10x_tim.c ****     RCC_APB1PeriphResetCmd(RCC_APB1Periph_TIM5, DISABLE);
 20559              		.loc 1 150 0
 20560 00a4 4FF00800 		mov	r0, #8
 20561 00a8 4FF00001 		mov	r1, #0
 20562 00ac FFF7FEFF 		bl	RCC_APB1PeriphResetCmd
 20563 00b0 CAE0     		b	.L1
 20564              	.L7:
 151:../Libraries/STM32F10x_StdPeriph_Driver/src/stm32f10x_tim.c ****   } 
 152:../Libraries/STM32F10x_StdPeriph_Driver/src/stm32f10x_tim.c ****   else if (TIMx == TIM6)
 20565              		.loc 1 152 0
 20566 00b2 7A68     		ldr	r2, [r7, #4]
 20567 00b4 6A4B     		ldr	r3, .L19+16
 20568 00b6 9A42     		cmp	r2, r3
 20569 00b8 0CD1     		bne	.L8
 153:../Libraries/STM32F10x_StdPeriph_Driver/src/stm32f10x_tim.c ****   {
 154:../Libraries/STM32F10x_StdPeriph_Driver/src/stm32f10x_tim.c ****     RCC_APB1PeriphResetCmd(RCC_APB1Periph_TIM6, ENABLE);
 20570              		.loc 1 154 0
 20571 00ba 4FF01000 		mov	r0, #16
 20572 00be 4FF00101 		mov	r1, #1
 20573 00c2 FFF7FEFF 		bl	RCC_APB1PeriphResetCmd
 155:../Libraries/STM32F10x_StdPeriph_Driver/src/stm32f10x_tim.c ****     RCC_APB1PeriphResetCmd(RCC_APB1Periph_TIM6, DISABLE);
 20574              		.loc 1 155 0
 20575 00c6 4FF01000 		mov	r0, #16
 20576 00ca 4FF00001 		mov	r1, #0
 20577 00ce FFF7FEFF 		bl	RCC_APB1PeriphResetCmd
 20578 00d2 B9E0     		b	.L1
 20579              	.L8:
 156:../Libraries/STM32F10x_StdPeriph_Driver/src/stm32f10x_tim.c ****   } 
 157:../Libraries/STM32F10x_StdPeriph_Driver/src/stm32f10x_tim.c ****   else if (TIMx == TIM7)
 20580              		.loc 1 157 0
 20581 00d4 7A68     		ldr	r2, [r7, #4]
 20582 00d6 634B     		ldr	r3, .L19+20
 20583 00d8 9A42     		cmp	r2, r3
 20584 00da 0CD1     		bne	.L9
 158:../Libraries/STM32F10x_StdPeriph_Driver/src/stm32f10x_tim.c ****   {
 159:../Libraries/STM32F10x_StdPeriph_Driver/src/stm32f10x_tim.c ****     RCC_APB1PeriphResetCmd(RCC_APB1Periph_TIM7, ENABLE);
 20585              		.loc 1 159 0
 20586 00dc 4FF02000 		mov	r0, #32
 20587 00e0 4FF00101 		mov	r1, #1
 20588 00e4 FFF7FEFF 		bl	RCC_APB1PeriphResetCmd
 160:../Libraries/STM32F10x_StdPeriph_Driver/src/stm32f10x_tim.c ****     RCC_APB1PeriphResetCmd(RCC_APB1Periph_TIM7, DISABLE);
 20589              		.loc 1 160 0
 20590 00e8 4FF02000 		mov	r0, #32
 20591 00ec 4FF00001 		mov	r1, #0
 20592 00f0 FFF7FEFF 		bl	RCC_APB1PeriphResetCmd
 20593 00f4 A8E0     		b	.L1
 20594              	.L9:
 161:../Libraries/STM32F10x_StdPeriph_Driver/src/stm32f10x_tim.c ****   } 
 162:../Libraries/STM32F10x_StdPeriph_Driver/src/stm32f10x_tim.c ****   else if (TIMx == TIM8)
 20595              		.loc 1 162 0
 20596 00f6 7A68     		ldr	r2, [r7, #4]
 20597 00f8 5B4B     		ldr	r3, .L19+24
 20598 00fa 9A42     		cmp	r2, r3
 20599 00fc 0CD1     		bne	.L10
 163:../Libraries/STM32F10x_StdPeriph_Driver/src/stm32f10x_tim.c ****   {
 164:../Libraries/STM32F10x_StdPeriph_Driver/src/stm32f10x_tim.c ****     RCC_APB2PeriphResetCmd(RCC_APB2Periph_TIM8, ENABLE);
 20600              		.loc 1 164 0
 20601 00fe 4FF40050 		mov	r0, #8192
 20602 0102 4FF00101 		mov	r1, #1
 20603 0106 FFF7FEFF 		bl	RCC_APB2PeriphResetCmd
 165:../Libraries/STM32F10x_StdPeriph_Driver/src/stm32f10x_tim.c ****     RCC_APB2PeriphResetCmd(RCC_APB2Periph_TIM8, DISABLE);
 20604              		.loc 1 165 0
 20605 010a 4FF40050 		mov	r0, #8192
 20606 010e 4FF00001 		mov	r1, #0
 20607 0112 FFF7FEFF 		bl	RCC_APB2PeriphResetCmd
 20608 0116 97E0     		b	.L1
 20609              	.L10:
 166:../Libraries/STM32F10x_StdPeriph_Driver/src/stm32f10x_tim.c ****   }
 167:../Libraries/STM32F10x_StdPeriph_Driver/src/stm32f10x_tim.c ****   else if (TIMx == TIM9)
 20610              		.loc 1 167 0
 20611 0118 7A68     		ldr	r2, [r7, #4]
 20612 011a 544B     		ldr	r3, .L19+28
 20613 011c 9A42     		cmp	r2, r3
 20614 011e 0CD1     		bne	.L11
 168:../Libraries/STM32F10x_StdPeriph_Driver/src/stm32f10x_tim.c ****   {      
 169:../Libraries/STM32F10x_StdPeriph_Driver/src/stm32f10x_tim.c ****     RCC_APB2PeriphResetCmd(RCC_APB2Periph_TIM9, ENABLE);
 20615              		.loc 1 169 0
 20616 0120 4FF40020 		mov	r0, #524288
 20617 0124 4FF00101 		mov	r1, #1
 20618 0128 FFF7FEFF 		bl	RCC_APB2PeriphResetCmd
 170:../Libraries/STM32F10x_StdPeriph_Driver/src/stm32f10x_tim.c ****     RCC_APB2PeriphResetCmd(RCC_APB2Periph_TIM9, DISABLE);  
 20619              		.loc 1 170 0
 20620 012c 4FF40020 		mov	r0, #524288
 20621 0130 4FF00001 		mov	r1, #0
 20622 0134 FFF7FEFF 		bl	RCC_APB2PeriphResetCmd
 20623 0138 86E0     		b	.L1
 20624              	.L11:
 171:../Libraries/STM32F10x_StdPeriph_Driver/src/stm32f10x_tim.c ****    }  
 172:../Libraries/STM32F10x_StdPeriph_Driver/src/stm32f10x_tim.c ****   else if (TIMx == TIM10)
 20625              		.loc 1 172 0
 20626 013a 7A68     		ldr	r2, [r7, #4]
 20627 013c 4C4B     		ldr	r3, .L19+32
 20628 013e 9A42     		cmp	r2, r3
 20629 0140 0CD1     		bne	.L12
 173:../Libraries/STM32F10x_StdPeriph_Driver/src/stm32f10x_tim.c ****   {      
 174:../Libraries/STM32F10x_StdPeriph_Driver/src/stm32f10x_tim.c ****     RCC_APB2PeriphResetCmd(RCC_APB2Periph_TIM10, ENABLE);
 20630              		.loc 1 174 0
 20631 0142 4FF48010 		mov	r0, #1048576
 20632 0146 4FF00101 		mov	r1, #1
 20633 014a FFF7FEFF 		bl	RCC_APB2PeriphResetCmd
 175:../Libraries/STM32F10x_StdPeriph_Driver/src/stm32f10x_tim.c ****     RCC_APB2PeriphResetCmd(RCC_APB2Periph_TIM10, DISABLE);  
 20634              		.loc 1 175 0
 20635 014e 4FF48010 		mov	r0, #1048576
 20636 0152 4FF00001 		mov	r1, #0
 20637 0156 FFF7FEFF 		bl	RCC_APB2PeriphResetCmd
 20638 015a 75E0     		b	.L1
 20639              	.L12:
 176:../Libraries/STM32F10x_StdPeriph_Driver/src/stm32f10x_tim.c ****   }  
 177:../Libraries/STM32F10x_StdPeriph_Driver/src/stm32f10x_tim.c ****   else if (TIMx == TIM11) 
 20640              		.loc 1 177 0
 20641 015c 7A68     		ldr	r2, [r7, #4]
 20642 015e 454B     		ldr	r3, .L19+36
 20643 0160 9A42     		cmp	r2, r3
 20644 0162 0CD1     		bne	.L13
 178:../Libraries/STM32F10x_StdPeriph_Driver/src/stm32f10x_tim.c ****   {     
 179:../Libraries/STM32F10x_StdPeriph_Driver/src/stm32f10x_tim.c ****     RCC_APB2PeriphResetCmd(RCC_APB2Periph_TIM11, ENABLE);
 20645              		.loc 1 179 0
 20646 0164 4FF40010 		mov	r0, #2097152
 20647 0168 4FF00101 		mov	r1, #1
 20648 016c FFF7FEFF 		bl	RCC_APB2PeriphResetCmd
 180:../Libraries/STM32F10x_StdPeriph_Driver/src/stm32f10x_tim.c ****     RCC_APB2PeriphResetCmd(RCC_APB2Periph_TIM11, DISABLE);  
 20649              		.loc 1 180 0
 20650 0170 4FF40010 		mov	r0, #2097152
 20651 0174 4FF00001 		mov	r1, #0
 20652 0178 FFF7FEFF 		bl	RCC_APB2PeriphResetCmd
 20653 017c 64E0     		b	.L1
 20654              	.L13:
 181:../Libraries/STM32F10x_StdPeriph_Driver/src/stm32f10x_tim.c ****   }  
 182:../Libraries/STM32F10x_StdPeriph_Driver/src/stm32f10x_tim.c ****   else if (TIMx == TIM12)
 20655              		.loc 1 182 0
 20656 017e 7A68     		ldr	r2, [r7, #4]
 20657 0180 3D4B     		ldr	r3, .L19+40
 20658 0182 9A42     		cmp	r2, r3
 20659 0184 0CD1     		bne	.L14
 183:../Libraries/STM32F10x_StdPeriph_Driver/src/stm32f10x_tim.c ****   {      
 184:../Libraries/STM32F10x_StdPeriph_Driver/src/stm32f10x_tim.c ****     RCC_APB1PeriphResetCmd(RCC_APB1Periph_TIM12, ENABLE);
 20660              		.loc 1 184 0
 20661 0186 4FF04000 		mov	r0, #64
 20662 018a 4FF00101 		mov	r1, #1
 20663 018e FFF7FEFF 		bl	RCC_APB1PeriphResetCmd
 185:../Libraries/STM32F10x_StdPeriph_Driver/src/stm32f10x_tim.c ****     RCC_APB1PeriphResetCmd(RCC_APB1Periph_TIM12, DISABLE);  
 20664              		.loc 1 185 0
 20665 0192 4FF04000 		mov	r0, #64
 20666 0196 4FF00001 		mov	r1, #0
 20667 019a FFF7FEFF 		bl	RCC_APB1PeriphResetCmd
 20668 019e 53E0     		b	.L1
 20669              	.L14:
 186:../Libraries/STM32F10x_StdPeriph_Driver/src/stm32f10x_tim.c ****   }  
 187:../Libraries/STM32F10x_StdPeriph_Driver/src/stm32f10x_tim.c ****   else if (TIMx == TIM13) 
 20670              		.loc 1 187 0
 20671 01a0 7A68     		ldr	r2, [r7, #4]
 20672 01a2 364B     		ldr	r3, .L19+44
 20673 01a4 9A42     		cmp	r2, r3
 20674 01a6 0CD1     		bne	.L15
 188:../Libraries/STM32F10x_StdPeriph_Driver/src/stm32f10x_tim.c ****   {       
 189:../Libraries/STM32F10x_StdPeriph_Driver/src/stm32f10x_tim.c ****     RCC_APB1PeriphResetCmd(RCC_APB1Periph_TIM13, ENABLE);
 20675              		.loc 1 189 0
 20676 01a8 4FF08000 		mov	r0, #128
 20677 01ac 4FF00101 		mov	r1, #1
 20678 01b0 FFF7FEFF 		bl	RCC_APB1PeriphResetCmd
 190:../Libraries/STM32F10x_StdPeriph_Driver/src/stm32f10x_tim.c ****     RCC_APB1PeriphResetCmd(RCC_APB1Periph_TIM13, DISABLE);  
 20679              		.loc 1 190 0
 20680 01b4 4FF08000 		mov	r0, #128
 20681 01b8 4FF00001 		mov	r1, #0
 20682 01bc FFF7FEFF 		bl	RCC_APB1PeriphResetCmd
 20683 01c0 42E0     		b	.L1
 20684              	.L15:
 191:../Libraries/STM32F10x_StdPeriph_Driver/src/stm32f10x_tim.c ****   }
 192:../Libraries/STM32F10x_StdPeriph_Driver/src/stm32f10x_tim.c ****   else if (TIMx == TIM14) 
 20685              		.loc 1 192 0
 20686 01c2 7A68     		ldr	r2, [r7, #4]
 20687 01c4 2E4B     		ldr	r3, .L19+48
 20688 01c6 9A42     		cmp	r2, r3
 20689 01c8 0CD1     		bne	.L16
 193:../Libraries/STM32F10x_StdPeriph_Driver/src/stm32f10x_tim.c ****   {       
 194:../Libraries/STM32F10x_StdPeriph_Driver/src/stm32f10x_tim.c ****     RCC_APB1PeriphResetCmd(RCC_APB1Periph_TIM14, ENABLE);
 20690              		.loc 1 194 0
 20691 01ca 4FF48070 		mov	r0, #256
 20692 01ce 4FF00101 		mov	r1, #1
 20693 01d2 FFF7FEFF 		bl	RCC_APB1PeriphResetCmd
 195:../Libraries/STM32F10x_StdPeriph_Driver/src/stm32f10x_tim.c ****     RCC_APB1PeriphResetCmd(RCC_APB1Periph_TIM14, DISABLE);  
 20694              		.loc 1 195 0
 20695 01d6 4FF48070 		mov	r0, #256
 20696 01da 4FF00001 		mov	r1, #0
 20697 01de FFF7FEFF 		bl	RCC_APB1PeriphResetCmd
 20698 01e2 31E0     		b	.L1
 20699              	.L16:
 196:../Libraries/STM32F10x_StdPeriph_Driver/src/stm32f10x_tim.c ****   }        
 197:../Libraries/STM32F10x_StdPeriph_Driver/src/stm32f10x_tim.c ****   else if (TIMx == TIM15)
 20700              		.loc 1 197 0
 20701 01e4 7A68     		ldr	r2, [r7, #4]
 20702 01e6 274B     		ldr	r3, .L19+52
 20703 01e8 9A42     		cmp	r2, r3
 20704 01ea 0CD1     		bne	.L17
 198:../Libraries/STM32F10x_StdPeriph_Driver/src/stm32f10x_tim.c ****   {
 199:../Libraries/STM32F10x_StdPeriph_Driver/src/stm32f10x_tim.c ****     RCC_APB2PeriphResetCmd(RCC_APB2Periph_TIM15, ENABLE);
 20705              		.loc 1 199 0
 20706 01ec 4FF48030 		mov	r0, #65536
 20707 01f0 4FF00101 		mov	r1, #1
 20708 01f4 FFF7FEFF 		bl	RCC_APB2PeriphResetCmd
 200:../Libraries/STM32F10x_StdPeriph_Driver/src/stm32f10x_tim.c ****     RCC_APB2PeriphResetCmd(RCC_APB2Periph_TIM15, DISABLE);
 20709              		.loc 1 200 0
 20710 01f8 4FF48030 		mov	r0, #65536
 20711 01fc 4FF00001 		mov	r1, #0
 20712 0200 FFF7FEFF 		bl	RCC_APB2PeriphResetCmd
 20713 0204 20E0     		b	.L1
 20714              	.L17:
 201:../Libraries/STM32F10x_StdPeriph_Driver/src/stm32f10x_tim.c ****   } 
 202:../Libraries/STM32F10x_StdPeriph_Driver/src/stm32f10x_tim.c ****   else if (TIMx == TIM16)
 20715              		.loc 1 202 0
 20716 0206 7A68     		ldr	r2, [r7, #4]
 20717 0208 1F4B     		ldr	r3, .L19+56
 20718 020a 9A42     		cmp	r2, r3
 20719 020c 0CD1     		bne	.L18
 203:../Libraries/STM32F10x_StdPeriph_Driver/src/stm32f10x_tim.c ****   {
 204:../Libraries/STM32F10x_StdPeriph_Driver/src/stm32f10x_tim.c ****     RCC_APB2PeriphResetCmd(RCC_APB2Periph_TIM16, ENABLE);
 20720              		.loc 1 204 0
 20721 020e 4FF40030 		mov	r0, #131072
 20722 0212 4FF00101 		mov	r1, #1
 20723 0216 FFF7FEFF 		bl	RCC_APB2PeriphResetCmd
 205:../Libraries/STM32F10x_StdPeriph_Driver/src/stm32f10x_tim.c ****     RCC_APB2PeriphResetCmd(RCC_APB2Periph_TIM16, DISABLE);
 20724              		.loc 1 205 0
 20725 021a 4FF40030 		mov	r0, #131072
 20726 021e 4FF00001 		mov	r1, #0
 20727 0222 FFF7FEFF 		bl	RCC_APB2PeriphResetCmd
 20728 0226 0FE0     		b	.L1
 20729              	.L18:
 206:../Libraries/STM32F10x_StdPeriph_Driver/src/stm32f10x_tim.c ****   } 
 207:../Libraries/STM32F10x_StdPeriph_Driver/src/stm32f10x_tim.c ****   else
 208:../Libraries/STM32F10x_StdPeriph_Driver/src/stm32f10x_tim.c ****   {
 209:../Libraries/STM32F10x_StdPeriph_Driver/src/stm32f10x_tim.c ****     if (TIMx == TIM17)
 20730              		.loc 1 209 0
 20731 0228 7A68     		ldr	r2, [r7, #4]
 20732 022a 184B     		ldr	r3, .L19+60
 20733 022c 9A42     		cmp	r2, r3
 20734 022e 0BD1     		bne	.L1
 210:../Libraries/STM32F10x_StdPeriph_Driver/src/stm32f10x_tim.c ****     {
 211:../Libraries/STM32F10x_StdPeriph_Driver/src/stm32f10x_tim.c ****       RCC_APB2PeriphResetCmd(RCC_APB2Periph_TIM17, ENABLE);
 20735              		.loc 1 211 0
 20736 0230 4FF48020 		mov	r0, #262144
 20737 0234 4FF00101 		mov	r1, #1
 20738 0238 FFF7FEFF 		bl	RCC_APB2PeriphResetCmd
 212:../Libraries/STM32F10x_StdPeriph_Driver/src/stm32f10x_tim.c ****       RCC_APB2PeriphResetCmd(RCC_APB2Periph_TIM17, DISABLE);
 20739              		.loc 1 212 0
 20740 023c 4FF48020 		mov	r0, #262144
 20741 0240 4FF00001 		mov	r1, #0
 20742 0244 FFF7FEFF 		bl	RCC_APB2PeriphResetCmd
 20743              	.L1:
 213:../Libraries/STM32F10x_StdPeriph_Driver/src/stm32f10x_tim.c ****     }  
 214:../Libraries/STM32F10x_StdPeriph_Driver/src/stm32f10x_tim.c ****   }
 215:../Libraries/STM32F10x_StdPeriph_Driver/src/stm32f10x_tim.c **** }
 20744              		.loc 1 215 0
 20745 0248 07F10807 		add	r7, r7, #8
 20746 024c BD46     		mov	sp, r7
 20747 024e 80BD     		pop	{r7, pc}
 20748              	.L20:
 20749              		.align	2
 20750              	.L19:
 20751 0250 002C0140 		.word	1073818624
 20752 0254 00040040 		.word	1073742848
 20753 0258 00080040 		.word	1073743872
 20754 025c 000C0040 		.word	1073744896
 20755 0260 00100040 		.word	1073745920
 20756 0264 00140040 		.word	1073746944
 20757 0268 00340140 		.word	1073820672
 20758 026c 004C0140 		.word	1073826816
 20759 0270 00500140 		.word	1073827840
 20760 0274 00540140 		.word	1073828864
 20761 0278 00180040 		.word	1073747968
 20762 027c 001C0040 		.word	1073748992
 20763 0280 00200040 		.word	1073750016
 20764 0284 00400140 		.word	1073823744
 20765 0288 00440140 		.word	1073824768
 20766 028c 00480140 		.word	1073825792
 20767              		.cfi_endproc
 20768              	.LFE29:
 20770              		.section	.text.TIM_TimeBaseInit,"ax",%progbits
 20771              		.align	2
 20772              		.global	TIM_TimeBaseInit
 20773              		.thumb
 20774              		.thumb_func
 20776              	TIM_TimeBaseInit:
 20777              	.LFB30:
 216:../Libraries/STM32F10x_StdPeriph_Driver/src/stm32f10x_tim.c **** 
 217:../Libraries/STM32F10x_StdPeriph_Driver/src/stm32f10x_tim.c **** /**
 218:../Libraries/STM32F10x_StdPeriph_Driver/src/stm32f10x_tim.c ****   * @brief  Initializes the TIMx Time Base Unit peripheral according to 
 219:../Libraries/STM32F10x_StdPeriph_Driver/src/stm32f10x_tim.c ****   *         the specified parameters in the TIM_TimeBaseInitStruct.
 220:../Libraries/STM32F10x_StdPeriph_Driver/src/stm32f10x_tim.c ****   * @param  TIMx: where x can be 1 to 17 to select the TIM peripheral.
 221:../Libraries/STM32F10x_StdPeriph_Driver/src/stm32f10x_tim.c ****   * @param  TIM_TimeBaseInitStruct: pointer to a TIM_TimeBaseInitTypeDef
 222:../Libraries/STM32F10x_StdPeriph_Driver/src/stm32f10x_tim.c ****   *         structure that contains the configuration information for the 
 223:../Libraries/STM32F10x_StdPeriph_Driver/src/stm32f10x_tim.c ****   *         specified TIM peripheral.
 224:../Libraries/STM32F10x_StdPeriph_Driver/src/stm32f10x_tim.c ****   * @retval None
 225:../Libraries/STM32F10x_StdPeriph_Driver/src/stm32f10x_tim.c ****   */
 226:../Libraries/STM32F10x_StdPeriph_Driver/src/stm32f10x_tim.c **** void TIM_TimeBaseInit(TIM_TypeDef* TIMx, TIM_TimeBaseInitTypeDef* TIM_TimeBaseInitStruct)
 227:../Libraries/STM32F10x_StdPeriph_Driver/src/stm32f10x_tim.c **** {
 20778              		.loc 1 227 0
 20779              		.cfi_startproc
 20780              		@ args = 0, pretend = 0, frame = 16
 20781              		@ frame_needed = 1, uses_anonymous_args = 0
 20782              		@ link register save eliminated.
 20783 0000 80B4     		push	{r7}
 20784              	.LCFI3:
 20785              		.cfi_def_cfa_offset 4
 20786 0002 85B0     		sub	sp, sp, #20
 20787              	.LCFI4:
 20788              		.cfi_def_cfa_offset 24
 20789 0004 00AF     		add	r7, sp, #0
 20790              		.cfi_offset 7, -4
 20791              	.LCFI5:
 20792              		.cfi_def_cfa_register 7
 20793 0006 7860     		str	r0, [r7, #4]
 20794 0008 3960     		str	r1, [r7, #0]
 228:../Libraries/STM32F10x_StdPeriph_Driver/src/stm32f10x_tim.c ****   uint16_t tmpcr1 = 0;
 20795              		.loc 1 228 0
 20796 000a 4FF00003 		mov	r3, #0
 20797 000e FB81     		strh	r3, [r7, #14]	@ movhi
 229:../Libraries/STM32F10x_StdPeriph_Driver/src/stm32f10x_tim.c **** 
 230:../Libraries/STM32F10x_StdPeriph_Driver/src/stm32f10x_tim.c ****   /* Check the parameters */
 231:../Libraries/STM32F10x_StdPeriph_Driver/src/stm32f10x_tim.c ****   assert_param(IS_TIM_ALL_PERIPH(TIMx)); 
 232:../Libraries/STM32F10x_StdPeriph_Driver/src/stm32f10x_tim.c ****   assert_param(IS_TIM_COUNTER_MODE(TIM_TimeBaseInitStruct->TIM_CounterMode));
 233:../Libraries/STM32F10x_StdPeriph_Driver/src/stm32f10x_tim.c ****   assert_param(IS_TIM_CKD_DIV(TIM_TimeBaseInitStruct->TIM_ClockDivision));
 234:../Libraries/STM32F10x_StdPeriph_Driver/src/stm32f10x_tim.c **** 
 235:../Libraries/STM32F10x_StdPeriph_Driver/src/stm32f10x_tim.c ****   tmpcr1 = TIMx->CR1;  
 20798              		.loc 1 235 0
 20799 0010 7B68     		ldr	r3, [r7, #4]
 20800 0012 1B88     		ldrh	r3, [r3, #0]	@ movhi
 20801 0014 FB81     		strh	r3, [r7, #14]	@ movhi
 236:../Libraries/STM32F10x_StdPeriph_Driver/src/stm32f10x_tim.c **** 
 237:../Libraries/STM32F10x_StdPeriph_Driver/src/stm32f10x_tim.c ****   if((TIMx == TIM1) || (TIMx == TIM8)|| (TIMx == TIM2) || (TIMx == TIM3)||
 20802              		.loc 1 237 0
 20803 0016 7A68     		ldr	r2, [r7, #4]
 20804 0018 2F4B     		ldr	r3, .L27
 20805 001a 9A42     		cmp	r2, r3
 20806 001c 13D0     		beq	.L22
 20807              		.loc 1 237 0 is_stmt 0 discriminator 1
 20808 001e 7A68     		ldr	r2, [r7, #4]
 20809 0020 2E4B     		ldr	r3, .L27+4
 20810 0022 9A42     		cmp	r2, r3
 20811 0024 0FD0     		beq	.L22
 20812 0026 7B68     		ldr	r3, [r7, #4]
 20813 0028 B3F1804F 		cmp	r3, #1073741824
 20814 002c 0BD0     		beq	.L22
 20815 002e 7A68     		ldr	r2, [r7, #4]
 20816 0030 2B4B     		ldr	r3, .L27+8
 20817 0032 9A42     		cmp	r2, r3
 20818 0034 07D0     		beq	.L22
 20819 0036 7A68     		ldr	r2, [r7, #4]
 20820 0038 2A4B     		ldr	r3, .L27+12
 20821 003a 9A42     		cmp	r2, r3
 20822 003c 03D0     		beq	.L22
 238:../Libraries/STM32F10x_StdPeriph_Driver/src/stm32f10x_tim.c ****      (TIMx == TIM4) || (TIMx == TIM5)) 
 20823              		.loc 1 238 0 is_stmt 1
 20824 003e 7A68     		ldr	r2, [r7, #4]
 20825 0040 294B     		ldr	r3, .L27+16
 20826 0042 9A42     		cmp	r2, r3
 20827 0044 09D1     		bne	.L23
 20828              	.L22:
 239:../Libraries/STM32F10x_StdPeriph_Driver/src/stm32f10x_tim.c ****   {
 240:../Libraries/STM32F10x_StdPeriph_Driver/src/stm32f10x_tim.c ****     /* Select the Counter Mode */
 241:../Libraries/STM32F10x_StdPeriph_Driver/src/stm32f10x_tim.c ****     tmpcr1 &= (uint16_t)(~((uint16_t)(TIM_CR1_DIR | TIM_CR1_CMS)));
 20829              		.loc 1 241 0
 20830 0046 FB89     		ldrh	r3, [r7, #14]	@ movhi
 20831 0048 23F07003 		bic	r3, r3, #112
 20832 004c FB81     		strh	r3, [r7, #14]	@ movhi
 242:../Libraries/STM32F10x_StdPeriph_Driver/src/stm32f10x_tim.c ****     tmpcr1 |= (uint32_t)TIM_TimeBaseInitStruct->TIM_CounterMode;
 20833              		.loc 1 242 0
 20834 004e 3B68     		ldr	r3, [r7, #0]
 20835 0050 5A88     		ldrh	r2, [r3, #2]
 20836 0052 FB89     		ldrh	r3, [r7, #14]	@ movhi
 20837 0054 42EA0303 		orr	r3, r2, r3
 20838 0058 FB81     		strh	r3, [r7, #14]	@ movhi
 20839              	.L23:
 243:../Libraries/STM32F10x_StdPeriph_Driver/src/stm32f10x_tim.c ****   }
 244:../Libraries/STM32F10x_StdPeriph_Driver/src/stm32f10x_tim.c ****  
 245:../Libraries/STM32F10x_StdPeriph_Driver/src/stm32f10x_tim.c ****   if((TIMx != TIM6) && (TIMx != TIM7))
 20840              		.loc 1 245 0
 20841 005a 7A68     		ldr	r2, [r7, #4]
 20842 005c 234B     		ldr	r3, .L27+20
 20843 005e 9A42     		cmp	r2, r3
 20844 0060 0DD0     		beq	.L24
 20845              		.loc 1 245 0 is_stmt 0 discriminator 1
 20846 0062 7A68     		ldr	r2, [r7, #4]
 20847 0064 224B     		ldr	r3, .L27+24
 20848 0066 9A42     		cmp	r2, r3
 20849 0068 09D0     		beq	.L24
 246:../Libraries/STM32F10x_StdPeriph_Driver/src/stm32f10x_tim.c ****   {
 247:../Libraries/STM32F10x_StdPeriph_Driver/src/stm32f10x_tim.c ****     /* Set the clock division */
 248:../Libraries/STM32F10x_StdPeriph_Driver/src/stm32f10x_tim.c ****     tmpcr1 &= (uint16_t)(~((uint16_t)TIM_CR1_CKD));
 20850              		.loc 1 248 0 is_stmt 1
 20851 006a FB89     		ldrh	r3, [r7, #14]	@ movhi
 20852 006c 23F44073 		bic	r3, r3, #768
 20853 0070 FB81     		strh	r3, [r7, #14]	@ movhi
 249:../Libraries/STM32F10x_StdPeriph_Driver/src/stm32f10x_tim.c ****     tmpcr1 |= (uint32_t)TIM_TimeBaseInitStruct->TIM_ClockDivision;
 20854              		.loc 1 249 0
 20855 0072 3B68     		ldr	r3, [r7, #0]
 20856 0074 DA88     		ldrh	r2, [r3, #6]
 20857 0076 FB89     		ldrh	r3, [r7, #14]	@ movhi
 20858 0078 42EA0303 		orr	r3, r2, r3
 20859 007c FB81     		strh	r3, [r7, #14]	@ movhi
 20860              	.L24:
 250:../Libraries/STM32F10x_StdPeriph_Driver/src/stm32f10x_tim.c ****   }
 251:../Libraries/STM32F10x_StdPeriph_Driver/src/stm32f10x_tim.c **** 
 252:../Libraries/STM32F10x_StdPeriph_Driver/src/stm32f10x_tim.c ****   TIMx->CR1 = tmpcr1;
 20861              		.loc 1 252 0
 20862 007e 7B68     		ldr	r3, [r7, #4]
 20863 0080 FA89     		ldrh	r2, [r7, #14]	@ movhi
 20864 0082 1A80     		strh	r2, [r3, #0]	@ movhi
 253:../Libraries/STM32F10x_StdPeriph_Driver/src/stm32f10x_tim.c **** 
 254:../Libraries/STM32F10x_StdPeriph_Driver/src/stm32f10x_tim.c ****   /* Set the Autoreload value */
 255:../Libraries/STM32F10x_StdPeriph_Driver/src/stm32f10x_tim.c ****   TIMx->ARR = TIM_TimeBaseInitStruct->TIM_Period ;
 20865              		.loc 1 255 0
 20866 0084 3B68     		ldr	r3, [r7, #0]
 20867 0086 9A88     		ldrh	r2, [r3, #4]
 20868 0088 7B68     		ldr	r3, [r7, #4]
 20869 008a 9A85     		strh	r2, [r3, #44]	@ movhi
 256:../Libraries/STM32F10x_StdPeriph_Driver/src/stm32f10x_tim.c ****  
 257:../Libraries/STM32F10x_StdPeriph_Driver/src/stm32f10x_tim.c ****   /* Set the Prescaler value */
 258:../Libraries/STM32F10x_StdPeriph_Driver/src/stm32f10x_tim.c ****   TIMx->PSC = TIM_TimeBaseInitStruct->TIM_Prescaler;
 20870              		.loc 1 258 0
 20871 008c 3B68     		ldr	r3, [r7, #0]
 20872 008e 1A88     		ldrh	r2, [r3, #0]
 20873 0090 7B68     		ldr	r3, [r7, #4]
 20874 0092 1A85     		strh	r2, [r3, #40]	@ movhi
 259:../Libraries/STM32F10x_StdPeriph_Driver/src/stm32f10x_tim.c ****     
 260:../Libraries/STM32F10x_StdPeriph_Driver/src/stm32f10x_tim.c ****   if ((TIMx == TIM1) || (TIMx == TIM8)|| (TIMx == TIM15)|| (TIMx == TIM16) || (TIMx == TIM17))  
 20875              		.loc 1 260 0
 20876 0094 7A68     		ldr	r2, [r7, #4]
 20877 0096 104B     		ldr	r3, .L27
 20878 0098 9A42     		cmp	r2, r3
 20879 009a 0FD0     		beq	.L25
 20880              		.loc 1 260 0 is_stmt 0 discriminator 1
 20881 009c 7A68     		ldr	r2, [r7, #4]
 20882 009e 0F4B     		ldr	r3, .L27+4
 20883 00a0 9A42     		cmp	r2, r3
 20884 00a2 0BD0     		beq	.L25
 20885 00a4 7A68     		ldr	r2, [r7, #4]
 20886 00a6 134B     		ldr	r3, .L27+28
 20887 00a8 9A42     		cmp	r2, r3
 20888 00aa 07D0     		beq	.L25
 20889 00ac 7A68     		ldr	r2, [r7, #4]
 20890 00ae 124B     		ldr	r3, .L27+32
 20891 00b0 9A42     		cmp	r2, r3
 20892 00b2 03D0     		beq	.L25
 20893 00b4 7A68     		ldr	r2, [r7, #4]
 20894 00b6 114B     		ldr	r3, .L27+36
 20895 00b8 9A42     		cmp	r2, r3
 20896 00ba 04D1     		bne	.L26
 20897              	.L25:
 261:../Libraries/STM32F10x_StdPeriph_Driver/src/stm32f10x_tim.c ****   {
 262:../Libraries/STM32F10x_StdPeriph_Driver/src/stm32f10x_tim.c ****     /* Set the Repetition Counter value */
 263:../Libraries/STM32F10x_StdPeriph_Driver/src/stm32f10x_tim.c ****     TIMx->RCR = TIM_TimeBaseInitStruct->TIM_RepetitionCounter;
 20898              		.loc 1 263 0 is_stmt 1
 20899 00bc 3B68     		ldr	r3, [r7, #0]
 20900 00be 1B7A     		ldrb	r3, [r3, #8]	@ zero_extendqisi2
 20901 00c0 1A46     		mov	r2, r3
 20902 00c2 7B68     		ldr	r3, [r7, #4]
 20903 00c4 1A86     		strh	r2, [r3, #48]	@ movhi
 20904              	.L26:
 264:../Libraries/STM32F10x_StdPeriph_Driver/src/stm32f10x_tim.c ****   }
 265:../Libraries/STM32F10x_StdPeriph_Driver/src/stm32f10x_tim.c **** 
 266:../Libraries/STM32F10x_StdPeriph_Driver/src/stm32f10x_tim.c ****   /* Generate an update event to reload the Prescaler and the Repetition counter
 267:../Libraries/STM32F10x_StdPeriph_Driver/src/stm32f10x_tim.c ****      values immediately */
 268:../Libraries/STM32F10x_StdPeriph_Driver/src/stm32f10x_tim.c ****   TIMx->EGR = TIM_PSCReloadMode_Immediate;           
 20905              		.loc 1 268 0
 20906 00c6 7B68     		ldr	r3, [r7, #4]
 20907 00c8 4FF00102 		mov	r2, #1
 20908 00cc 9A82     		strh	r2, [r3, #20]	@ movhi
 269:../Libraries/STM32F10x_StdPeriph_Driver/src/stm32f10x_tim.c **** }
 20909              		.loc 1 269 0
 20910 00ce 07F11407 		add	r7, r7, #20
 20911 00d2 BD46     		mov	sp, r7
 20912 00d4 80BC     		pop	{r7}
 20913 00d6 7047     		bx	lr
 20914              	.L28:
 20915              		.align	2
 20916              	.L27:
 20917 00d8 002C0140 		.word	1073818624
 20918 00dc 00340140 		.word	1073820672
 20919 00e0 00040040 		.word	1073742848
 20920 00e4 00080040 		.word	1073743872
 20921 00e8 000C0040 		.word	1073744896
 20922 00ec 00100040 		.word	1073745920
 20923 00f0 00140040 		.word	1073746944
 20924 00f4 00400140 		.word	1073823744
 20925 00f8 00440140 		.word	1073824768
 20926 00fc 00480140 		.word	1073825792
 20927              		.cfi_endproc
 20928              	.LFE30:
 20930              		.section	.text.TIM_OC1Init,"ax",%progbits
 20931              		.align	2
 20932              		.global	TIM_OC1Init
 20933              		.thumb
 20934              		.thumb_func
 20936              	TIM_OC1Init:
 20937              	.LFB31:
 270:../Libraries/STM32F10x_StdPeriph_Driver/src/stm32f10x_tim.c **** 
 271:../Libraries/STM32F10x_StdPeriph_Driver/src/stm32f10x_tim.c **** /**
 272:../Libraries/STM32F10x_StdPeriph_Driver/src/stm32f10x_tim.c ****   * @brief  Initializes the TIMx Channel1 according to the specified
 273:../Libraries/STM32F10x_StdPeriph_Driver/src/stm32f10x_tim.c ****   *         parameters in the TIM_OCInitStruct.
 274:../Libraries/STM32F10x_StdPeriph_Driver/src/stm32f10x_tim.c ****   * @param  TIMx: where x can be  1 to 17 except 6 and 7 to select the TIM peripheral.
 275:../Libraries/STM32F10x_StdPeriph_Driver/src/stm32f10x_tim.c ****   * @param  TIM_OCInitStruct: pointer to a TIM_OCInitTypeDef structure
 276:../Libraries/STM32F10x_StdPeriph_Driver/src/stm32f10x_tim.c ****   *         that contains the configuration information for the specified TIM peripheral.
 277:../Libraries/STM32F10x_StdPeriph_Driver/src/stm32f10x_tim.c ****   * @retval None
 278:../Libraries/STM32F10x_StdPeriph_Driver/src/stm32f10x_tim.c ****   */
 279:../Libraries/STM32F10x_StdPeriph_Driver/src/stm32f10x_tim.c **** void TIM_OC1Init(TIM_TypeDef* TIMx, TIM_OCInitTypeDef* TIM_OCInitStruct)
 280:../Libraries/STM32F10x_StdPeriph_Driver/src/stm32f10x_tim.c **** {
 20938              		.loc 1 280 0
 20939              		.cfi_startproc
 20940              		@ args = 0, pretend = 0, frame = 16
 20941              		@ frame_needed = 1, uses_anonymous_args = 0
 20942              		@ link register save eliminated.
 20943 0000 80B4     		push	{r7}
 20944              	.LCFI6:
 20945              		.cfi_def_cfa_offset 4
 20946 0002 85B0     		sub	sp, sp, #20
 20947              	.LCFI7:
 20948              		.cfi_def_cfa_offset 24
 20949 0004 00AF     		add	r7, sp, #0
 20950              		.cfi_offset 7, -4
 20951              	.LCFI8:
 20952              		.cfi_def_cfa_register 7
 20953 0006 7860     		str	r0, [r7, #4]
 20954 0008 3960     		str	r1, [r7, #0]
 281:../Libraries/STM32F10x_StdPeriph_Driver/src/stm32f10x_tim.c ****   uint16_t tmpccmrx = 0, tmpccer = 0, tmpcr2 = 0;
 20955              		.loc 1 281 0
 20956 000a 4FF00003 		mov	r3, #0
 20957 000e 7B81     		strh	r3, [r7, #10]	@ movhi
 20958 0010 4FF00003 		mov	r3, #0
 20959 0014 FB81     		strh	r3, [r7, #14]	@ movhi
 20960 0016 4FF00003 		mov	r3, #0
 20961 001a BB81     		strh	r3, [r7, #12]	@ movhi
 282:../Libraries/STM32F10x_StdPeriph_Driver/src/stm32f10x_tim.c ****    
 283:../Libraries/STM32F10x_StdPeriph_Driver/src/stm32f10x_tim.c ****   /* Check the parameters */
 284:../Libraries/STM32F10x_StdPeriph_Driver/src/stm32f10x_tim.c ****   assert_param(IS_TIM_LIST8_PERIPH(TIMx));
 285:../Libraries/STM32F10x_StdPeriph_Driver/src/stm32f10x_tim.c ****   assert_param(IS_TIM_OC_MODE(TIM_OCInitStruct->TIM_OCMode));
 286:../Libraries/STM32F10x_StdPeriph_Driver/src/stm32f10x_tim.c ****   assert_param(IS_TIM_OUTPUT_STATE(TIM_OCInitStruct->TIM_OutputState));
 287:../Libraries/STM32F10x_StdPeriph_Driver/src/stm32f10x_tim.c ****   assert_param(IS_TIM_OC_POLARITY(TIM_OCInitStruct->TIM_OCPolarity));   
 288:../Libraries/STM32F10x_StdPeriph_Driver/src/stm32f10x_tim.c ****  /* Disable the Channel 1: Reset the CC1E Bit */
 289:../Libraries/STM32F10x_StdPeriph_Driver/src/stm32f10x_tim.c ****   TIMx->CCER &= (uint16_t)(~(uint16_t)TIM_CCER_CC1E);
 20962              		.loc 1 289 0
 20963 001c 7B68     		ldr	r3, [r7, #4]
 20964 001e 1B8C     		ldrh	r3, [r3, #32]	@ movhi
 20965 0020 9BB2     		uxth	r3, r3
 20966 0022 23F00103 		bic	r3, r3, #1
 20967 0026 9AB2     		uxth	r2, r3
 20968 0028 7B68     		ldr	r3, [r7, #4]
 20969 002a 1A84     		strh	r2, [r3, #32]	@ movhi
 290:../Libraries/STM32F10x_StdPeriph_Driver/src/stm32f10x_tim.c ****   /* Get the TIMx CCER register value */
 291:../Libraries/STM32F10x_StdPeriph_Driver/src/stm32f10x_tim.c ****   tmpccer = TIMx->CCER;
 20970              		.loc 1 291 0
 20971 002c 7B68     		ldr	r3, [r7, #4]
 20972 002e 1B8C     		ldrh	r3, [r3, #32]	@ movhi
 20973 0030 FB81     		strh	r3, [r7, #14]	@ movhi
 292:../Libraries/STM32F10x_StdPeriph_Driver/src/stm32f10x_tim.c ****   /* Get the TIMx CR2 register value */
 293:../Libraries/STM32F10x_StdPeriph_Driver/src/stm32f10x_tim.c ****   tmpcr2 =  TIMx->CR2;
 20974              		.loc 1 293 0
 20975 0032 7B68     		ldr	r3, [r7, #4]
 20976 0034 9B88     		ldrh	r3, [r3, #4]	@ movhi
 20977 0036 BB81     		strh	r3, [r7, #12]	@ movhi
 294:../Libraries/STM32F10x_StdPeriph_Driver/src/stm32f10x_tim.c ****   
 295:../Libraries/STM32F10x_StdPeriph_Driver/src/stm32f10x_tim.c ****   /* Get the TIMx CCMR1 register value */
 296:../Libraries/STM32F10x_StdPeriph_Driver/src/stm32f10x_tim.c ****   tmpccmrx = TIMx->CCMR1;
 20978              		.loc 1 296 0
 20979 0038 7B68     		ldr	r3, [r7, #4]
 20980 003a 1B8B     		ldrh	r3, [r3, #24]	@ movhi
 20981 003c 7B81     		strh	r3, [r7, #10]	@ movhi
 297:../Libraries/STM32F10x_StdPeriph_Driver/src/stm32f10x_tim.c ****     
 298:../Libraries/STM32F10x_StdPeriph_Driver/src/stm32f10x_tim.c ****   /* Reset the Output Compare Mode Bits */
 299:../Libraries/STM32F10x_StdPeriph_Driver/src/stm32f10x_tim.c ****   tmpccmrx &= (uint16_t)(~((uint16_t)TIM_CCMR1_OC1M));
 20982              		.loc 1 299 0
 20983 003e 7B89     		ldrh	r3, [r7, #10]	@ movhi
 20984 0040 23F07003 		bic	r3, r3, #112
 20985 0044 7B81     		strh	r3, [r7, #10]	@ movhi
 300:../Libraries/STM32F10x_StdPeriph_Driver/src/stm32f10x_tim.c ****   tmpccmrx &= (uint16_t)(~((uint16_t)TIM_CCMR1_CC1S));
 20986              		.loc 1 300 0
 20987 0046 7B89     		ldrh	r3, [r7, #10]	@ movhi
 20988 0048 23F00303 		bic	r3, r3, #3
 20989 004c 7B81     		strh	r3, [r7, #10]	@ movhi
 301:../Libraries/STM32F10x_StdPeriph_Driver/src/stm32f10x_tim.c **** 
 302:../Libraries/STM32F10x_StdPeriph_Driver/src/stm32f10x_tim.c ****   /* Select the Output Compare Mode */
 303:../Libraries/STM32F10x_StdPeriph_Driver/src/stm32f10x_tim.c ****   tmpccmrx |= TIM_OCInitStruct->TIM_OCMode;
 20990              		.loc 1 303 0
 20991 004e 3B68     		ldr	r3, [r7, #0]
 20992 0050 1A88     		ldrh	r2, [r3, #0]
 20993 0052 7B89     		ldrh	r3, [r7, #10]	@ movhi
 20994 0054 42EA0303 		orr	r3, r2, r3
 20995 0058 7B81     		strh	r3, [r7, #10]	@ movhi
 304:../Libraries/STM32F10x_StdPeriph_Driver/src/stm32f10x_tim.c ****   
 305:../Libraries/STM32F10x_StdPeriph_Driver/src/stm32f10x_tim.c ****   /* Reset the Output Polarity level */
 306:../Libraries/STM32F10x_StdPeriph_Driver/src/stm32f10x_tim.c ****   tmpccer &= (uint16_t)(~((uint16_t)TIM_CCER_CC1P));
 20996              		.loc 1 306 0
 20997 005a FB89     		ldrh	r3, [r7, #14]	@ movhi
 20998 005c 23F00203 		bic	r3, r3, #2
 20999 0060 FB81     		strh	r3, [r7, #14]	@ movhi
 307:../Libraries/STM32F10x_StdPeriph_Driver/src/stm32f10x_tim.c ****   /* Set the Output Compare Polarity */
 308:../Libraries/STM32F10x_StdPeriph_Driver/src/stm32f10x_tim.c ****   tmpccer |= TIM_OCInitStruct->TIM_OCPolarity;
 21000              		.loc 1 308 0
 21001 0062 3B68     		ldr	r3, [r7, #0]
 21002 0064 1A89     		ldrh	r2, [r3, #8]
 21003 0066 FB89     		ldrh	r3, [r7, #14]	@ movhi
 21004 0068 42EA0303 		orr	r3, r2, r3
 21005 006c FB81     		strh	r3, [r7, #14]	@ movhi
 309:../Libraries/STM32F10x_StdPeriph_Driver/src/stm32f10x_tim.c ****   
 310:../Libraries/STM32F10x_StdPeriph_Driver/src/stm32f10x_tim.c ****   /* Set the Output State */
 311:../Libraries/STM32F10x_StdPeriph_Driver/src/stm32f10x_tim.c ****   tmpccer |= TIM_OCInitStruct->TIM_OutputState;
 21006              		.loc 1 311 0
 21007 006e 3B68     		ldr	r3, [r7, #0]
 21008 0070 5A88     		ldrh	r2, [r3, #2]
 21009 0072 FB89     		ldrh	r3, [r7, #14]	@ movhi
 21010 0074 42EA0303 		orr	r3, r2, r3
 21011 0078 FB81     		strh	r3, [r7, #14]	@ movhi
 312:../Libraries/STM32F10x_StdPeriph_Driver/src/stm32f10x_tim.c ****     
 313:../Libraries/STM32F10x_StdPeriph_Driver/src/stm32f10x_tim.c ****   if((TIMx == TIM1) || (TIMx == TIM8)|| (TIMx == TIM15)||
 21012              		.loc 1 313 0
 21013 007a 7A68     		ldr	r2, [r7, #4]
 21014 007c 264B     		ldr	r3, .L32
 21015 007e 9A42     		cmp	r2, r3
 21016 0080 0FD0     		beq	.L30
 21017              		.loc 1 313 0 is_stmt 0 discriminator 1
 21018 0082 7A68     		ldr	r2, [r7, #4]
 21019 0084 254B     		ldr	r3, .L32+4
 21020 0086 9A42     		cmp	r2, r3
 21021 0088 0BD0     		beq	.L30
 21022 008a 7A68     		ldr	r2, [r7, #4]
 21023 008c 244B     		ldr	r3, .L32+8
 21024 008e 9A42     		cmp	r2, r3
 21025 0090 07D0     		beq	.L30
 21026 0092 7A68     		ldr	r2, [r7, #4]
 21027 0094 234B     		ldr	r3, .L32+12
 21028 0096 9A42     		cmp	r2, r3
 21029 0098 03D0     		beq	.L30
 314:../Libraries/STM32F10x_StdPeriph_Driver/src/stm32f10x_tim.c ****      (TIMx == TIM16)|| (TIMx == TIM17))
 21030              		.loc 1 314 0 is_stmt 1
 21031 009a 7A68     		ldr	r2, [r7, #4]
 21032 009c 224B     		ldr	r3, .L32+16
 21033 009e 9A42     		cmp	r2, r3
 21034 00a0 27D1     		bne	.L31
 21035              	.L30:
 315:../Libraries/STM32F10x_StdPeriph_Driver/src/stm32f10x_tim.c ****   {
 316:../Libraries/STM32F10x_StdPeriph_Driver/src/stm32f10x_tim.c ****     assert_param(IS_TIM_OUTPUTN_STATE(TIM_OCInitStruct->TIM_OutputNState));
 317:../Libraries/STM32F10x_StdPeriph_Driver/src/stm32f10x_tim.c ****     assert_param(IS_TIM_OCN_POLARITY(TIM_OCInitStruct->TIM_OCNPolarity));
 318:../Libraries/STM32F10x_StdPeriph_Driver/src/stm32f10x_tim.c ****     assert_param(IS_TIM_OCNIDLE_STATE(TIM_OCInitStruct->TIM_OCNIdleState));
 319:../Libraries/STM32F10x_StdPeriph_Driver/src/stm32f10x_tim.c ****     assert_param(IS_TIM_OCIDLE_STATE(TIM_OCInitStruct->TIM_OCIdleState));
 320:../Libraries/STM32F10x_StdPeriph_Driver/src/stm32f10x_tim.c ****     
 321:../Libraries/STM32F10x_StdPeriph_Driver/src/stm32f10x_tim.c ****     /* Reset the Output N Polarity level */
 322:../Libraries/STM32F10x_StdPeriph_Driver/src/stm32f10x_tim.c ****     tmpccer &= (uint16_t)(~((uint16_t)TIM_CCER_CC1NP));
 21036              		.loc 1 322 0
 21037 00a2 FB89     		ldrh	r3, [r7, #14]	@ movhi
 21038 00a4 23F00803 		bic	r3, r3, #8
 21039 00a8 FB81     		strh	r3, [r7, #14]	@ movhi
 323:../Libraries/STM32F10x_StdPeriph_Driver/src/stm32f10x_tim.c ****     /* Set the Output N Polarity */
 324:../Libraries/STM32F10x_StdPeriph_Driver/src/stm32f10x_tim.c ****     tmpccer |= TIM_OCInitStruct->TIM_OCNPolarity;
 21040              		.loc 1 324 0
 21041 00aa 3B68     		ldr	r3, [r7, #0]
 21042 00ac 5A89     		ldrh	r2, [r3, #10]
 21043 00ae FB89     		ldrh	r3, [r7, #14]	@ movhi
 21044 00b0 42EA0303 		orr	r3, r2, r3
 21045 00b4 FB81     		strh	r3, [r7, #14]	@ movhi
 325:../Libraries/STM32F10x_StdPeriph_Driver/src/stm32f10x_tim.c ****     
 326:../Libraries/STM32F10x_StdPeriph_Driver/src/stm32f10x_tim.c ****     /* Reset the Output N State */
 327:../Libraries/STM32F10x_StdPeriph_Driver/src/stm32f10x_tim.c ****     tmpccer &= (uint16_t)(~((uint16_t)TIM_CCER_CC1NE));    
 21046              		.loc 1 327 0
 21047 00b6 FB89     		ldrh	r3, [r7, #14]	@ movhi
 21048 00b8 23F00403 		bic	r3, r3, #4
 21049 00bc FB81     		strh	r3, [r7, #14]	@ movhi
 328:../Libraries/STM32F10x_StdPeriph_Driver/src/stm32f10x_tim.c ****     /* Set the Output N State */
 329:../Libraries/STM32F10x_StdPeriph_Driver/src/stm32f10x_tim.c ****     tmpccer |= TIM_OCInitStruct->TIM_OutputNState;
 21050              		.loc 1 329 0
 21051 00be 3B68     		ldr	r3, [r7, #0]
 21052 00c0 9A88     		ldrh	r2, [r3, #4]
 21053 00c2 FB89     		ldrh	r3, [r7, #14]	@ movhi
 21054 00c4 42EA0303 		orr	r3, r2, r3
 21055 00c8 FB81     		strh	r3, [r7, #14]	@ movhi
 330:../Libraries/STM32F10x_StdPeriph_Driver/src/stm32f10x_tim.c ****     
 331:../Libraries/STM32F10x_StdPeriph_Driver/src/stm32f10x_tim.c ****     /* Reset the Output Compare and Output Compare N IDLE State */
 332:../Libraries/STM32F10x_StdPeriph_Driver/src/stm32f10x_tim.c ****     tmpcr2 &= (uint16_t)(~((uint16_t)TIM_CR2_OIS1));
 21056              		.loc 1 332 0
 21057 00ca BB89     		ldrh	r3, [r7, #12]	@ movhi
 21058 00cc 23F48073 		bic	r3, r3, #256
 21059 00d0 BB81     		strh	r3, [r7, #12]	@ movhi
 333:../Libraries/STM32F10x_StdPeriph_Driver/src/stm32f10x_tim.c ****     tmpcr2 &= (uint16_t)(~((uint16_t)TIM_CR2_OIS1N));
 21060              		.loc 1 333 0
 21061 00d2 BB89     		ldrh	r3, [r7, #12]	@ movhi
 21062 00d4 23F40073 		bic	r3, r3, #512
 21063 00d8 BB81     		strh	r3, [r7, #12]	@ movhi
 334:../Libraries/STM32F10x_StdPeriph_Driver/src/stm32f10x_tim.c ****     
 335:../Libraries/STM32F10x_StdPeriph_Driver/src/stm32f10x_tim.c ****     /* Set the Output Idle state */
 336:../Libraries/STM32F10x_StdPeriph_Driver/src/stm32f10x_tim.c ****     tmpcr2 |= TIM_OCInitStruct->TIM_OCIdleState;
 21064              		.loc 1 336 0
 21065 00da 3B68     		ldr	r3, [r7, #0]
 21066 00dc 9A89     		ldrh	r2, [r3, #12]
 21067 00de BB89     		ldrh	r3, [r7, #12]	@ movhi
 21068 00e0 42EA0303 		orr	r3, r2, r3
 21069 00e4 BB81     		strh	r3, [r7, #12]	@ movhi
 337:../Libraries/STM32F10x_StdPeriph_Driver/src/stm32f10x_tim.c ****     /* Set the Output N Idle state */
 338:../Libraries/STM32F10x_StdPeriph_Driver/src/stm32f10x_tim.c ****     tmpcr2 |= TIM_OCInitStruct->TIM_OCNIdleState;
 21070              		.loc 1 338 0
 21071 00e6 3B68     		ldr	r3, [r7, #0]
 21072 00e8 DA89     		ldrh	r2, [r3, #14]
 21073 00ea BB89     		ldrh	r3, [r7, #12]	@ movhi
 21074 00ec 42EA0303 		orr	r3, r2, r3
 21075 00f0 BB81     		strh	r3, [r7, #12]	@ movhi
 21076              	.L31:
 339:../Libraries/STM32F10x_StdPeriph_Driver/src/stm32f10x_tim.c ****   }
 340:../Libraries/STM32F10x_StdPeriph_Driver/src/stm32f10x_tim.c ****   /* Write to TIMx CR2 */
 341:../Libraries/STM32F10x_StdPeriph_Driver/src/stm32f10x_tim.c ****   TIMx->CR2 = tmpcr2;
 21077              		.loc 1 341 0
 21078 00f2 7B68     		ldr	r3, [r7, #4]
 21079 00f4 BA89     		ldrh	r2, [r7, #12]	@ movhi
 21080 00f6 9A80     		strh	r2, [r3, #4]	@ movhi
 342:../Libraries/STM32F10x_StdPeriph_Driver/src/stm32f10x_tim.c ****   
 343:../Libraries/STM32F10x_StdPeriph_Driver/src/stm32f10x_tim.c ****   /* Write to TIMx CCMR1 */
 344:../Libraries/STM32F10x_StdPeriph_Driver/src/stm32f10x_tim.c ****   TIMx->CCMR1 = tmpccmrx;
 21081              		.loc 1 344 0
 21082 00f8 7B68     		ldr	r3, [r7, #4]
 21083 00fa 7A89     		ldrh	r2, [r7, #10]	@ movhi
 21084 00fc 1A83     		strh	r2, [r3, #24]	@ movhi
 345:../Libraries/STM32F10x_StdPeriph_Driver/src/stm32f10x_tim.c **** 
 346:../Libraries/STM32F10x_StdPeriph_Driver/src/stm32f10x_tim.c ****   /* Set the Capture Compare Register value */
 347:../Libraries/STM32F10x_StdPeriph_Driver/src/stm32f10x_tim.c ****   TIMx->CCR1 = TIM_OCInitStruct->TIM_Pulse; 
 21085              		.loc 1 347 0
 21086 00fe 3B68     		ldr	r3, [r7, #0]
 21087 0100 DA88     		ldrh	r2, [r3, #6]
 21088 0102 7B68     		ldr	r3, [r7, #4]
 21089 0104 9A86     		strh	r2, [r3, #52]	@ movhi
 348:../Libraries/STM32F10x_StdPeriph_Driver/src/stm32f10x_tim.c ****  
 349:../Libraries/STM32F10x_StdPeriph_Driver/src/stm32f10x_tim.c ****   /* Write to TIMx CCER */
 350:../Libraries/STM32F10x_StdPeriph_Driver/src/stm32f10x_tim.c ****   TIMx->CCER = tmpccer;
 21090              		.loc 1 350 0
 21091 0106 7B68     		ldr	r3, [r7, #4]
 21092 0108 FA89     		ldrh	r2, [r7, #14]	@ movhi
 21093 010a 1A84     		strh	r2, [r3, #32]	@ movhi
 351:../Libraries/STM32F10x_StdPeriph_Driver/src/stm32f10x_tim.c **** }
 21094              		.loc 1 351 0
 21095 010c 07F11407 		add	r7, r7, #20
 21096 0110 BD46     		mov	sp, r7
 21097 0112 80BC     		pop	{r7}
 21098 0114 7047     		bx	lr
 21099              	.L33:
 21100 0116 00BF     		.align	2
 21101              	.L32:
 21102 0118 002C0140 		.word	1073818624
 21103 011c 00340140 		.word	1073820672
 21104 0120 00400140 		.word	1073823744
 21105 0124 00440140 		.word	1073824768
 21106 0128 00480140 		.word	1073825792
 21107              		.cfi_endproc
 21108              	.LFE31:
 21110              		.section	.text.TIM_OC2Init,"ax",%progbits
 21111              		.align	2
 21112              		.global	TIM_OC2Init
 21113              		.thumb
 21114              		.thumb_func
 21116              	TIM_OC2Init:
 21117              	.LFB32:
 352:../Libraries/STM32F10x_StdPeriph_Driver/src/stm32f10x_tim.c **** 
 353:../Libraries/STM32F10x_StdPeriph_Driver/src/stm32f10x_tim.c **** /**
 354:../Libraries/STM32F10x_StdPeriph_Driver/src/stm32f10x_tim.c ****   * @brief  Initializes the TIMx Channel2 according to the specified
 355:../Libraries/STM32F10x_StdPeriph_Driver/src/stm32f10x_tim.c ****   *         parameters in the TIM_OCInitStruct.
 356:../Libraries/STM32F10x_StdPeriph_Driver/src/stm32f10x_tim.c ****   * @param  TIMx: where x can be  1, 2, 3, 4, 5, 8, 9, 12 or 15 to select 
 357:../Libraries/STM32F10x_StdPeriph_Driver/src/stm32f10x_tim.c ****   *         the TIM peripheral.
 358:../Libraries/STM32F10x_StdPeriph_Driver/src/stm32f10x_tim.c ****   * @param  TIM_OCInitStruct: pointer to a TIM_OCInitTypeDef structure
 359:../Libraries/STM32F10x_StdPeriph_Driver/src/stm32f10x_tim.c ****   *         that contains the configuration information for the specified TIM peripheral.
 360:../Libraries/STM32F10x_StdPeriph_Driver/src/stm32f10x_tim.c ****   * @retval None
 361:../Libraries/STM32F10x_StdPeriph_Driver/src/stm32f10x_tim.c ****   */
 362:../Libraries/STM32F10x_StdPeriph_Driver/src/stm32f10x_tim.c **** void TIM_OC2Init(TIM_TypeDef* TIMx, TIM_OCInitTypeDef* TIM_OCInitStruct)
 363:../Libraries/STM32F10x_StdPeriph_Driver/src/stm32f10x_tim.c **** {
 21118              		.loc 1 363 0
 21119              		.cfi_startproc
 21120              		@ args = 0, pretend = 0, frame = 16
 21121              		@ frame_needed = 1, uses_anonymous_args = 0
 21122              		@ link register save eliminated.
 21123 0000 80B4     		push	{r7}
 21124              	.LCFI9:
 21125              		.cfi_def_cfa_offset 4
 21126 0002 85B0     		sub	sp, sp, #20
 21127              	.LCFI10:
 21128              		.cfi_def_cfa_offset 24
 21129 0004 00AF     		add	r7, sp, #0
 21130              		.cfi_offset 7, -4
 21131              	.LCFI11:
 21132              		.cfi_def_cfa_register 7
 21133 0006 7860     		str	r0, [r7, #4]
 21134 0008 3960     		str	r1, [r7, #0]
 364:../Libraries/STM32F10x_StdPeriph_Driver/src/stm32f10x_tim.c ****   uint16_t tmpccmrx = 0, tmpccer = 0, tmpcr2 = 0;
 21135              		.loc 1 364 0
 21136 000a 4FF00003 		mov	r3, #0
 21137 000e 7B81     		strh	r3, [r7, #10]	@ movhi
 21138 0010 4FF00003 		mov	r3, #0
 21139 0014 FB81     		strh	r3, [r7, #14]	@ movhi
 21140 0016 4FF00003 		mov	r3, #0
 21141 001a BB81     		strh	r3, [r7, #12]	@ movhi
 365:../Libraries/STM32F10x_StdPeriph_Driver/src/stm32f10x_tim.c ****    
 366:../Libraries/STM32F10x_StdPeriph_Driver/src/stm32f10x_tim.c ****   /* Check the parameters */
 367:../Libraries/STM32F10x_StdPeriph_Driver/src/stm32f10x_tim.c ****   assert_param(IS_TIM_LIST6_PERIPH(TIMx)); 
 368:../Libraries/STM32F10x_StdPeriph_Driver/src/stm32f10x_tim.c ****   assert_param(IS_TIM_OC_MODE(TIM_OCInitStruct->TIM_OCMode));
 369:../Libraries/STM32F10x_StdPeriph_Driver/src/stm32f10x_tim.c ****   assert_param(IS_TIM_OUTPUT_STATE(TIM_OCInitStruct->TIM_OutputState));
 370:../Libraries/STM32F10x_StdPeriph_Driver/src/stm32f10x_tim.c ****   assert_param(IS_TIM_OC_POLARITY(TIM_OCInitStruct->TIM_OCPolarity));   
 371:../Libraries/STM32F10x_StdPeriph_Driver/src/stm32f10x_tim.c ****    /* Disable the Channel 2: Reset the CC2E Bit */
 372:../Libraries/STM32F10x_StdPeriph_Driver/src/stm32f10x_tim.c ****   TIMx->CCER &= (uint16_t)(~((uint16_t)TIM_CCER_CC2E));
 21142              		.loc 1 372 0
 21143 001c 7B68     		ldr	r3, [r7, #4]
 21144 001e 1B8C     		ldrh	r3, [r3, #32]	@ movhi
 21145 0020 9BB2     		uxth	r3, r3
 21146 0022 23F01003 		bic	r3, r3, #16
 21147 0026 9AB2     		uxth	r2, r3
 21148 0028 7B68     		ldr	r3, [r7, #4]
 21149 002a 1A84     		strh	r2, [r3, #32]	@ movhi
 373:../Libraries/STM32F10x_StdPeriph_Driver/src/stm32f10x_tim.c ****   
 374:../Libraries/STM32F10x_StdPeriph_Driver/src/stm32f10x_tim.c ****   /* Get the TIMx CCER register value */  
 375:../Libraries/STM32F10x_StdPeriph_Driver/src/stm32f10x_tim.c ****   tmpccer = TIMx->CCER;
 21150              		.loc 1 375 0
 21151 002c 7B68     		ldr	r3, [r7, #4]
 21152 002e 1B8C     		ldrh	r3, [r3, #32]	@ movhi
 21153 0030 FB81     		strh	r3, [r7, #14]	@ movhi
 376:../Libraries/STM32F10x_StdPeriph_Driver/src/stm32f10x_tim.c ****   /* Get the TIMx CR2 register value */
 377:../Libraries/STM32F10x_StdPeriph_Driver/src/stm32f10x_tim.c ****   tmpcr2 =  TIMx->CR2;
 21154              		.loc 1 377 0
 21155 0032 7B68     		ldr	r3, [r7, #4]
 21156 0034 9B88     		ldrh	r3, [r3, #4]	@ movhi
 21157 0036 BB81     		strh	r3, [r7, #12]	@ movhi
 378:../Libraries/STM32F10x_StdPeriph_Driver/src/stm32f10x_tim.c ****   
 379:../Libraries/STM32F10x_StdPeriph_Driver/src/stm32f10x_tim.c ****   /* Get the TIMx CCMR1 register value */
 380:../Libraries/STM32F10x_StdPeriph_Driver/src/stm32f10x_tim.c ****   tmpccmrx = TIMx->CCMR1;
 21158              		.loc 1 380 0
 21159 0038 7B68     		ldr	r3, [r7, #4]
 21160 003a 1B8B     		ldrh	r3, [r3, #24]	@ movhi
 21161 003c 7B81     		strh	r3, [r7, #10]	@ movhi
 381:../Libraries/STM32F10x_StdPeriph_Driver/src/stm32f10x_tim.c ****     
 382:../Libraries/STM32F10x_StdPeriph_Driver/src/stm32f10x_tim.c ****   /* Reset the Output Compare mode and Capture/Compare selection Bits */
 383:../Libraries/STM32F10x_StdPeriph_Driver/src/stm32f10x_tim.c ****   tmpccmrx &= (uint16_t)(~((uint16_t)TIM_CCMR1_OC2M));
 21162              		.loc 1 383 0
 21163 003e 7B89     		ldrh	r3, [r7, #10]	@ movhi
 21164 0040 23F4E043 		bic	r3, r3, #28672
 21165 0044 7B81     		strh	r3, [r7, #10]	@ movhi
 384:../Libraries/STM32F10x_StdPeriph_Driver/src/stm32f10x_tim.c ****   tmpccmrx &= (uint16_t)(~((uint16_t)TIM_CCMR1_CC2S));
 21166              		.loc 1 384 0
 21167 0046 7B89     		ldrh	r3, [r7, #10]	@ movhi
 21168 0048 23F44073 		bic	r3, r3, #768
 21169 004c 7B81     		strh	r3, [r7, #10]	@ movhi
 385:../Libraries/STM32F10x_StdPeriph_Driver/src/stm32f10x_tim.c ****   
 386:../Libraries/STM32F10x_StdPeriph_Driver/src/stm32f10x_tim.c ****   /* Select the Output Compare Mode */
 387:../Libraries/STM32F10x_StdPeriph_Driver/src/stm32f10x_tim.c ****   tmpccmrx |= (uint16_t)(TIM_OCInitStruct->TIM_OCMode << 8);
 21170              		.loc 1 387 0
 21171 004e 3B68     		ldr	r3, [r7, #0]
 21172 0050 1B88     		ldrh	r3, [r3, #0]
 21173 0052 4FEA0323 		lsl	r3, r3, #8
 21174 0056 9AB2     		uxth	r2, r3
 21175 0058 7B89     		ldrh	r3, [r7, #10]	@ movhi
 21176 005a 42EA0303 		orr	r3, r2, r3
 21177 005e 7B81     		strh	r3, [r7, #10]	@ movhi
 388:../Libraries/STM32F10x_StdPeriph_Driver/src/stm32f10x_tim.c ****   
 389:../Libraries/STM32F10x_StdPeriph_Driver/src/stm32f10x_tim.c ****   /* Reset the Output Polarity level */
 390:../Libraries/STM32F10x_StdPeriph_Driver/src/stm32f10x_tim.c ****   tmpccer &= (uint16_t)(~((uint16_t)TIM_CCER_CC2P));
 21178              		.loc 1 390 0
 21179 0060 FB89     		ldrh	r3, [r7, #14]	@ movhi
 21180 0062 23F02003 		bic	r3, r3, #32
 21181 0066 FB81     		strh	r3, [r7, #14]	@ movhi
 391:../Libraries/STM32F10x_StdPeriph_Driver/src/stm32f10x_tim.c ****   /* Set the Output Compare Polarity */
 392:../Libraries/STM32F10x_StdPeriph_Driver/src/stm32f10x_tim.c ****   tmpccer |= (uint16_t)(TIM_OCInitStruct->TIM_OCPolarity << 4);
 21182              		.loc 1 392 0
 21183 0068 3B68     		ldr	r3, [r7, #0]
 21184 006a 1B89     		ldrh	r3, [r3, #8]
 21185 006c 4FEA0313 		lsl	r3, r3, #4
 21186 0070 9AB2     		uxth	r2, r3
 21187 0072 FB89     		ldrh	r3, [r7, #14]	@ movhi
 21188 0074 42EA0303 		orr	r3, r2, r3
 21189 0078 FB81     		strh	r3, [r7, #14]	@ movhi
 393:../Libraries/STM32F10x_StdPeriph_Driver/src/stm32f10x_tim.c ****   
 394:../Libraries/STM32F10x_StdPeriph_Driver/src/stm32f10x_tim.c ****   /* Set the Output State */
 395:../Libraries/STM32F10x_StdPeriph_Driver/src/stm32f10x_tim.c ****   tmpccer |= (uint16_t)(TIM_OCInitStruct->TIM_OutputState << 4);
 21190              		.loc 1 395 0
 21191 007a 3B68     		ldr	r3, [r7, #0]
 21192 007c 5B88     		ldrh	r3, [r3, #2]
 21193 007e 4FEA0313 		lsl	r3, r3, #4
 21194 0082 9AB2     		uxth	r2, r3
 21195 0084 FB89     		ldrh	r3, [r7, #14]	@ movhi
 21196 0086 42EA0303 		orr	r3, r2, r3
 21197 008a FB81     		strh	r3, [r7, #14]	@ movhi
 396:../Libraries/STM32F10x_StdPeriph_Driver/src/stm32f10x_tim.c ****     
 397:../Libraries/STM32F10x_StdPeriph_Driver/src/stm32f10x_tim.c ****   if((TIMx == TIM1) || (TIMx == TIM8))
 21198              		.loc 1 397 0
 21199 008c 7A68     		ldr	r2, [r7, #4]
 21200 008e 264B     		ldr	r3, .L37
 21201 0090 9A42     		cmp	r2, r3
 21202 0092 03D0     		beq	.L35
 21203              		.loc 1 397 0 is_stmt 0 discriminator 1
 21204 0094 7A68     		ldr	r2, [r7, #4]
 21205 0096 254B     		ldr	r3, .L37+4
 21206 0098 9A42     		cmp	r2, r3
 21207 009a 33D1     		bne	.L36
 21208              	.L35:
 398:../Libraries/STM32F10x_StdPeriph_Driver/src/stm32f10x_tim.c ****   {
 399:../Libraries/STM32F10x_StdPeriph_Driver/src/stm32f10x_tim.c ****     assert_param(IS_TIM_OUTPUTN_STATE(TIM_OCInitStruct->TIM_OutputNState));
 400:../Libraries/STM32F10x_StdPeriph_Driver/src/stm32f10x_tim.c ****     assert_param(IS_TIM_OCN_POLARITY(TIM_OCInitStruct->TIM_OCNPolarity));
 401:../Libraries/STM32F10x_StdPeriph_Driver/src/stm32f10x_tim.c ****     assert_param(IS_TIM_OCNIDLE_STATE(TIM_OCInitStruct->TIM_OCNIdleState));
 402:../Libraries/STM32F10x_StdPeriph_Driver/src/stm32f10x_tim.c ****     assert_param(IS_TIM_OCIDLE_STATE(TIM_OCInitStruct->TIM_OCIdleState));
 403:../Libraries/STM32F10x_StdPeriph_Driver/src/stm32f10x_tim.c ****     
 404:../Libraries/STM32F10x_StdPeriph_Driver/src/stm32f10x_tim.c ****     /* Reset the Output N Polarity level */
 405:../Libraries/STM32F10x_StdPeriph_Driver/src/stm32f10x_tim.c ****     tmpccer &= (uint16_t)(~((uint16_t)TIM_CCER_CC2NP));
 21209              		.loc 1 405 0 is_stmt 1
 21210 009c FB89     		ldrh	r3, [r7, #14]	@ movhi
 21211 009e 23F08003 		bic	r3, r3, #128
 21212 00a2 FB81     		strh	r3, [r7, #14]	@ movhi
 406:../Libraries/STM32F10x_StdPeriph_Driver/src/stm32f10x_tim.c ****     /* Set the Output N Polarity */
 407:../Libraries/STM32F10x_StdPeriph_Driver/src/stm32f10x_tim.c ****     tmpccer |= (uint16_t)(TIM_OCInitStruct->TIM_OCNPolarity << 4);
 21213              		.loc 1 407 0
 21214 00a4 3B68     		ldr	r3, [r7, #0]
 21215 00a6 5B89     		ldrh	r3, [r3, #10]
 21216 00a8 4FEA0313 		lsl	r3, r3, #4
 21217 00ac 9AB2     		uxth	r2, r3
 21218 00ae FB89     		ldrh	r3, [r7, #14]	@ movhi
 21219 00b0 42EA0303 		orr	r3, r2, r3
 21220 00b4 FB81     		strh	r3, [r7, #14]	@ movhi
 408:../Libraries/STM32F10x_StdPeriph_Driver/src/stm32f10x_tim.c ****     
 409:../Libraries/STM32F10x_StdPeriph_Driver/src/stm32f10x_tim.c ****     /* Reset the Output N State */
 410:../Libraries/STM32F10x_StdPeriph_Driver/src/stm32f10x_tim.c ****     tmpccer &= (uint16_t)(~((uint16_t)TIM_CCER_CC2NE));    
 21221              		.loc 1 410 0
 21222 00b6 FB89     		ldrh	r3, [r7, #14]	@ movhi
 21223 00b8 23F04003 		bic	r3, r3, #64
 21224 00bc FB81     		strh	r3, [r7, #14]	@ movhi
 411:../Libraries/STM32F10x_StdPeriph_Driver/src/stm32f10x_tim.c ****     /* Set the Output N State */
 412:../Libraries/STM32F10x_StdPeriph_Driver/src/stm32f10x_tim.c ****     tmpccer |= (uint16_t)(TIM_OCInitStruct->TIM_OutputNState << 4);
 21225              		.loc 1 412 0
 21226 00be 3B68     		ldr	r3, [r7, #0]
 21227 00c0 9B88     		ldrh	r3, [r3, #4]
 21228 00c2 4FEA0313 		lsl	r3, r3, #4
 21229 00c6 9AB2     		uxth	r2, r3
 21230 00c8 FB89     		ldrh	r3, [r7, #14]	@ movhi
 21231 00ca 42EA0303 		orr	r3, r2, r3
 21232 00ce FB81     		strh	r3, [r7, #14]	@ movhi
 413:../Libraries/STM32F10x_StdPeriph_Driver/src/stm32f10x_tim.c ****     
 414:../Libraries/STM32F10x_StdPeriph_Driver/src/stm32f10x_tim.c ****     /* Reset the Output Compare and Output Compare N IDLE State */
 415:../Libraries/STM32F10x_StdPeriph_Driver/src/stm32f10x_tim.c ****     tmpcr2 &= (uint16_t)(~((uint16_t)TIM_CR2_OIS2));
 21233              		.loc 1 415 0
 21234 00d0 BB89     		ldrh	r3, [r7, #12]	@ movhi
 21235 00d2 23F48063 		bic	r3, r3, #1024
 21236 00d6 BB81     		strh	r3, [r7, #12]	@ movhi
 416:../Libraries/STM32F10x_StdPeriph_Driver/src/stm32f10x_tim.c ****     tmpcr2 &= (uint16_t)(~((uint16_t)TIM_CR2_OIS2N));
 21237              		.loc 1 416 0
 21238 00d8 BB89     		ldrh	r3, [r7, #12]	@ movhi
 21239 00da 23F40063 		bic	r3, r3, #2048
 21240 00de BB81     		strh	r3, [r7, #12]	@ movhi
 417:../Libraries/STM32F10x_StdPeriph_Driver/src/stm32f10x_tim.c ****     
 418:../Libraries/STM32F10x_StdPeriph_Driver/src/stm32f10x_tim.c ****     /* Set the Output Idle state */
 419:../Libraries/STM32F10x_StdPeriph_Driver/src/stm32f10x_tim.c ****     tmpcr2 |= (uint16_t)(TIM_OCInitStruct->TIM_OCIdleState << 2);
 21241              		.loc 1 419 0
 21242 00e0 3B68     		ldr	r3, [r7, #0]
 21243 00e2 9B89     		ldrh	r3, [r3, #12]
 21244 00e4 4FEA8303 		lsl	r3, r3, #2
 21245 00e8 9AB2     		uxth	r2, r3
 21246 00ea BB89     		ldrh	r3, [r7, #12]	@ movhi
 21247 00ec 42EA0303 		orr	r3, r2, r3
 21248 00f0 BB81     		strh	r3, [r7, #12]	@ movhi
 420:../Libraries/STM32F10x_StdPeriph_Driver/src/stm32f10x_tim.c ****     /* Set the Output N Idle state */
 421:../Libraries/STM32F10x_StdPeriph_Driver/src/stm32f10x_tim.c ****     tmpcr2 |= (uint16_t)(TIM_OCInitStruct->TIM_OCNIdleState << 2);
 21249              		.loc 1 421 0
 21250 00f2 3B68     		ldr	r3, [r7, #0]
 21251 00f4 DB89     		ldrh	r3, [r3, #14]
 21252 00f6 4FEA8303 		lsl	r3, r3, #2
 21253 00fa 9AB2     		uxth	r2, r3
 21254 00fc BB89     		ldrh	r3, [r7, #12]	@ movhi
 21255 00fe 42EA0303 		orr	r3, r2, r3
 21256 0102 BB81     		strh	r3, [r7, #12]	@ movhi
 21257              	.L36:
 422:../Libraries/STM32F10x_StdPeriph_Driver/src/stm32f10x_tim.c ****   }
 423:../Libraries/STM32F10x_StdPeriph_Driver/src/stm32f10x_tim.c ****   /* Write to TIMx CR2 */
 424:../Libraries/STM32F10x_StdPeriph_Driver/src/stm32f10x_tim.c ****   TIMx->CR2 = tmpcr2;
 21258              		.loc 1 424 0
 21259 0104 7B68     		ldr	r3, [r7, #4]
 21260 0106 BA89     		ldrh	r2, [r7, #12]	@ movhi
 21261 0108 9A80     		strh	r2, [r3, #4]	@ movhi
 425:../Libraries/STM32F10x_StdPeriph_Driver/src/stm32f10x_tim.c ****   
 426:../Libraries/STM32F10x_StdPeriph_Driver/src/stm32f10x_tim.c ****   /* Write to TIMx CCMR1 */
 427:../Libraries/STM32F10x_StdPeriph_Driver/src/stm32f10x_tim.c ****   TIMx->CCMR1 = tmpccmrx;
 21262              		.loc 1 427 0
 21263 010a 7B68     		ldr	r3, [r7, #4]
 21264 010c 7A89     		ldrh	r2, [r7, #10]	@ movhi
 21265 010e 1A83     		strh	r2, [r3, #24]	@ movhi
 428:../Libraries/STM32F10x_StdPeriph_Driver/src/stm32f10x_tim.c **** 
 429:../Libraries/STM32F10x_StdPeriph_Driver/src/stm32f10x_tim.c ****   /* Set the Capture Compare Register value */
 430:../Libraries/STM32F10x_StdPeriph_Driver/src/stm32f10x_tim.c ****   TIMx->CCR2 = TIM_OCInitStruct->TIM_Pulse;
 21266              		.loc 1 430 0
 21267 0110 3B68     		ldr	r3, [r7, #0]
 21268 0112 DA88     		ldrh	r2, [r3, #6]
 21269 0114 7B68     		ldr	r3, [r7, #4]
 21270 0116 1A87     		strh	r2, [r3, #56]	@ movhi
 431:../Libraries/STM32F10x_StdPeriph_Driver/src/stm32f10x_tim.c ****   
 432:../Libraries/STM32F10x_StdPeriph_Driver/src/stm32f10x_tim.c ****   /* Write to TIMx CCER */
 433:../Libraries/STM32F10x_StdPeriph_Driver/src/stm32f10x_tim.c ****   TIMx->CCER = tmpccer;
 21271              		.loc 1 433 0
 21272 0118 7B68     		ldr	r3, [r7, #4]
 21273 011a FA89     		ldrh	r2, [r7, #14]	@ movhi
 21274 011c 1A84     		strh	r2, [r3, #32]	@ movhi
 434:../Libraries/STM32F10x_StdPeriph_Driver/src/stm32f10x_tim.c **** }
 21275              		.loc 1 434 0
 21276 011e 07F11407 		add	r7, r7, #20
 21277 0122 BD46     		mov	sp, r7
 21278 0124 80BC     		pop	{r7}
 21279 0126 7047     		bx	lr
 21280              	.L38:
 21281              		.align	2
 21282              	.L37:
 21283 0128 002C0140 		.word	1073818624
 21284 012c 00340140 		.word	1073820672
 21285              		.cfi_endproc
 21286              	.LFE32:
 21288              		.section	.text.TIM_OC3Init,"ax",%progbits
 21289              		.align	2
 21290              		.global	TIM_OC3Init
 21291              		.thumb
 21292              		.thumb_func
 21294              	TIM_OC3Init:
 21295              	.LFB33:
 435:../Libraries/STM32F10x_StdPeriph_Driver/src/stm32f10x_tim.c **** 
 436:../Libraries/STM32F10x_StdPeriph_Driver/src/stm32f10x_tim.c **** /**
 437:../Libraries/STM32F10x_StdPeriph_Driver/src/stm32f10x_tim.c ****   * @brief  Initializes the TIMx Channel3 according to the specified
 438:../Libraries/STM32F10x_StdPeriph_Driver/src/stm32f10x_tim.c ****   *         parameters in the TIM_OCInitStruct.
 439:../Libraries/STM32F10x_StdPeriph_Driver/src/stm32f10x_tim.c ****   * @param  TIMx: where x can be  1, 2, 3, 4, 5 or 8 to select the TIM peripheral.
 440:../Libraries/STM32F10x_StdPeriph_Driver/src/stm32f10x_tim.c ****   * @param  TIM_OCInitStruct: pointer to a TIM_OCInitTypeDef structure
 441:../Libraries/STM32F10x_StdPeriph_Driver/src/stm32f10x_tim.c ****   *         that contains the configuration information for the specified TIM peripheral.
 442:../Libraries/STM32F10x_StdPeriph_Driver/src/stm32f10x_tim.c ****   * @retval None
 443:../Libraries/STM32F10x_StdPeriph_Driver/src/stm32f10x_tim.c ****   */
 444:../Libraries/STM32F10x_StdPeriph_Driver/src/stm32f10x_tim.c **** void TIM_OC3Init(TIM_TypeDef* TIMx, TIM_OCInitTypeDef* TIM_OCInitStruct)
 445:../Libraries/STM32F10x_StdPeriph_Driver/src/stm32f10x_tim.c **** {
 21296              		.loc 1 445 0
 21297              		.cfi_startproc
 21298              		@ args = 0, pretend = 0, frame = 16
 21299              		@ frame_needed = 1, uses_anonymous_args = 0
 21300              		@ link register save eliminated.
 21301 0000 80B4     		push	{r7}
 21302              	.LCFI12:
 21303              		.cfi_def_cfa_offset 4
 21304 0002 85B0     		sub	sp, sp, #20
 21305              	.LCFI13:
 21306              		.cfi_def_cfa_offset 24
 21307 0004 00AF     		add	r7, sp, #0
 21308              		.cfi_offset 7, -4
 21309              	.LCFI14:
 21310              		.cfi_def_cfa_register 7
 21311 0006 7860     		str	r0, [r7, #4]
 21312 0008 3960     		str	r1, [r7, #0]
 446:../Libraries/STM32F10x_StdPeriph_Driver/src/stm32f10x_tim.c ****   uint16_t tmpccmrx = 0, tmpccer = 0, tmpcr2 = 0;
 21313              		.loc 1 446 0
 21314 000a 4FF00003 		mov	r3, #0
 21315 000e 7B81     		strh	r3, [r7, #10]	@ movhi
 21316 0010 4FF00003 		mov	r3, #0
 21317 0014 FB81     		strh	r3, [r7, #14]	@ movhi
 21318 0016 4FF00003 		mov	r3, #0
 21319 001a BB81     		strh	r3, [r7, #12]	@ movhi
 447:../Libraries/STM32F10x_StdPeriph_Driver/src/stm32f10x_tim.c ****    
 448:../Libraries/STM32F10x_StdPeriph_Driver/src/stm32f10x_tim.c ****   /* Check the parameters */
 449:../Libraries/STM32F10x_StdPeriph_Driver/src/stm32f10x_tim.c ****   assert_param(IS_TIM_LIST3_PERIPH(TIMx)); 
 450:../Libraries/STM32F10x_StdPeriph_Driver/src/stm32f10x_tim.c ****   assert_param(IS_TIM_OC_MODE(TIM_OCInitStruct->TIM_OCMode));
 451:../Libraries/STM32F10x_StdPeriph_Driver/src/stm32f10x_tim.c ****   assert_param(IS_TIM_OUTPUT_STATE(TIM_OCInitStruct->TIM_OutputState));
 452:../Libraries/STM32F10x_StdPeriph_Driver/src/stm32f10x_tim.c ****   assert_param(IS_TIM_OC_POLARITY(TIM_OCInitStruct->TIM_OCPolarity));   
 453:../Libraries/STM32F10x_StdPeriph_Driver/src/stm32f10x_tim.c ****   /* Disable the Channel 2: Reset the CC2E Bit */
 454:../Libraries/STM32F10x_StdPeriph_Driver/src/stm32f10x_tim.c ****   TIMx->CCER &= (uint16_t)(~((uint16_t)TIM_CCER_CC3E));
 21320              		.loc 1 454 0
 21321 001c 7B68     		ldr	r3, [r7, #4]
 21322 001e 1B8C     		ldrh	r3, [r3, #32]	@ movhi
 21323 0020 9BB2     		uxth	r3, r3
 21324 0022 23F48073 		bic	r3, r3, #256
 21325 0026 9AB2     		uxth	r2, r3
 21326 0028 7B68     		ldr	r3, [r7, #4]
 21327 002a 1A84     		strh	r2, [r3, #32]	@ movhi
 455:../Libraries/STM32F10x_StdPeriph_Driver/src/stm32f10x_tim.c ****   
 456:../Libraries/STM32F10x_StdPeriph_Driver/src/stm32f10x_tim.c ****   /* Get the TIMx CCER register value */
 457:../Libraries/STM32F10x_StdPeriph_Driver/src/stm32f10x_tim.c ****   tmpccer = TIMx->CCER;
 21328              		.loc 1 457 0
 21329 002c 7B68     		ldr	r3, [r7, #4]
 21330 002e 1B8C     		ldrh	r3, [r3, #32]	@ movhi
 21331 0030 FB81     		strh	r3, [r7, #14]	@ movhi
 458:../Libraries/STM32F10x_StdPeriph_Driver/src/stm32f10x_tim.c ****   /* Get the TIMx CR2 register value */
 459:../Libraries/STM32F10x_StdPeriph_Driver/src/stm32f10x_tim.c ****   tmpcr2 =  TIMx->CR2;
 21332              		.loc 1 459 0
 21333 0032 7B68     		ldr	r3, [r7, #4]
 21334 0034 9B88     		ldrh	r3, [r3, #4]	@ movhi
 21335 0036 BB81     		strh	r3, [r7, #12]	@ movhi
 460:../Libraries/STM32F10x_StdPeriph_Driver/src/stm32f10x_tim.c ****   
 461:../Libraries/STM32F10x_StdPeriph_Driver/src/stm32f10x_tim.c ****   /* Get the TIMx CCMR2 register value */
 462:../Libraries/STM32F10x_StdPeriph_Driver/src/stm32f10x_tim.c ****   tmpccmrx = TIMx->CCMR2;
 21336              		.loc 1 462 0
 21337 0038 7B68     		ldr	r3, [r7, #4]
 21338 003a 9B8B     		ldrh	r3, [r3, #28]	@ movhi
 21339 003c 7B81     		strh	r3, [r7, #10]	@ movhi
 463:../Libraries/STM32F10x_StdPeriph_Driver/src/stm32f10x_tim.c ****     
 464:../Libraries/STM32F10x_StdPeriph_Driver/src/stm32f10x_tim.c ****   /* Reset the Output Compare mode and Capture/Compare selection Bits */
 465:../Libraries/STM32F10x_StdPeriph_Driver/src/stm32f10x_tim.c ****   tmpccmrx &= (uint16_t)(~((uint16_t)TIM_CCMR2_OC3M));
 21340              		.loc 1 465 0
 21341 003e 7B89     		ldrh	r3, [r7, #10]	@ movhi
 21342 0040 23F07003 		bic	r3, r3, #112
 21343 0044 7B81     		strh	r3, [r7, #10]	@ movhi
 466:../Libraries/STM32F10x_StdPeriph_Driver/src/stm32f10x_tim.c ****   tmpccmrx &= (uint16_t)(~((uint16_t)TIM_CCMR2_CC3S));  
 21344              		.loc 1 466 0
 21345 0046 7B89     		ldrh	r3, [r7, #10]	@ movhi
 21346 0048 23F00303 		bic	r3, r3, #3
 21347 004c 7B81     		strh	r3, [r7, #10]	@ movhi
 467:../Libraries/STM32F10x_StdPeriph_Driver/src/stm32f10x_tim.c ****   /* Select the Output Compare Mode */
 468:../Libraries/STM32F10x_StdPeriph_Driver/src/stm32f10x_tim.c ****   tmpccmrx |= TIM_OCInitStruct->TIM_OCMode;
 21348              		.loc 1 468 0
 21349 004e 3B68     		ldr	r3, [r7, #0]
 21350 0050 1A88     		ldrh	r2, [r3, #0]
 21351 0052 7B89     		ldrh	r3, [r7, #10]	@ movhi
 21352 0054 42EA0303 		orr	r3, r2, r3
 21353 0058 7B81     		strh	r3, [r7, #10]	@ movhi
 469:../Libraries/STM32F10x_StdPeriph_Driver/src/stm32f10x_tim.c ****   
 470:../Libraries/STM32F10x_StdPeriph_Driver/src/stm32f10x_tim.c ****   /* Reset the Output Polarity level */
 471:../Libraries/STM32F10x_StdPeriph_Driver/src/stm32f10x_tim.c ****   tmpccer &= (uint16_t)(~((uint16_t)TIM_CCER_CC3P));
 21354              		.loc 1 471 0
 21355 005a FB89     		ldrh	r3, [r7, #14]	@ movhi
 21356 005c 23F40073 		bic	r3, r3, #512
 21357 0060 FB81     		strh	r3, [r7, #14]	@ movhi
 472:../Libraries/STM32F10x_StdPeriph_Driver/src/stm32f10x_tim.c ****   /* Set the Output Compare Polarity */
 473:../Libraries/STM32F10x_StdPeriph_Driver/src/stm32f10x_tim.c ****   tmpccer |= (uint16_t)(TIM_OCInitStruct->TIM_OCPolarity << 8);
 21358              		.loc 1 473 0
 21359 0062 3B68     		ldr	r3, [r7, #0]
 21360 0064 1B89     		ldrh	r3, [r3, #8]
 21361 0066 4FEA0323 		lsl	r3, r3, #8
 21362 006a 9AB2     		uxth	r2, r3
 21363 006c FB89     		ldrh	r3, [r7, #14]	@ movhi
 21364 006e 42EA0303 		orr	r3, r2, r3
 21365 0072 FB81     		strh	r3, [r7, #14]	@ movhi
 474:../Libraries/STM32F10x_StdPeriph_Driver/src/stm32f10x_tim.c ****   
 475:../Libraries/STM32F10x_StdPeriph_Driver/src/stm32f10x_tim.c ****   /* Set the Output State */
 476:../Libraries/STM32F10x_StdPeriph_Driver/src/stm32f10x_tim.c ****   tmpccer |= (uint16_t)(TIM_OCInitStruct->TIM_OutputState << 8);
 21366              		.loc 1 476 0
 21367 0074 3B68     		ldr	r3, [r7, #0]
 21368 0076 5B88     		ldrh	r3, [r3, #2]
 21369 0078 4FEA0323 		lsl	r3, r3, #8
 21370 007c 9AB2     		uxth	r2, r3
 21371 007e FB89     		ldrh	r3, [r7, #14]	@ movhi
 21372 0080 42EA0303 		orr	r3, r2, r3
 21373 0084 FB81     		strh	r3, [r7, #14]	@ movhi
 477:../Libraries/STM32F10x_StdPeriph_Driver/src/stm32f10x_tim.c ****     
 478:../Libraries/STM32F10x_StdPeriph_Driver/src/stm32f10x_tim.c ****   if((TIMx == TIM1) || (TIMx == TIM8))
 21374              		.loc 1 478 0
 21375 0086 7A68     		ldr	r2, [r7, #4]
 21376 0088 264B     		ldr	r3, .L42
 21377 008a 9A42     		cmp	r2, r3
 21378 008c 03D0     		beq	.L40
 21379              		.loc 1 478 0 is_stmt 0 discriminator 1
 21380 008e 7A68     		ldr	r2, [r7, #4]
 21381 0090 254B     		ldr	r3, .L42+4
 21382 0092 9A42     		cmp	r2, r3
 21383 0094 33D1     		bne	.L41
 21384              	.L40:
 479:../Libraries/STM32F10x_StdPeriph_Driver/src/stm32f10x_tim.c ****   {
 480:../Libraries/STM32F10x_StdPeriph_Driver/src/stm32f10x_tim.c ****     assert_param(IS_TIM_OUTPUTN_STATE(TIM_OCInitStruct->TIM_OutputNState));
 481:../Libraries/STM32F10x_StdPeriph_Driver/src/stm32f10x_tim.c ****     assert_param(IS_TIM_OCN_POLARITY(TIM_OCInitStruct->TIM_OCNPolarity));
 482:../Libraries/STM32F10x_StdPeriph_Driver/src/stm32f10x_tim.c ****     assert_param(IS_TIM_OCNIDLE_STATE(TIM_OCInitStruct->TIM_OCNIdleState));
 483:../Libraries/STM32F10x_StdPeriph_Driver/src/stm32f10x_tim.c ****     assert_param(IS_TIM_OCIDLE_STATE(TIM_OCInitStruct->TIM_OCIdleState));
 484:../Libraries/STM32F10x_StdPeriph_Driver/src/stm32f10x_tim.c ****     
 485:../Libraries/STM32F10x_StdPeriph_Driver/src/stm32f10x_tim.c ****     /* Reset the Output N Polarity level */
 486:../Libraries/STM32F10x_StdPeriph_Driver/src/stm32f10x_tim.c ****     tmpccer &= (uint16_t)(~((uint16_t)TIM_CCER_CC3NP));
 21385              		.loc 1 486 0 is_stmt 1
 21386 0096 FB89     		ldrh	r3, [r7, #14]	@ movhi
 21387 0098 23F40063 		bic	r3, r3, #2048
 21388 009c FB81     		strh	r3, [r7, #14]	@ movhi
 487:../Libraries/STM32F10x_StdPeriph_Driver/src/stm32f10x_tim.c ****     /* Set the Output N Polarity */
 488:../Libraries/STM32F10x_StdPeriph_Driver/src/stm32f10x_tim.c ****     tmpccer |= (uint16_t)(TIM_OCInitStruct->TIM_OCNPolarity << 8);
 21389              		.loc 1 488 0
 21390 009e 3B68     		ldr	r3, [r7, #0]
 21391 00a0 5B89     		ldrh	r3, [r3, #10]
 21392 00a2 4FEA0323 		lsl	r3, r3, #8
 21393 00a6 9AB2     		uxth	r2, r3
 21394 00a8 FB89     		ldrh	r3, [r7, #14]	@ movhi
 21395 00aa 42EA0303 		orr	r3, r2, r3
 21396 00ae FB81     		strh	r3, [r7, #14]	@ movhi
 489:../Libraries/STM32F10x_StdPeriph_Driver/src/stm32f10x_tim.c ****     /* Reset the Output N State */
 490:../Libraries/STM32F10x_StdPeriph_Driver/src/stm32f10x_tim.c ****     tmpccer &= (uint16_t)(~((uint16_t)TIM_CCER_CC3NE));
 21397              		.loc 1 490 0
 21398 00b0 FB89     		ldrh	r3, [r7, #14]	@ movhi
 21399 00b2 23F48063 		bic	r3, r3, #1024
 21400 00b6 FB81     		strh	r3, [r7, #14]	@ movhi
 491:../Libraries/STM32F10x_StdPeriph_Driver/src/stm32f10x_tim.c ****     
 492:../Libraries/STM32F10x_StdPeriph_Driver/src/stm32f10x_tim.c ****     /* Set the Output N State */
 493:../Libraries/STM32F10x_StdPeriph_Driver/src/stm32f10x_tim.c ****     tmpccer |= (uint16_t)(TIM_OCInitStruct->TIM_OutputNState << 8);
 21401              		.loc 1 493 0
 21402 00b8 3B68     		ldr	r3, [r7, #0]
 21403 00ba 9B88     		ldrh	r3, [r3, #4]
 21404 00bc 4FEA0323 		lsl	r3, r3, #8
 21405 00c0 9AB2     		uxth	r2, r3
 21406 00c2 FB89     		ldrh	r3, [r7, #14]	@ movhi
 21407 00c4 42EA0303 		orr	r3, r2, r3
 21408 00c8 FB81     		strh	r3, [r7, #14]	@ movhi
 494:../Libraries/STM32F10x_StdPeriph_Driver/src/stm32f10x_tim.c ****     /* Reset the Output Compare and Output Compare N IDLE State */
 495:../Libraries/STM32F10x_StdPeriph_Driver/src/stm32f10x_tim.c ****     tmpcr2 &= (uint16_t)(~((uint16_t)TIM_CR2_OIS3));
 21409              		.loc 1 495 0
 21410 00ca BB89     		ldrh	r3, [r7, #12]	@ movhi
 21411 00cc 23F48053 		bic	r3, r3, #4096
 21412 00d0 BB81     		strh	r3, [r7, #12]	@ movhi
 496:../Libraries/STM32F10x_StdPeriph_Driver/src/stm32f10x_tim.c ****     tmpcr2 &= (uint16_t)(~((uint16_t)TIM_CR2_OIS3N));
 21413              		.loc 1 496 0
 21414 00d2 BB89     		ldrh	r3, [r7, #12]	@ movhi
 21415 00d4 23F40053 		bic	r3, r3, #8192
 21416 00d8 BB81     		strh	r3, [r7, #12]	@ movhi
 497:../Libraries/STM32F10x_StdPeriph_Driver/src/stm32f10x_tim.c ****     /* Set the Output Idle state */
 498:../Libraries/STM32F10x_StdPeriph_Driver/src/stm32f10x_tim.c ****     tmpcr2 |= (uint16_t)(TIM_OCInitStruct->TIM_OCIdleState << 4);
 21417              		.loc 1 498 0
 21418 00da 3B68     		ldr	r3, [r7, #0]
 21419 00dc 9B89     		ldrh	r3, [r3, #12]
 21420 00de 4FEA0313 		lsl	r3, r3, #4
 21421 00e2 9AB2     		uxth	r2, r3
 21422 00e4 BB89     		ldrh	r3, [r7, #12]	@ movhi
 21423 00e6 42EA0303 		orr	r3, r2, r3
 21424 00ea BB81     		strh	r3, [r7, #12]	@ movhi
 499:../Libraries/STM32F10x_StdPeriph_Driver/src/stm32f10x_tim.c ****     /* Set the Output N Idle state */
 500:../Libraries/STM32F10x_StdPeriph_Driver/src/stm32f10x_tim.c ****     tmpcr2 |= (uint16_t)(TIM_OCInitStruct->TIM_OCNIdleState << 4);
 21425              		.loc 1 500 0
 21426 00ec 3B68     		ldr	r3, [r7, #0]
 21427 00ee DB89     		ldrh	r3, [r3, #14]
 21428 00f0 4FEA0313 		lsl	r3, r3, #4
 21429 00f4 9AB2     		uxth	r2, r3
 21430 00f6 BB89     		ldrh	r3, [r7, #12]	@ movhi
 21431 00f8 42EA0303 		orr	r3, r2, r3
 21432 00fc BB81     		strh	r3, [r7, #12]	@ movhi
 21433              	.L41:
 501:../Libraries/STM32F10x_StdPeriph_Driver/src/stm32f10x_tim.c ****   }
 502:../Libraries/STM32F10x_StdPeriph_Driver/src/stm32f10x_tim.c ****   /* Write to TIMx CR2 */
 503:../Libraries/STM32F10x_StdPeriph_Driver/src/stm32f10x_tim.c ****   TIMx->CR2 = tmpcr2;
 21434              		.loc 1 503 0
 21435 00fe 7B68     		ldr	r3, [r7, #4]
 21436 0100 BA89     		ldrh	r2, [r7, #12]	@ movhi
 21437 0102 9A80     		strh	r2, [r3, #4]	@ movhi
 504:../Libraries/STM32F10x_StdPeriph_Driver/src/stm32f10x_tim.c ****   
 505:../Libraries/STM32F10x_StdPeriph_Driver/src/stm32f10x_tim.c ****   /* Write to TIMx CCMR2 */
 506:../Libraries/STM32F10x_StdPeriph_Driver/src/stm32f10x_tim.c ****   TIMx->CCMR2 = tmpccmrx;
 21438              		.loc 1 506 0
 21439 0104 7B68     		ldr	r3, [r7, #4]
 21440 0106 7A89     		ldrh	r2, [r7, #10]	@ movhi
 21441 0108 9A83     		strh	r2, [r3, #28]	@ movhi
 507:../Libraries/STM32F10x_StdPeriph_Driver/src/stm32f10x_tim.c **** 
 508:../Libraries/STM32F10x_StdPeriph_Driver/src/stm32f10x_tim.c ****   /* Set the Capture Compare Register value */
 509:../Libraries/STM32F10x_StdPeriph_Driver/src/stm32f10x_tim.c ****   TIMx->CCR3 = TIM_OCInitStruct->TIM_Pulse;
 21442              		.loc 1 509 0
 21443 010a 3B68     		ldr	r3, [r7, #0]
 21444 010c DA88     		ldrh	r2, [r3, #6]
 21445 010e 7B68     		ldr	r3, [r7, #4]
 21446 0110 9A87     		strh	r2, [r3, #60]	@ movhi
 510:../Libraries/STM32F10x_StdPeriph_Driver/src/stm32f10x_tim.c ****   
 511:../Libraries/STM32F10x_StdPeriph_Driver/src/stm32f10x_tim.c ****   /* Write to TIMx CCER */
 512:../Libraries/STM32F10x_StdPeriph_Driver/src/stm32f10x_tim.c ****   TIMx->CCER = tmpccer;
 21447              		.loc 1 512 0
 21448 0112 7B68     		ldr	r3, [r7, #4]
 21449 0114 FA89     		ldrh	r2, [r7, #14]	@ movhi
 21450 0116 1A84     		strh	r2, [r3, #32]	@ movhi
 513:../Libraries/STM32F10x_StdPeriph_Driver/src/stm32f10x_tim.c **** }
 21451              		.loc 1 513 0
 21452 0118 07F11407 		add	r7, r7, #20
 21453 011c BD46     		mov	sp, r7
 21454 011e 80BC     		pop	{r7}
 21455 0120 7047     		bx	lr
 21456              	.L43:
 21457 0122 00BF     		.align	2
 21458              	.L42:
 21459 0124 002C0140 		.word	1073818624
 21460 0128 00340140 		.word	1073820672
 21461              		.cfi_endproc
 21462              	.LFE33:
 21464              		.section	.text.TIM_OC4Init,"ax",%progbits
 21465              		.align	2
 21466              		.global	TIM_OC4Init
 21467              		.thumb
 21468              		.thumb_func
 21470              	TIM_OC4Init:
 21471              	.LFB34:
 514:../Libraries/STM32F10x_StdPeriph_Driver/src/stm32f10x_tim.c **** 
 515:../Libraries/STM32F10x_StdPeriph_Driver/src/stm32f10x_tim.c **** /**
 516:../Libraries/STM32F10x_StdPeriph_Driver/src/stm32f10x_tim.c ****   * @brief  Initializes the TIMx Channel4 according to the specified
 517:../Libraries/STM32F10x_StdPeriph_Driver/src/stm32f10x_tim.c ****   *         parameters in the TIM_OCInitStruct.
 518:../Libraries/STM32F10x_StdPeriph_Driver/src/stm32f10x_tim.c ****   * @param  TIMx: where x can be  1, 2, 3, 4, 5 or 8 to select the TIM peripheral.
 519:../Libraries/STM32F10x_StdPeriph_Driver/src/stm32f10x_tim.c ****   * @param  TIM_OCInitStruct: pointer to a TIM_OCInitTypeDef structure
 520:../Libraries/STM32F10x_StdPeriph_Driver/src/stm32f10x_tim.c ****   *         that contains the configuration information for the specified TIM peripheral.
 521:../Libraries/STM32F10x_StdPeriph_Driver/src/stm32f10x_tim.c ****   * @retval None
 522:../Libraries/STM32F10x_StdPeriph_Driver/src/stm32f10x_tim.c ****   */
 523:../Libraries/STM32F10x_StdPeriph_Driver/src/stm32f10x_tim.c **** void TIM_OC4Init(TIM_TypeDef* TIMx, TIM_OCInitTypeDef* TIM_OCInitStruct)
 524:../Libraries/STM32F10x_StdPeriph_Driver/src/stm32f10x_tim.c **** {
 21472              		.loc 1 524 0
 21473              		.cfi_startproc
 21474              		@ args = 0, pretend = 0, frame = 16
 21475              		@ frame_needed = 1, uses_anonymous_args = 0
 21476              		@ link register save eliminated.
 21477 0000 80B4     		push	{r7}
 21478              	.LCFI15:
 21479              		.cfi_def_cfa_offset 4
 21480 0002 85B0     		sub	sp, sp, #20
 21481              	.LCFI16:
 21482              		.cfi_def_cfa_offset 24
 21483 0004 00AF     		add	r7, sp, #0
 21484              		.cfi_offset 7, -4
 21485              	.LCFI17:
 21486              		.cfi_def_cfa_register 7
 21487 0006 7860     		str	r0, [r7, #4]
 21488 0008 3960     		str	r1, [r7, #0]
 525:../Libraries/STM32F10x_StdPeriph_Driver/src/stm32f10x_tim.c ****   uint16_t tmpccmrx = 0, tmpccer = 0, tmpcr2 = 0;
 21489              		.loc 1 525 0
 21490 000a 4FF00003 		mov	r3, #0
 21491 000e BB81     		strh	r3, [r7, #12]	@ movhi
 21492 0010 4FF00003 		mov	r3, #0
 21493 0014 7B81     		strh	r3, [r7, #10]	@ movhi
 21494 0016 4FF00003 		mov	r3, #0
 21495 001a FB81     		strh	r3, [r7, #14]	@ movhi
 526:../Libraries/STM32F10x_StdPeriph_Driver/src/stm32f10x_tim.c ****    
 527:../Libraries/STM32F10x_StdPeriph_Driver/src/stm32f10x_tim.c ****   /* Check the parameters */
 528:../Libraries/STM32F10x_StdPeriph_Driver/src/stm32f10x_tim.c ****   assert_param(IS_TIM_LIST3_PERIPH(TIMx)); 
 529:../Libraries/STM32F10x_StdPeriph_Driver/src/stm32f10x_tim.c ****   assert_param(IS_TIM_OC_MODE(TIM_OCInitStruct->TIM_OCMode));
 530:../Libraries/STM32F10x_StdPeriph_Driver/src/stm32f10x_tim.c ****   assert_param(IS_TIM_OUTPUT_STATE(TIM_OCInitStruct->TIM_OutputState));
 531:../Libraries/STM32F10x_StdPeriph_Driver/src/stm32f10x_tim.c ****   assert_param(IS_TIM_OC_POLARITY(TIM_OCInitStruct->TIM_OCPolarity));   
 532:../Libraries/STM32F10x_StdPeriph_Driver/src/stm32f10x_tim.c ****   /* Disable the Channel 2: Reset the CC4E Bit */
 533:../Libraries/STM32F10x_StdPeriph_Driver/src/stm32f10x_tim.c ****   TIMx->CCER &= (uint16_t)(~((uint16_t)TIM_CCER_CC4E));
 21496              		.loc 1 533 0
 21497 001c 7B68     		ldr	r3, [r7, #4]
 21498 001e 1B8C     		ldrh	r3, [r3, #32]	@ movhi
 21499 0020 9BB2     		uxth	r3, r3
 21500 0022 23F48053 		bic	r3, r3, #4096
 21501 0026 9AB2     		uxth	r2, r3
 21502 0028 7B68     		ldr	r3, [r7, #4]
 21503 002a 1A84     		strh	r2, [r3, #32]	@ movhi
 534:../Libraries/STM32F10x_StdPeriph_Driver/src/stm32f10x_tim.c ****   
 535:../Libraries/STM32F10x_StdPeriph_Driver/src/stm32f10x_tim.c ****   /* Get the TIMx CCER register value */
 536:../Libraries/STM32F10x_StdPeriph_Driver/src/stm32f10x_tim.c ****   tmpccer = TIMx->CCER;
 21504              		.loc 1 536 0
 21505 002c 7B68     		ldr	r3, [r7, #4]
 21506 002e 1B8C     		ldrh	r3, [r3, #32]	@ movhi
 21507 0030 7B81     		strh	r3, [r7, #10]	@ movhi
 537:../Libraries/STM32F10x_StdPeriph_Driver/src/stm32f10x_tim.c ****   /* Get the TIMx CR2 register value */
 538:../Libraries/STM32F10x_StdPeriph_Driver/src/stm32f10x_tim.c ****   tmpcr2 =  TIMx->CR2;
 21508              		.loc 1 538 0
 21509 0032 7B68     		ldr	r3, [r7, #4]
 21510 0034 9B88     		ldrh	r3, [r3, #4]	@ movhi
 21511 0036 FB81     		strh	r3, [r7, #14]	@ movhi
 539:../Libraries/STM32F10x_StdPeriph_Driver/src/stm32f10x_tim.c ****   
 540:../Libraries/STM32F10x_StdPeriph_Driver/src/stm32f10x_tim.c ****   /* Get the TIMx CCMR2 register value */
 541:../Libraries/STM32F10x_StdPeriph_Driver/src/stm32f10x_tim.c ****   tmpccmrx = TIMx->CCMR2;
 21512              		.loc 1 541 0
 21513 0038 7B68     		ldr	r3, [r7, #4]
 21514 003a 9B8B     		ldrh	r3, [r3, #28]	@ movhi
 21515 003c BB81     		strh	r3, [r7, #12]	@ movhi
 542:../Libraries/STM32F10x_StdPeriph_Driver/src/stm32f10x_tim.c ****     
 543:../Libraries/STM32F10x_StdPeriph_Driver/src/stm32f10x_tim.c ****   /* Reset the Output Compare mode and Capture/Compare selection Bits */
 544:../Libraries/STM32F10x_StdPeriph_Driver/src/stm32f10x_tim.c ****   tmpccmrx &= (uint16_t)(~((uint16_t)TIM_CCMR2_OC4M));
 21516              		.loc 1 544 0
 21517 003e BB89     		ldrh	r3, [r7, #12]	@ movhi
 21518 0040 23F4E043 		bic	r3, r3, #28672
 21519 0044 BB81     		strh	r3, [r7, #12]	@ movhi
 545:../Libraries/STM32F10x_StdPeriph_Driver/src/stm32f10x_tim.c ****   tmpccmrx &= (uint16_t)(~((uint16_t)TIM_CCMR2_CC4S));
 21520              		.loc 1 545 0
 21521 0046 BB89     		ldrh	r3, [r7, #12]	@ movhi
 21522 0048 23F44073 		bic	r3, r3, #768
 21523 004c BB81     		strh	r3, [r7, #12]	@ movhi
 546:../Libraries/STM32F10x_StdPeriph_Driver/src/stm32f10x_tim.c ****   
 547:../Libraries/STM32F10x_StdPeriph_Driver/src/stm32f10x_tim.c ****   /* Select the Output Compare Mode */
 548:../Libraries/STM32F10x_StdPeriph_Driver/src/stm32f10x_tim.c ****   tmpccmrx |= (uint16_t)(TIM_OCInitStruct->TIM_OCMode << 8);
 21524              		.loc 1 548 0
 21525 004e 3B68     		ldr	r3, [r7, #0]
 21526 0050 1B88     		ldrh	r3, [r3, #0]
 21527 0052 4FEA0323 		lsl	r3, r3, #8
 21528 0056 9AB2     		uxth	r2, r3
 21529 0058 BB89     		ldrh	r3, [r7, #12]	@ movhi
 21530 005a 42EA0303 		orr	r3, r2, r3
 21531 005e BB81     		strh	r3, [r7, #12]	@ movhi
 549:../Libraries/STM32F10x_StdPeriph_Driver/src/stm32f10x_tim.c ****   
 550:../Libraries/STM32F10x_StdPeriph_Driver/src/stm32f10x_tim.c ****   /* Reset the Output Polarity level */
 551:../Libraries/STM32F10x_StdPeriph_Driver/src/stm32f10x_tim.c ****   tmpccer &= (uint16_t)(~((uint16_t)TIM_CCER_CC4P));
 21532              		.loc 1 551 0
 21533 0060 7B89     		ldrh	r3, [r7, #10]	@ movhi
 21534 0062 23F40053 		bic	r3, r3, #8192
 21535 0066 7B81     		strh	r3, [r7, #10]	@ movhi
 552:../Libraries/STM32F10x_StdPeriph_Driver/src/stm32f10x_tim.c ****   /* Set the Output Compare Polarity */
 553:../Libraries/STM32F10x_StdPeriph_Driver/src/stm32f10x_tim.c ****   tmpccer |= (uint16_t)(TIM_OCInitStruct->TIM_OCPolarity << 12);
 21536              		.loc 1 553 0
 21537 0068 3B68     		ldr	r3, [r7, #0]
 21538 006a 1B89     		ldrh	r3, [r3, #8]
 21539 006c 4FEA0333 		lsl	r3, r3, #12
 21540 0070 9AB2     		uxth	r2, r3
 21541 0072 7B89     		ldrh	r3, [r7, #10]	@ movhi
 21542 0074 42EA0303 		orr	r3, r2, r3
 21543 0078 7B81     		strh	r3, [r7, #10]	@ movhi
 554:../Libraries/STM32F10x_StdPeriph_Driver/src/stm32f10x_tim.c ****   
 555:../Libraries/STM32F10x_StdPeriph_Driver/src/stm32f10x_tim.c ****   /* Set the Output State */
 556:../Libraries/STM32F10x_StdPeriph_Driver/src/stm32f10x_tim.c ****   tmpccer |= (uint16_t)(TIM_OCInitStruct->TIM_OutputState << 12);
 21544              		.loc 1 556 0
 21545 007a 3B68     		ldr	r3, [r7, #0]
 21546 007c 5B88     		ldrh	r3, [r3, #2]
 21547 007e 4FEA0333 		lsl	r3, r3, #12
 21548 0082 9AB2     		uxth	r2, r3
 21549 0084 7B89     		ldrh	r3, [r7, #10]	@ movhi
 21550 0086 42EA0303 		orr	r3, r2, r3
 21551 008a 7B81     		strh	r3, [r7, #10]	@ movhi
 557:../Libraries/STM32F10x_StdPeriph_Driver/src/stm32f10x_tim.c ****     
 558:../Libraries/STM32F10x_StdPeriph_Driver/src/stm32f10x_tim.c ****   if((TIMx == TIM1) || (TIMx == TIM8))
 21552              		.loc 1 558 0
 21553 008c 7A68     		ldr	r2, [r7, #4]
 21554 008e 134B     		ldr	r3, .L47
 21555 0090 9A42     		cmp	r2, r3
 21556 0092 03D0     		beq	.L45
 21557              		.loc 1 558 0 is_stmt 0 discriminator 1
 21558 0094 7A68     		ldr	r2, [r7, #4]
 21559 0096 124B     		ldr	r3, .L47+4
 21560 0098 9A42     		cmp	r2, r3
 21561 009a 0CD1     		bne	.L46
 21562              	.L45:
 559:../Libraries/STM32F10x_StdPeriph_Driver/src/stm32f10x_tim.c ****   {
 560:../Libraries/STM32F10x_StdPeriph_Driver/src/stm32f10x_tim.c ****     assert_param(IS_TIM_OCIDLE_STATE(TIM_OCInitStruct->TIM_OCIdleState));
 561:../Libraries/STM32F10x_StdPeriph_Driver/src/stm32f10x_tim.c ****     /* Reset the Output Compare IDLE State */
 562:../Libraries/STM32F10x_StdPeriph_Driver/src/stm32f10x_tim.c ****     tmpcr2 &= (uint16_t)(~((uint16_t)TIM_CR2_OIS4));
 21563              		.loc 1 562 0 is_stmt 1
 21564 009c FB89     		ldrh	r3, [r7, #14]	@ movhi
 21565 009e 23F48043 		bic	r3, r3, #16384
 21566 00a2 FB81     		strh	r3, [r7, #14]	@ movhi
 563:../Libraries/STM32F10x_StdPeriph_Driver/src/stm32f10x_tim.c ****     /* Set the Output Idle state */
 564:../Libraries/STM32F10x_StdPeriph_Driver/src/stm32f10x_tim.c ****     tmpcr2 |= (uint16_t)(TIM_OCInitStruct->TIM_OCIdleState << 6);
 21567              		.loc 1 564 0
 21568 00a4 3B68     		ldr	r3, [r7, #0]
 21569 00a6 9B89     		ldrh	r3, [r3, #12]
 21570 00a8 4FEA8313 		lsl	r3, r3, #6
 21571 00ac 9AB2     		uxth	r2, r3
 21572 00ae FB89     		ldrh	r3, [r7, #14]	@ movhi
 21573 00b0 42EA0303 		orr	r3, r2, r3
 21574 00b4 FB81     		strh	r3, [r7, #14]	@ movhi
 21575              	.L46:
 565:../Libraries/STM32F10x_StdPeriph_Driver/src/stm32f10x_tim.c ****   }
 566:../Libraries/STM32F10x_StdPeriph_Driver/src/stm32f10x_tim.c ****   /* Write to TIMx CR2 */
 567:../Libraries/STM32F10x_StdPeriph_Driver/src/stm32f10x_tim.c ****   TIMx->CR2 = tmpcr2;
 21576              		.loc 1 567 0
 21577 00b6 7B68     		ldr	r3, [r7, #4]
 21578 00b8 FA89     		ldrh	r2, [r7, #14]	@ movhi
 21579 00ba 9A80     		strh	r2, [r3, #4]	@ movhi
 568:../Libraries/STM32F10x_StdPeriph_Driver/src/stm32f10x_tim.c ****   
 569:../Libraries/STM32F10x_StdPeriph_Driver/src/stm32f10x_tim.c ****   /* Write to TIMx CCMR2 */  
 570:../Libraries/STM32F10x_StdPeriph_Driver/src/stm32f10x_tim.c ****   TIMx->CCMR2 = tmpccmrx;
 21580              		.loc 1 570 0
 21581 00bc 7B68     		ldr	r3, [r7, #4]
 21582 00be BA89     		ldrh	r2, [r7, #12]	@ movhi
 21583 00c0 9A83     		strh	r2, [r3, #28]	@ movhi
 571:../Libraries/STM32F10x_StdPeriph_Driver/src/stm32f10x_tim.c **** 
 572:../Libraries/STM32F10x_StdPeriph_Driver/src/stm32f10x_tim.c ****   /* Set the Capture Compare Register value */
 573:../Libraries/STM32F10x_StdPeriph_Driver/src/stm32f10x_tim.c ****   TIMx->CCR4 = TIM_OCInitStruct->TIM_Pulse;
 21584              		.loc 1 573 0
 21585 00c2 3B68     		ldr	r3, [r7, #0]
 21586 00c4 DA88     		ldrh	r2, [r3, #6]
 21587 00c6 7B68     		ldr	r3, [r7, #4]
 21588 00c8 A3F84020 		strh	r2, [r3, #64]	@ movhi
 574:../Libraries/STM32F10x_StdPeriph_Driver/src/stm32f10x_tim.c ****   
 575:../Libraries/STM32F10x_StdPeriph_Driver/src/stm32f10x_tim.c ****   /* Write to TIMx CCER */
 576:../Libraries/STM32F10x_StdPeriph_Driver/src/stm32f10x_tim.c ****   TIMx->CCER = tmpccer;
 21589              		.loc 1 576 0
 21590 00cc 7B68     		ldr	r3, [r7, #4]
 21591 00ce 7A89     		ldrh	r2, [r7, #10]	@ movhi
 21592 00d0 1A84     		strh	r2, [r3, #32]	@ movhi
 577:../Libraries/STM32F10x_StdPeriph_Driver/src/stm32f10x_tim.c **** }
 21593              		.loc 1 577 0
 21594 00d2 07F11407 		add	r7, r7, #20
 21595 00d6 BD46     		mov	sp, r7
 21596 00d8 80BC     		pop	{r7}
 21597 00da 7047     		bx	lr
 21598              	.L48:
 21599              		.align	2
 21600              	.L47:
 21601 00dc 002C0140 		.word	1073818624
 21602 00e0 00340140 		.word	1073820672
 21603              		.cfi_endproc
 21604              	.LFE34:
 21606              		.section	.text.TIM_ICInit,"ax",%progbits
 21607              		.align	2
 21608              		.global	TIM_ICInit
 21609              		.thumb
 21610              		.thumb_func
 21612              	TIM_ICInit:
 21613              	.LFB35:
 578:../Libraries/STM32F10x_StdPeriph_Driver/src/stm32f10x_tim.c **** 
 579:../Libraries/STM32F10x_StdPeriph_Driver/src/stm32f10x_tim.c **** /**
 580:../Libraries/STM32F10x_StdPeriph_Driver/src/stm32f10x_tim.c ****   * @brief  Initializes the TIM peripheral according to the specified
 581:../Libraries/STM32F10x_StdPeriph_Driver/src/stm32f10x_tim.c ****   *         parameters in the TIM_ICInitStruct.
 582:../Libraries/STM32F10x_StdPeriph_Driver/src/stm32f10x_tim.c ****   * @param  TIMx: where x can be  1 to 17 except 6 and 7 to select the TIM peripheral.
 583:../Libraries/STM32F10x_StdPeriph_Driver/src/stm32f10x_tim.c ****   * @param  TIM_ICInitStruct: pointer to a TIM_ICInitTypeDef structure
 584:../Libraries/STM32F10x_StdPeriph_Driver/src/stm32f10x_tim.c ****   *         that contains the configuration information for the specified TIM peripheral.
 585:../Libraries/STM32F10x_StdPeriph_Driver/src/stm32f10x_tim.c ****   * @retval None
 586:../Libraries/STM32F10x_StdPeriph_Driver/src/stm32f10x_tim.c ****   */
 587:../Libraries/STM32F10x_StdPeriph_Driver/src/stm32f10x_tim.c **** void TIM_ICInit(TIM_TypeDef* TIMx, TIM_ICInitTypeDef* TIM_ICInitStruct)
 588:../Libraries/STM32F10x_StdPeriph_Driver/src/stm32f10x_tim.c **** {
 21614              		.loc 1 588 0
 21615              		.cfi_startproc
 21616              		@ args = 0, pretend = 0, frame = 8
 21617              		@ frame_needed = 1, uses_anonymous_args = 0
 21618 0000 80B5     		push	{r7, lr}
 21619              	.LCFI18:
 21620              		.cfi_def_cfa_offset 8
 21621 0002 82B0     		sub	sp, sp, #8
 21622              	.LCFI19:
 21623              		.cfi_def_cfa_offset 16
 21624 0004 00AF     		add	r7, sp, #0
 21625              		.cfi_offset 14, -4
 21626              		.cfi_offset 7, -8
 21627              	.LCFI20:
 21628              		.cfi_def_cfa_register 7
 21629 0006 7860     		str	r0, [r7, #4]
 21630 0008 3960     		str	r1, [r7, #0]
 589:../Libraries/STM32F10x_StdPeriph_Driver/src/stm32f10x_tim.c ****   /* Check the parameters */
 590:../Libraries/STM32F10x_StdPeriph_Driver/src/stm32f10x_tim.c ****   assert_param(IS_TIM_CHANNEL(TIM_ICInitStruct->TIM_Channel));  
 591:../Libraries/STM32F10x_StdPeriph_Driver/src/stm32f10x_tim.c ****   assert_param(IS_TIM_IC_SELECTION(TIM_ICInitStruct->TIM_ICSelection));
 592:../Libraries/STM32F10x_StdPeriph_Driver/src/stm32f10x_tim.c ****   assert_param(IS_TIM_IC_PRESCALER(TIM_ICInitStruct->TIM_ICPrescaler));
 593:../Libraries/STM32F10x_StdPeriph_Driver/src/stm32f10x_tim.c ****   assert_param(IS_TIM_IC_FILTER(TIM_ICInitStruct->TIM_ICFilter));
 594:../Libraries/STM32F10x_StdPeriph_Driver/src/stm32f10x_tim.c ****   
 595:../Libraries/STM32F10x_StdPeriph_Driver/src/stm32f10x_tim.c ****   if((TIMx == TIM1) || (TIMx == TIM8) || (TIMx == TIM2) || (TIMx == TIM3) ||
 596:../Libraries/STM32F10x_StdPeriph_Driver/src/stm32f10x_tim.c ****      (TIMx == TIM4) ||(TIMx == TIM5))
 597:../Libraries/STM32F10x_StdPeriph_Driver/src/stm32f10x_tim.c ****   {
 598:../Libraries/STM32F10x_StdPeriph_Driver/src/stm32f10x_tim.c ****     assert_param(IS_TIM_IC_POLARITY(TIM_ICInitStruct->TIM_ICPolarity));
 599:../Libraries/STM32F10x_StdPeriph_Driver/src/stm32f10x_tim.c ****   }
 600:../Libraries/STM32F10x_StdPeriph_Driver/src/stm32f10x_tim.c ****   else
 601:../Libraries/STM32F10x_StdPeriph_Driver/src/stm32f10x_tim.c ****   {
 602:../Libraries/STM32F10x_StdPeriph_Driver/src/stm32f10x_tim.c ****     assert_param(IS_TIM_IC_POLARITY_LITE(TIM_ICInitStruct->TIM_ICPolarity));
 603:../Libraries/STM32F10x_StdPeriph_Driver/src/stm32f10x_tim.c ****   }
 604:../Libraries/STM32F10x_StdPeriph_Driver/src/stm32f10x_tim.c ****   if (TIM_ICInitStruct->TIM_Channel == TIM_Channel_1)
 21631              		.loc 1 604 0
 21632 000a 3B68     		ldr	r3, [r7, #0]
 21633 000c 1B88     		ldrh	r3, [r3, #0]
 21634 000e 002B     		cmp	r3, #0
 21635 0010 0FD1     		bne	.L50
 605:../Libraries/STM32F10x_StdPeriph_Driver/src/stm32f10x_tim.c ****   {
 606:../Libraries/STM32F10x_StdPeriph_Driver/src/stm32f10x_tim.c ****     assert_param(IS_TIM_LIST8_PERIPH(TIMx));
 607:../Libraries/STM32F10x_StdPeriph_Driver/src/stm32f10x_tim.c ****     /* TI1 Configuration */
 608:../Libraries/STM32F10x_StdPeriph_Driver/src/stm32f10x_tim.c ****     TI1_Config(TIMx, TIM_ICInitStruct->TIM_ICPolarity,
 21636              		.loc 1 608 0
 21637 0012 3B68     		ldr	r3, [r7, #0]
 21638 0014 5988     		ldrh	r1, [r3, #2]
 609:../Libraries/STM32F10x_StdPeriph_Driver/src/stm32f10x_tim.c ****                TIM_ICInitStruct->TIM_ICSelection,
 21639              		.loc 1 609 0
 21640 0016 3B68     		ldr	r3, [r7, #0]
 608:../Libraries/STM32F10x_StdPeriph_Driver/src/stm32f10x_tim.c ****     TI1_Config(TIMx, TIM_ICInitStruct->TIM_ICPolarity,
 21641              		.loc 1 608 0
 21642 0018 9A88     		ldrh	r2, [r3, #4]
 610:../Libraries/STM32F10x_StdPeriph_Driver/src/stm32f10x_tim.c ****                TIM_ICInitStruct->TIM_ICFilter);
 21643              		.loc 1 610 0
 21644 001a 3B68     		ldr	r3, [r7, #0]
 608:../Libraries/STM32F10x_StdPeriph_Driver/src/stm32f10x_tim.c ****     TI1_Config(TIMx, TIM_ICInitStruct->TIM_ICPolarity,
 21645              		.loc 1 608 0
 21646 001c 1B89     		ldrh	r3, [r3, #8]
 21647 001e 7868     		ldr	r0, [r7, #4]
 21648 0020 FFF7FEFF 		bl	TI1_Config
 611:../Libraries/STM32F10x_StdPeriph_Driver/src/stm32f10x_tim.c ****     /* Set the Input Capture Prescaler value */
 612:../Libraries/STM32F10x_StdPeriph_Driver/src/stm32f10x_tim.c ****     TIM_SetIC1Prescaler(TIMx, TIM_ICInitStruct->TIM_ICPrescaler);
 21649              		.loc 1 612 0
 21650 0024 3B68     		ldr	r3, [r7, #0]
 21651 0026 DB88     		ldrh	r3, [r3, #6]
 21652 0028 7868     		ldr	r0, [r7, #4]
 21653 002a 1946     		mov	r1, r3
 21654 002c FFF7FEFF 		bl	TIM_SetIC1Prescaler
 21655 0030 36E0     		b	.L49
 21656              	.L50:
 613:../Libraries/STM32F10x_StdPeriph_Driver/src/stm32f10x_tim.c ****   }
 614:../Libraries/STM32F10x_StdPeriph_Driver/src/stm32f10x_tim.c ****   else if (TIM_ICInitStruct->TIM_Channel == TIM_Channel_2)
 21657              		.loc 1 614 0
 21658 0032 3B68     		ldr	r3, [r7, #0]
 21659 0034 1B88     		ldrh	r3, [r3, #0]
 21660 0036 042B     		cmp	r3, #4
 21661 0038 0FD1     		bne	.L52
 615:../Libraries/STM32F10x_StdPeriph_Driver/src/stm32f10x_tim.c ****   {
 616:../Libraries/STM32F10x_StdPeriph_Driver/src/stm32f10x_tim.c ****     assert_param(IS_TIM_LIST6_PERIPH(TIMx));
 617:../Libraries/STM32F10x_StdPeriph_Driver/src/stm32f10x_tim.c ****     /* TI2 Configuration */
 618:../Libraries/STM32F10x_StdPeriph_Driver/src/stm32f10x_tim.c ****     TI2_Config(TIMx, TIM_ICInitStruct->TIM_ICPolarity,
 21662              		.loc 1 618 0
 21663 003a 3B68     		ldr	r3, [r7, #0]
 21664 003c 5988     		ldrh	r1, [r3, #2]
 619:../Libraries/STM32F10x_StdPeriph_Driver/src/stm32f10x_tim.c ****                TIM_ICInitStruct->TIM_ICSelection,
 21665              		.loc 1 619 0
 21666 003e 3B68     		ldr	r3, [r7, #0]
 618:../Libraries/STM32F10x_StdPeriph_Driver/src/stm32f10x_tim.c ****     TI2_Config(TIMx, TIM_ICInitStruct->TIM_ICPolarity,
 21667              		.loc 1 618 0
 21668 0040 9A88     		ldrh	r2, [r3, #4]
 620:../Libraries/STM32F10x_StdPeriph_Driver/src/stm32f10x_tim.c ****                TIM_ICInitStruct->TIM_ICFilter);
 21669              		.loc 1 620 0
 21670 0042 3B68     		ldr	r3, [r7, #0]
 618:../Libraries/STM32F10x_StdPeriph_Driver/src/stm32f10x_tim.c ****     TI2_Config(TIMx, TIM_ICInitStruct->TIM_ICPolarity,
 21671              		.loc 1 618 0
 21672 0044 1B89     		ldrh	r3, [r3, #8]
 21673 0046 7868     		ldr	r0, [r7, #4]
 21674 0048 FFF7FEFF 		bl	TI2_Config
 621:../Libraries/STM32F10x_StdPeriph_Driver/src/stm32f10x_tim.c ****     /* Set the Input Capture Prescaler value */
 622:../Libraries/STM32F10x_StdPeriph_Driver/src/stm32f10x_tim.c ****     TIM_SetIC2Prescaler(TIMx, TIM_ICInitStruct->TIM_ICPrescaler);
 21675              		.loc 1 622 0
 21676 004c 3B68     		ldr	r3, [r7, #0]
 21677 004e DB88     		ldrh	r3, [r3, #6]
 21678 0050 7868     		ldr	r0, [r7, #4]
 21679 0052 1946     		mov	r1, r3
 21680 0054 FFF7FEFF 		bl	TIM_SetIC2Prescaler
 21681 0058 22E0     		b	.L49
 21682              	.L52:
 623:../Libraries/STM32F10x_StdPeriph_Driver/src/stm32f10x_tim.c ****   }
 624:../Libraries/STM32F10x_StdPeriph_Driver/src/stm32f10x_tim.c ****   else if (TIM_ICInitStruct->TIM_Channel == TIM_Channel_3)
 21683              		.loc 1 624 0
 21684 005a 3B68     		ldr	r3, [r7, #0]
 21685 005c 1B88     		ldrh	r3, [r3, #0]
 21686 005e 082B     		cmp	r3, #8
 21687 0060 0FD1     		bne	.L53
 625:../Libraries/STM32F10x_StdPeriph_Driver/src/stm32f10x_tim.c ****   {
 626:../Libraries/STM32F10x_StdPeriph_Driver/src/stm32f10x_tim.c ****     assert_param(IS_TIM_LIST3_PERIPH(TIMx));
 627:../Libraries/STM32F10x_StdPeriph_Driver/src/stm32f10x_tim.c ****     /* TI3 Configuration */
 628:../Libraries/STM32F10x_StdPeriph_Driver/src/stm32f10x_tim.c ****     TI3_Config(TIMx,  TIM_ICInitStruct->TIM_ICPolarity,
 21688              		.loc 1 628 0
 21689 0062 3B68     		ldr	r3, [r7, #0]
 21690 0064 5988     		ldrh	r1, [r3, #2]
 629:../Libraries/STM32F10x_StdPeriph_Driver/src/stm32f10x_tim.c ****                TIM_ICInitStruct->TIM_ICSelection,
 21691              		.loc 1 629 0
 21692 0066 3B68     		ldr	r3, [r7, #0]
 628:../Libraries/STM32F10x_StdPeriph_Driver/src/stm32f10x_tim.c ****     TI3_Config(TIMx,  TIM_ICInitStruct->TIM_ICPolarity,
 21693              		.loc 1 628 0
 21694 0068 9A88     		ldrh	r2, [r3, #4]
 630:../Libraries/STM32F10x_StdPeriph_Driver/src/stm32f10x_tim.c ****                TIM_ICInitStruct->TIM_ICFilter);
 21695              		.loc 1 630 0
 21696 006a 3B68     		ldr	r3, [r7, #0]
 628:../Libraries/STM32F10x_StdPeriph_Driver/src/stm32f10x_tim.c ****     TI3_Config(TIMx,  TIM_ICInitStruct->TIM_ICPolarity,
 21697              		.loc 1 628 0
 21698 006c 1B89     		ldrh	r3, [r3, #8]
 21699 006e 7868     		ldr	r0, [r7, #4]
 21700 0070 FFF7FEFF 		bl	TI3_Config
 631:../Libraries/STM32F10x_StdPeriph_Driver/src/stm32f10x_tim.c ****     /* Set the Input Capture Prescaler value */
 632:../Libraries/STM32F10x_StdPeriph_Driver/src/stm32f10x_tim.c ****     TIM_SetIC3Prescaler(TIMx, TIM_ICInitStruct->TIM_ICPrescaler);
 21701              		.loc 1 632 0
 21702 0074 3B68     		ldr	r3, [r7, #0]
 21703 0076 DB88     		ldrh	r3, [r3, #6]
 21704 0078 7868     		ldr	r0, [r7, #4]
 21705 007a 1946     		mov	r1, r3
 21706 007c FFF7FEFF 		bl	TIM_SetIC3Prescaler
 21707 0080 0EE0     		b	.L49
 21708              	.L53:
 633:../Libraries/STM32F10x_StdPeriph_Driver/src/stm32f10x_tim.c ****   }
 634:../Libraries/STM32F10x_StdPeriph_Driver/src/stm32f10x_tim.c ****   else
 635:../Libraries/STM32F10x_StdPeriph_Driver/src/stm32f10x_tim.c ****   {
 636:../Libraries/STM32F10x_StdPeriph_Driver/src/stm32f10x_tim.c ****     assert_param(IS_TIM_LIST3_PERIPH(TIMx));
 637:../Libraries/STM32F10x_StdPeriph_Driver/src/stm32f10x_tim.c ****     /* TI4 Configuration */
 638:../Libraries/STM32F10x_StdPeriph_Driver/src/stm32f10x_tim.c ****     TI4_Config(TIMx, TIM_ICInitStruct->TIM_ICPolarity,
 21709              		.loc 1 638 0
 21710 0082 3B68     		ldr	r3, [r7, #0]
 21711 0084 5988     		ldrh	r1, [r3, #2]
 639:../Libraries/STM32F10x_StdPeriph_Driver/src/stm32f10x_tim.c ****                TIM_ICInitStruct->TIM_ICSelection,
 21712              		.loc 1 639 0
 21713 0086 3B68     		ldr	r3, [r7, #0]
 638:../Libraries/STM32F10x_StdPeriph_Driver/src/stm32f10x_tim.c ****     TI4_Config(TIMx, TIM_ICInitStruct->TIM_ICPolarity,
 21714              		.loc 1 638 0
 21715 0088 9A88     		ldrh	r2, [r3, #4]
 640:../Libraries/STM32F10x_StdPeriph_Driver/src/stm32f10x_tim.c ****                TIM_ICInitStruct->TIM_ICFilter);
 21716              		.loc 1 640 0
 21717 008a 3B68     		ldr	r3, [r7, #0]
 638:../Libraries/STM32F10x_StdPeriph_Driver/src/stm32f10x_tim.c ****     TI4_Config(TIMx, TIM_ICInitStruct->TIM_ICPolarity,
 21718              		.loc 1 638 0
 21719 008c 1B89     		ldrh	r3, [r3, #8]
 21720 008e 7868     		ldr	r0, [r7, #4]
 21721 0090 FFF7FEFF 		bl	TI4_Config
 641:../Libraries/STM32F10x_StdPeriph_Driver/src/stm32f10x_tim.c ****     /* Set the Input Capture Prescaler value */
 642:../Libraries/STM32F10x_StdPeriph_Driver/src/stm32f10x_tim.c ****     TIM_SetIC4Prescaler(TIMx, TIM_ICInitStruct->TIM_ICPrescaler);
 21722              		.loc 1 642 0
 21723 0094 3B68     		ldr	r3, [r7, #0]
 21724 0096 DB88     		ldrh	r3, [r3, #6]
 21725 0098 7868     		ldr	r0, [r7, #4]
 21726 009a 1946     		mov	r1, r3
 21727 009c FFF7FEFF 		bl	TIM_SetIC4Prescaler
 21728              	.L49:
 643:../Libraries/STM32F10x_StdPeriph_Driver/src/stm32f10x_tim.c ****   }
 644:../Libraries/STM32F10x_StdPeriph_Driver/src/stm32f10x_tim.c **** }
 21729              		.loc 1 644 0
 21730 00a0 07F10807 		add	r7, r7, #8
 21731 00a4 BD46     		mov	sp, r7
 21732 00a6 80BD     		pop	{r7, pc}
 21733              		.cfi_endproc
 21734              	.LFE35:
 21736              		.section	.text.TIM_PWMIConfig,"ax",%progbits
 21737              		.align	2
 21738              		.global	TIM_PWMIConfig
 21739              		.thumb
 21740              		.thumb_func
 21742              	TIM_PWMIConfig:
 21743              	.LFB36:
 645:../Libraries/STM32F10x_StdPeriph_Driver/src/stm32f10x_tim.c **** 
 646:../Libraries/STM32F10x_StdPeriph_Driver/src/stm32f10x_tim.c **** /**
 647:../Libraries/STM32F10x_StdPeriph_Driver/src/stm32f10x_tim.c ****   * @brief  Configures the TIM peripheral according to the specified
 648:../Libraries/STM32F10x_StdPeriph_Driver/src/stm32f10x_tim.c ****   *         parameters in the TIM_ICInitStruct to measure an external PWM signal.
 649:../Libraries/STM32F10x_StdPeriph_Driver/src/stm32f10x_tim.c ****   * @param  TIMx: where x can be  1, 2, 3, 4, 5, 8, 9, 12 or 15 to select the TIM peripheral.
 650:../Libraries/STM32F10x_StdPeriph_Driver/src/stm32f10x_tim.c ****   * @param  TIM_ICInitStruct: pointer to a TIM_ICInitTypeDef structure
 651:../Libraries/STM32F10x_StdPeriph_Driver/src/stm32f10x_tim.c ****   *         that contains the configuration information for the specified TIM peripheral.
 652:../Libraries/STM32F10x_StdPeriph_Driver/src/stm32f10x_tim.c ****   * @retval None
 653:../Libraries/STM32F10x_StdPeriph_Driver/src/stm32f10x_tim.c ****   */
 654:../Libraries/STM32F10x_StdPeriph_Driver/src/stm32f10x_tim.c **** void TIM_PWMIConfig(TIM_TypeDef* TIMx, TIM_ICInitTypeDef* TIM_ICInitStruct)
 655:../Libraries/STM32F10x_StdPeriph_Driver/src/stm32f10x_tim.c **** {
 21744              		.loc 1 655 0
 21745              		.cfi_startproc
 21746              		@ args = 0, pretend = 0, frame = 16
 21747              		@ frame_needed = 1, uses_anonymous_args = 0
 21748 0000 80B5     		push	{r7, lr}
 21749              	.LCFI21:
 21750              		.cfi_def_cfa_offset 8
 21751 0002 84B0     		sub	sp, sp, #16
 21752              	.LCFI22:
 21753              		.cfi_def_cfa_offset 24
 21754 0004 00AF     		add	r7, sp, #0
 21755              		.cfi_offset 14, -4
 21756              		.cfi_offset 7, -8
 21757              	.LCFI23:
 21758              		.cfi_def_cfa_register 7
 21759 0006 7860     		str	r0, [r7, #4]
 21760 0008 3960     		str	r1, [r7, #0]
 656:../Libraries/STM32F10x_StdPeriph_Driver/src/stm32f10x_tim.c ****   uint16_t icoppositepolarity = TIM_ICPolarity_Rising;
 21761              		.loc 1 656 0
 21762 000a 4FF00003 		mov	r3, #0
 21763 000e FB81     		strh	r3, [r7, #14]	@ movhi
 657:../Libraries/STM32F10x_StdPeriph_Driver/src/stm32f10x_tim.c ****   uint16_t icoppositeselection = TIM_ICSelection_DirectTI;
 21764              		.loc 1 657 0
 21765 0010 4FF00103 		mov	r3, #1
 21766 0014 BB81     		strh	r3, [r7, #12]	@ movhi
 658:../Libraries/STM32F10x_StdPeriph_Driver/src/stm32f10x_tim.c ****   /* Check the parameters */
 659:../Libraries/STM32F10x_StdPeriph_Driver/src/stm32f10x_tim.c ****   assert_param(IS_TIM_LIST6_PERIPH(TIMx));
 660:../Libraries/STM32F10x_StdPeriph_Driver/src/stm32f10x_tim.c ****   /* Select the Opposite Input Polarity */
 661:../Libraries/STM32F10x_StdPeriph_Driver/src/stm32f10x_tim.c ****   if (TIM_ICInitStruct->TIM_ICPolarity == TIM_ICPolarity_Rising)
 21767              		.loc 1 661 0
 21768 0016 3B68     		ldr	r3, [r7, #0]
 21769 0018 5B88     		ldrh	r3, [r3, #2]
 21770 001a 002B     		cmp	r3, #0
 21771 001c 03D1     		bne	.L55
 662:../Libraries/STM32F10x_StdPeriph_Driver/src/stm32f10x_tim.c ****   {
 663:../Libraries/STM32F10x_StdPeriph_Driver/src/stm32f10x_tim.c ****     icoppositepolarity = TIM_ICPolarity_Falling;
 21772              		.loc 1 663 0
 21773 001e 4FF00203 		mov	r3, #2
 21774 0022 FB81     		strh	r3, [r7, #14]	@ movhi
 21775 0024 02E0     		b	.L56
 21776              	.L55:
 664:../Libraries/STM32F10x_StdPeriph_Driver/src/stm32f10x_tim.c ****   }
 665:../Libraries/STM32F10x_StdPeriph_Driver/src/stm32f10x_tim.c ****   else
 666:../Libraries/STM32F10x_StdPeriph_Driver/src/stm32f10x_tim.c ****   {
 667:../Libraries/STM32F10x_StdPeriph_Driver/src/stm32f10x_tim.c ****     icoppositepolarity = TIM_ICPolarity_Rising;
 21777              		.loc 1 667 0
 21778 0026 4FF00003 		mov	r3, #0
 21779 002a FB81     		strh	r3, [r7, #14]	@ movhi
 21780              	.L56:
 668:../Libraries/STM32F10x_StdPeriph_Driver/src/stm32f10x_tim.c ****   }
 669:../Libraries/STM32F10x_StdPeriph_Driver/src/stm32f10x_tim.c ****   /* Select the Opposite Input */
 670:../Libraries/STM32F10x_StdPeriph_Driver/src/stm32f10x_tim.c ****   if (TIM_ICInitStruct->TIM_ICSelection == TIM_ICSelection_DirectTI)
 21781              		.loc 1 670 0
 21782 002c 3B68     		ldr	r3, [r7, #0]
 21783 002e 9B88     		ldrh	r3, [r3, #4]
 21784 0030 012B     		cmp	r3, #1
 21785 0032 03D1     		bne	.L57
 671:../Libraries/STM32F10x_StdPeriph_Driver/src/stm32f10x_tim.c ****   {
 672:../Libraries/STM32F10x_StdPeriph_Driver/src/stm32f10x_tim.c ****     icoppositeselection = TIM_ICSelection_IndirectTI;
 21786              		.loc 1 672 0
 21787 0034 4FF00203 		mov	r3, #2
 21788 0038 BB81     		strh	r3, [r7, #12]	@ movhi
 21789 003a 02E0     		b	.L58
 21790              	.L57:
 673:../Libraries/STM32F10x_StdPeriph_Driver/src/stm32f10x_tim.c ****   }
 674:../Libraries/STM32F10x_StdPeriph_Driver/src/stm32f10x_tim.c ****   else
 675:../Libraries/STM32F10x_StdPeriph_Driver/src/stm32f10x_tim.c ****   {
 676:../Libraries/STM32F10x_StdPeriph_Driver/src/stm32f10x_tim.c ****     icoppositeselection = TIM_ICSelection_DirectTI;
 21791              		.loc 1 676 0
 21792 003c 4FF00103 		mov	r3, #1
 21793 0040 BB81     		strh	r3, [r7, #12]	@ movhi
 21794              	.L58:
 677:../Libraries/STM32F10x_StdPeriph_Driver/src/stm32f10x_tim.c ****   }
 678:../Libraries/STM32F10x_StdPeriph_Driver/src/stm32f10x_tim.c ****   if (TIM_ICInitStruct->TIM_Channel == TIM_Channel_1)
 21795              		.loc 1 678 0
 21796 0042 3B68     		ldr	r3, [r7, #0]
 21797 0044 1B88     		ldrh	r3, [r3, #0]
 21798 0046 002B     		cmp	r3, #0
 21799 0048 1CD1     		bne	.L59
 679:../Libraries/STM32F10x_StdPeriph_Driver/src/stm32f10x_tim.c ****   {
 680:../Libraries/STM32F10x_StdPeriph_Driver/src/stm32f10x_tim.c ****     /* TI1 Configuration */
 681:../Libraries/STM32F10x_StdPeriph_Driver/src/stm32f10x_tim.c ****     TI1_Config(TIMx, TIM_ICInitStruct->TIM_ICPolarity, TIM_ICInitStruct->TIM_ICSelection,
 21800              		.loc 1 681 0
 21801 004a 3B68     		ldr	r3, [r7, #0]
 21802 004c 5988     		ldrh	r1, [r3, #2]
 21803 004e 3B68     		ldr	r3, [r7, #0]
 21804 0050 9A88     		ldrh	r2, [r3, #4]
 682:../Libraries/STM32F10x_StdPeriph_Driver/src/stm32f10x_tim.c ****                TIM_ICInitStruct->TIM_ICFilter);
 21805              		.loc 1 682 0
 21806 0052 3B68     		ldr	r3, [r7, #0]
 681:../Libraries/STM32F10x_StdPeriph_Driver/src/stm32f10x_tim.c ****     TI1_Config(TIMx, TIM_ICInitStruct->TIM_ICPolarity, TIM_ICInitStruct->TIM_ICSelection,
 21807              		.loc 1 681 0
 21808 0054 1B89     		ldrh	r3, [r3, #8]
 21809 0056 7868     		ldr	r0, [r7, #4]
 21810 0058 FFF7FEFF 		bl	TI1_Config
 683:../Libraries/STM32F10x_StdPeriph_Driver/src/stm32f10x_tim.c ****     /* Set the Input Capture Prescaler value */
 684:../Libraries/STM32F10x_StdPeriph_Driver/src/stm32f10x_tim.c ****     TIM_SetIC1Prescaler(TIMx, TIM_ICInitStruct->TIM_ICPrescaler);
 21811              		.loc 1 684 0
 21812 005c 3B68     		ldr	r3, [r7, #0]
 21813 005e DB88     		ldrh	r3, [r3, #6]
 21814 0060 7868     		ldr	r0, [r7, #4]
 21815 0062 1946     		mov	r1, r3
 21816 0064 FFF7FEFF 		bl	TIM_SetIC1Prescaler
 685:../Libraries/STM32F10x_StdPeriph_Driver/src/stm32f10x_tim.c ****     /* TI2 Configuration */
 686:../Libraries/STM32F10x_StdPeriph_Driver/src/stm32f10x_tim.c ****     TI2_Config(TIMx, icoppositepolarity, icoppositeselection, TIM_ICInitStruct->TIM_ICFilter);
 21817              		.loc 1 686 0
 21818 0068 3B68     		ldr	r3, [r7, #0]
 21819 006a 1B89     		ldrh	r3, [r3, #8]
 21820 006c F989     		ldrh	r1, [r7, #14]
 21821 006e BA89     		ldrh	r2, [r7, #12]
 21822 0070 7868     		ldr	r0, [r7, #4]
 21823 0072 FFF7FEFF 		bl	TI2_Config
 687:../Libraries/STM32F10x_StdPeriph_Driver/src/stm32f10x_tim.c ****     /* Set the Input Capture Prescaler value */
 688:../Libraries/STM32F10x_StdPeriph_Driver/src/stm32f10x_tim.c ****     TIM_SetIC2Prescaler(TIMx, TIM_ICInitStruct->TIM_ICPrescaler);
 21824              		.loc 1 688 0
 21825 0076 3B68     		ldr	r3, [r7, #0]
 21826 0078 DB88     		ldrh	r3, [r3, #6]
 21827 007a 7868     		ldr	r0, [r7, #4]
 21828 007c 1946     		mov	r1, r3
 21829 007e FFF7FEFF 		bl	TIM_SetIC2Prescaler
 21830 0082 1BE0     		b	.L54
 21831              	.L59:
 689:../Libraries/STM32F10x_StdPeriph_Driver/src/stm32f10x_tim.c ****   }
 690:../Libraries/STM32F10x_StdPeriph_Driver/src/stm32f10x_tim.c ****   else
 691:../Libraries/STM32F10x_StdPeriph_Driver/src/stm32f10x_tim.c ****   { 
 692:../Libraries/STM32F10x_StdPeriph_Driver/src/stm32f10x_tim.c ****     /* TI2 Configuration */
 693:../Libraries/STM32F10x_StdPeriph_Driver/src/stm32f10x_tim.c ****     TI2_Config(TIMx, TIM_ICInitStruct->TIM_ICPolarity, TIM_ICInitStruct->TIM_ICSelection,
 21832              		.loc 1 693 0
 21833 0084 3B68     		ldr	r3, [r7, #0]
 21834 0086 5988     		ldrh	r1, [r3, #2]
 21835 0088 3B68     		ldr	r3, [r7, #0]
 21836 008a 9A88     		ldrh	r2, [r3, #4]
 694:../Libraries/STM32F10x_StdPeriph_Driver/src/stm32f10x_tim.c ****                TIM_ICInitStruct->TIM_ICFilter);
 21837              		.loc 1 694 0
 21838 008c 3B68     		ldr	r3, [r7, #0]
 693:../Libraries/STM32F10x_StdPeriph_Driver/src/stm32f10x_tim.c ****     TI2_Config(TIMx, TIM_ICInitStruct->TIM_ICPolarity, TIM_ICInitStruct->TIM_ICSelection,
 21839              		.loc 1 693 0
 21840 008e 1B89     		ldrh	r3, [r3, #8]
 21841 0090 7868     		ldr	r0, [r7, #4]
 21842 0092 FFF7FEFF 		bl	TI2_Config
 695:../Libraries/STM32F10x_StdPeriph_Driver/src/stm32f10x_tim.c ****     /* Set the Input Capture Prescaler value */
 696:../Libraries/STM32F10x_StdPeriph_Driver/src/stm32f10x_tim.c ****     TIM_SetIC2Prescaler(TIMx, TIM_ICInitStruct->TIM_ICPrescaler);
 21843              		.loc 1 696 0
 21844 0096 3B68     		ldr	r3, [r7, #0]
 21845 0098 DB88     		ldrh	r3, [r3, #6]
 21846 009a 7868     		ldr	r0, [r7, #4]
 21847 009c 1946     		mov	r1, r3
 21848 009e FFF7FEFF 		bl	TIM_SetIC2Prescaler
 697:../Libraries/STM32F10x_StdPeriph_Driver/src/stm32f10x_tim.c ****     /* TI1 Configuration */
 698:../Libraries/STM32F10x_StdPeriph_Driver/src/stm32f10x_tim.c ****     TI1_Config(TIMx, icoppositepolarity, icoppositeselection, TIM_ICInitStruct->TIM_ICFilter);
 21849              		.loc 1 698 0
 21850 00a2 3B68     		ldr	r3, [r7, #0]
 21851 00a4 1B89     		ldrh	r3, [r3, #8]
 21852 00a6 F989     		ldrh	r1, [r7, #14]
 21853 00a8 BA89     		ldrh	r2, [r7, #12]
 21854 00aa 7868     		ldr	r0, [r7, #4]
 21855 00ac FFF7FEFF 		bl	TI1_Config
 699:../Libraries/STM32F10x_StdPeriph_Driver/src/stm32f10x_tim.c ****     /* Set the Input Capture Prescaler value */
 700:../Libraries/STM32F10x_StdPeriph_Driver/src/stm32f10x_tim.c ****     TIM_SetIC1Prescaler(TIMx, TIM_ICInitStruct->TIM_ICPrescaler);
 21856              		.loc 1 700 0
 21857 00b0 3B68     		ldr	r3, [r7, #0]
 21858 00b2 DB88     		ldrh	r3, [r3, #6]
 21859 00b4 7868     		ldr	r0, [r7, #4]
 21860 00b6 1946     		mov	r1, r3
 21861 00b8 FFF7FEFF 		bl	TIM_SetIC1Prescaler
 21862              	.L54:
 701:../Libraries/STM32F10x_StdPeriph_Driver/src/stm32f10x_tim.c ****   }
 702:../Libraries/STM32F10x_StdPeriph_Driver/src/stm32f10x_tim.c **** }
 21863              		.loc 1 702 0
 21864 00bc 07F11007 		add	r7, r7, #16
 21865 00c0 BD46     		mov	sp, r7
 21866 00c2 80BD     		pop	{r7, pc}
 21867              		.cfi_endproc
 21868              	.LFE36:
 21870              		.section	.text.TIM_BDTRConfig,"ax",%progbits
 21871              		.align	2
 21872              		.global	TIM_BDTRConfig
 21873              		.thumb
 21874              		.thumb_func
 21876              	TIM_BDTRConfig:
 21877              	.LFB37:
 703:../Libraries/STM32F10x_StdPeriph_Driver/src/stm32f10x_tim.c **** 
 704:../Libraries/STM32F10x_StdPeriph_Driver/src/stm32f10x_tim.c **** /**
 705:../Libraries/STM32F10x_StdPeriph_Driver/src/stm32f10x_tim.c ****   * @brief  Configures the: Break feature, dead time, Lock level, the OSSI,
 706:../Libraries/STM32F10x_StdPeriph_Driver/src/stm32f10x_tim.c ****   *         the OSSR State and the AOE(automatic output enable).
 707:../Libraries/STM32F10x_StdPeriph_Driver/src/stm32f10x_tim.c ****   * @param  TIMx: where x can be  1 or 8 to select the TIM 
 708:../Libraries/STM32F10x_StdPeriph_Driver/src/stm32f10x_tim.c ****   * @param  TIM_BDTRInitStruct: pointer to a TIM_BDTRInitTypeDef structure that
 709:../Libraries/STM32F10x_StdPeriph_Driver/src/stm32f10x_tim.c ****   *         contains the BDTR Register configuration  information for the TIM peripheral.
 710:../Libraries/STM32F10x_StdPeriph_Driver/src/stm32f10x_tim.c ****   * @retval None
 711:../Libraries/STM32F10x_StdPeriph_Driver/src/stm32f10x_tim.c ****   */
 712:../Libraries/STM32F10x_StdPeriph_Driver/src/stm32f10x_tim.c **** void TIM_BDTRConfig(TIM_TypeDef* TIMx, TIM_BDTRInitTypeDef *TIM_BDTRInitStruct)
 713:../Libraries/STM32F10x_StdPeriph_Driver/src/stm32f10x_tim.c **** {
 21878              		.loc 1 713 0
 21879              		.cfi_startproc
 21880              		@ args = 0, pretend = 0, frame = 8
 21881              		@ frame_needed = 1, uses_anonymous_args = 0
 21882              		@ link register save eliminated.
 21883 0000 80B4     		push	{r7}
 21884              	.LCFI24:
 21885              		.cfi_def_cfa_offset 4
 21886 0002 83B0     		sub	sp, sp, #12
 21887              	.LCFI25:
 21888              		.cfi_def_cfa_offset 16
 21889 0004 00AF     		add	r7, sp, #0
 21890              		.cfi_offset 7, -4
 21891              	.LCFI26:
 21892              		.cfi_def_cfa_register 7
 21893 0006 7860     		str	r0, [r7, #4]
 21894 0008 3960     		str	r1, [r7, #0]
 714:../Libraries/STM32F10x_StdPeriph_Driver/src/stm32f10x_tim.c ****   /* Check the parameters */
 715:../Libraries/STM32F10x_StdPeriph_Driver/src/stm32f10x_tim.c ****   assert_param(IS_TIM_LIST2_PERIPH(TIMx));
 716:../Libraries/STM32F10x_StdPeriph_Driver/src/stm32f10x_tim.c ****   assert_param(IS_TIM_OSSR_STATE(TIM_BDTRInitStruct->TIM_OSSRState));
 717:../Libraries/STM32F10x_StdPeriph_Driver/src/stm32f10x_tim.c ****   assert_param(IS_TIM_OSSI_STATE(TIM_BDTRInitStruct->TIM_OSSIState));
 718:../Libraries/STM32F10x_StdPeriph_Driver/src/stm32f10x_tim.c ****   assert_param(IS_TIM_LOCK_LEVEL(TIM_BDTRInitStruct->TIM_LOCKLevel));
 719:../Libraries/STM32F10x_StdPeriph_Driver/src/stm32f10x_tim.c ****   assert_param(IS_TIM_BREAK_STATE(TIM_BDTRInitStruct->TIM_Break));
 720:../Libraries/STM32F10x_StdPeriph_Driver/src/stm32f10x_tim.c ****   assert_param(IS_TIM_BREAK_POLARITY(TIM_BDTRInitStruct->TIM_BreakPolarity));
 721:../Libraries/STM32F10x_StdPeriph_Driver/src/stm32f10x_tim.c ****   assert_param(IS_TIM_AUTOMATIC_OUTPUT_STATE(TIM_BDTRInitStruct->TIM_AutomaticOutput));
 722:../Libraries/STM32F10x_StdPeriph_Driver/src/stm32f10x_tim.c ****   /* Set the Lock level, the Break enable Bit and the Ploarity, the OSSR State,
 723:../Libraries/STM32F10x_StdPeriph_Driver/src/stm32f10x_tim.c ****      the OSSI State, the dead time value and the Automatic Output Enable Bit */
 724:../Libraries/STM32F10x_StdPeriph_Driver/src/stm32f10x_tim.c ****   TIMx->BDTR = (uint32_t)TIM_BDTRInitStruct->TIM_OSSRState | TIM_BDTRInitStruct->TIM_OSSIState |
 21895              		.loc 1 724 0
 21896 000a 3B68     		ldr	r3, [r7, #0]
 21897 000c 1A88     		ldrh	r2, [r3, #0]
 21898 000e 3B68     		ldr	r3, [r7, #0]
 21899 0010 5B88     		ldrh	r3, [r3, #2]
 21900 0012 42EA0303 		orr	r3, r2, r3
 21901 0016 9AB2     		uxth	r2, r3
 725:../Libraries/STM32F10x_StdPeriph_Driver/src/stm32f10x_tim.c ****              TIM_BDTRInitStruct->TIM_LOCKLevel | TIM_BDTRInitStruct->TIM_DeadTime |
 21902              		.loc 1 725 0
 21903 0018 3B68     		ldr	r3, [r7, #0]
 21904 001a 9B88     		ldrh	r3, [r3, #4]
 724:../Libraries/STM32F10x_StdPeriph_Driver/src/stm32f10x_tim.c ****   TIMx->BDTR = (uint32_t)TIM_BDTRInitStruct->TIM_OSSRState | TIM_BDTRInitStruct->TIM_OSSIState |
 21905              		.loc 1 724 0
 21906 001c 42EA0303 		orr	r3, r2, r3
 21907 0020 9AB2     		uxth	r2, r3
 21908              		.loc 1 725 0
 21909 0022 3B68     		ldr	r3, [r7, #0]
 21910 0024 DB88     		ldrh	r3, [r3, #6]
 724:../Libraries/STM32F10x_StdPeriph_Driver/src/stm32f10x_tim.c ****   TIMx->BDTR = (uint32_t)TIM_BDTRInitStruct->TIM_OSSRState | TIM_BDTRInitStruct->TIM_OSSIState |
 21911              		.loc 1 724 0
 21912 0026 42EA0303 		orr	r3, r2, r3
 21913 002a 9AB2     		uxth	r2, r3
 726:../Libraries/STM32F10x_StdPeriph_Driver/src/stm32f10x_tim.c ****              TIM_BDTRInitStruct->TIM_Break | TIM_BDTRInitStruct->TIM_BreakPolarity |
 21914              		.loc 1 726 0
 21915 002c 3B68     		ldr	r3, [r7, #0]
 21916 002e 1B89     		ldrh	r3, [r3, #8]
 724:../Libraries/STM32F10x_StdPeriph_Driver/src/stm32f10x_tim.c ****   TIMx->BDTR = (uint32_t)TIM_BDTRInitStruct->TIM_OSSRState | TIM_BDTRInitStruct->TIM_OSSIState |
 21917              		.loc 1 724 0
 21918 0030 42EA0303 		orr	r3, r2, r3
 21919 0034 9AB2     		uxth	r2, r3
 21920              		.loc 1 726 0
 21921 0036 3B68     		ldr	r3, [r7, #0]
 21922 0038 5B89     		ldrh	r3, [r3, #10]
 724:../Libraries/STM32F10x_StdPeriph_Driver/src/stm32f10x_tim.c ****   TIMx->BDTR = (uint32_t)TIM_BDTRInitStruct->TIM_OSSRState | TIM_BDTRInitStruct->TIM_OSSIState |
 21923              		.loc 1 724 0
 21924 003a 42EA0303 		orr	r3, r2, r3
 21925 003e 9AB2     		uxth	r2, r3
 727:../Libraries/STM32F10x_StdPeriph_Driver/src/stm32f10x_tim.c ****              TIM_BDTRInitStruct->TIM_AutomaticOutput;
 21926              		.loc 1 727 0
 21927 0040 3B68     		ldr	r3, [r7, #0]
 21928 0042 9B89     		ldrh	r3, [r3, #12]
 724:../Libraries/STM32F10x_StdPeriph_Driver/src/stm32f10x_tim.c ****   TIMx->BDTR = (uint32_t)TIM_BDTRInitStruct->TIM_OSSRState | TIM_BDTRInitStruct->TIM_OSSIState |
 21929              		.loc 1 724 0
 21930 0044 42EA0303 		orr	r3, r2, r3
 21931 0048 9AB2     		uxth	r2, r3
 21932 004a 7B68     		ldr	r3, [r7, #4]
 21933 004c A3F84420 		strh	r2, [r3, #68]	@ movhi
 728:../Libraries/STM32F10x_StdPeriph_Driver/src/stm32f10x_tim.c **** }
 21934              		.loc 1 728 0
 21935 0050 07F10C07 		add	r7, r7, #12
 21936 0054 BD46     		mov	sp, r7
 21937 0056 80BC     		pop	{r7}
 21938 0058 7047     		bx	lr
 21939              		.cfi_endproc
 21940              	.LFE37:
 21942 005a 00BF     		.section	.text.TIM_TimeBaseStructInit,"ax",%progbits
 21943              		.align	2
 21944              		.global	TIM_TimeBaseStructInit
 21945              		.thumb
 21946              		.thumb_func
 21948              	TIM_TimeBaseStructInit:
 21949              	.LFB38:
 729:../Libraries/STM32F10x_StdPeriph_Driver/src/stm32f10x_tim.c **** 
 730:../Libraries/STM32F10x_StdPeriph_Driver/src/stm32f10x_tim.c **** /**
 731:../Libraries/STM32F10x_StdPeriph_Driver/src/stm32f10x_tim.c ****   * @brief  Fills each TIM_TimeBaseInitStruct member with its default value.
 732:../Libraries/STM32F10x_StdPeriph_Driver/src/stm32f10x_tim.c ****   * @param  TIM_TimeBaseInitStruct : pointer to a TIM_TimeBaseInitTypeDef
 733:../Libraries/STM32F10x_StdPeriph_Driver/src/stm32f10x_tim.c ****   *         structure which will be initialized.
 734:../Libraries/STM32F10x_StdPeriph_Driver/src/stm32f10x_tim.c ****   * @retval None
 735:../Libraries/STM32F10x_StdPeriph_Driver/src/stm32f10x_tim.c ****   */
 736:../Libraries/STM32F10x_StdPeriph_Driver/src/stm32f10x_tim.c **** void TIM_TimeBaseStructInit(TIM_TimeBaseInitTypeDef* TIM_TimeBaseInitStruct)
 737:../Libraries/STM32F10x_StdPeriph_Driver/src/stm32f10x_tim.c **** {
 21950              		.loc 1 737 0
 21951              		.cfi_startproc
 21952              		@ args = 0, pretend = 0, frame = 8
 21953              		@ frame_needed = 1, uses_anonymous_args = 0
 21954              		@ link register save eliminated.
 21955 0000 80B4     		push	{r7}
 21956              	.LCFI27:
 21957              		.cfi_def_cfa_offset 4
 21958 0002 83B0     		sub	sp, sp, #12
 21959              	.LCFI28:
 21960              		.cfi_def_cfa_offset 16
 21961 0004 00AF     		add	r7, sp, #0
 21962              		.cfi_offset 7, -4
 21963              	.LCFI29:
 21964              		.cfi_def_cfa_register 7
 21965 0006 7860     		str	r0, [r7, #4]
 738:../Libraries/STM32F10x_StdPeriph_Driver/src/stm32f10x_tim.c ****   /* Set the default configuration */
 739:../Libraries/STM32F10x_StdPeriph_Driver/src/stm32f10x_tim.c ****   TIM_TimeBaseInitStruct->TIM_Period = 0xFFFF;
 21966              		.loc 1 739 0
 21967 0008 7B68     		ldr	r3, [r7, #4]
 21968 000a 4FF6FF72 		movw	r2, #65535
 21969 000e 9A80     		strh	r2, [r3, #4]	@ movhi
 740:../Libraries/STM32F10x_StdPeriph_Driver/src/stm32f10x_tim.c ****   TIM_TimeBaseInitStruct->TIM_Prescaler = 0x0000;
 21970              		.loc 1 740 0
 21971 0010 7B68     		ldr	r3, [r7, #4]
 21972 0012 4FF00002 		mov	r2, #0
 21973 0016 1A80     		strh	r2, [r3, #0]	@ movhi
 741:../Libraries/STM32F10x_StdPeriph_Driver/src/stm32f10x_tim.c ****   TIM_TimeBaseInitStruct->TIM_ClockDivision = TIM_CKD_DIV1;
 21974              		.loc 1 741 0
 21975 0018 7B68     		ldr	r3, [r7, #4]
 21976 001a 4FF00002 		mov	r2, #0
 21977 001e DA80     		strh	r2, [r3, #6]	@ movhi
 742:../Libraries/STM32F10x_StdPeriph_Driver/src/stm32f10x_tim.c ****   TIM_TimeBaseInitStruct->TIM_CounterMode = TIM_CounterMode_Up;
 21978              		.loc 1 742 0
 21979 0020 7B68     		ldr	r3, [r7, #4]
 21980 0022 4FF00002 		mov	r2, #0
 21981 0026 5A80     		strh	r2, [r3, #2]	@ movhi
 743:../Libraries/STM32F10x_StdPeriph_Driver/src/stm32f10x_tim.c ****   TIM_TimeBaseInitStruct->TIM_RepetitionCounter = 0x0000;
 21982              		.loc 1 743 0
 21983 0028 7B68     		ldr	r3, [r7, #4]
 21984 002a 4FF00002 		mov	r2, #0
 21985 002e 1A72     		strb	r2, [r3, #8]
 744:../Libraries/STM32F10x_StdPeriph_Driver/src/stm32f10x_tim.c **** }
 21986              		.loc 1 744 0
 21987 0030 07F10C07 		add	r7, r7, #12
 21988 0034 BD46     		mov	sp, r7
 21989 0036 80BC     		pop	{r7}
 21990 0038 7047     		bx	lr
 21991              		.cfi_endproc
 21992              	.LFE38:
 21994 003a 00BF     		.section	.text.TIM_OCStructInit,"ax",%progbits
 21995              		.align	2
 21996              		.global	TIM_OCStructInit
 21997              		.thumb
 21998              		.thumb_func
 22000              	TIM_OCStructInit:
 22001              	.LFB39:
 745:../Libraries/STM32F10x_StdPeriph_Driver/src/stm32f10x_tim.c **** 
 746:../Libraries/STM32F10x_StdPeriph_Driver/src/stm32f10x_tim.c **** /**
 747:../Libraries/STM32F10x_StdPeriph_Driver/src/stm32f10x_tim.c ****   * @brief  Fills each TIM_OCInitStruct member with its default value.
 748:../Libraries/STM32F10x_StdPeriph_Driver/src/stm32f10x_tim.c ****   * @param  TIM_OCInitStruct : pointer to a TIM_OCInitTypeDef structure which will
 749:../Libraries/STM32F10x_StdPeriph_Driver/src/stm32f10x_tim.c ****   *         be initialized.
 750:../Libraries/STM32F10x_StdPeriph_Driver/src/stm32f10x_tim.c ****   * @retval None
 751:../Libraries/STM32F10x_StdPeriph_Driver/src/stm32f10x_tim.c ****   */
 752:../Libraries/STM32F10x_StdPeriph_Driver/src/stm32f10x_tim.c **** void TIM_OCStructInit(TIM_OCInitTypeDef* TIM_OCInitStruct)
 753:../Libraries/STM32F10x_StdPeriph_Driver/src/stm32f10x_tim.c **** {
 22002              		.loc 1 753 0
 22003              		.cfi_startproc
 22004              		@ args = 0, pretend = 0, frame = 8
 22005              		@ frame_needed = 1, uses_anonymous_args = 0
 22006              		@ link register save eliminated.
 22007 0000 80B4     		push	{r7}
 22008              	.LCFI30:
 22009              		.cfi_def_cfa_offset 4
 22010 0002 83B0     		sub	sp, sp, #12
 22011              	.LCFI31:
 22012              		.cfi_def_cfa_offset 16
 22013 0004 00AF     		add	r7, sp, #0
 22014              		.cfi_offset 7, -4
 22015              	.LCFI32:
 22016              		.cfi_def_cfa_register 7
 22017 0006 7860     		str	r0, [r7, #4]
 754:../Libraries/STM32F10x_StdPeriph_Driver/src/stm32f10x_tim.c ****   /* Set the default configuration */
 755:../Libraries/STM32F10x_StdPeriph_Driver/src/stm32f10x_tim.c ****   TIM_OCInitStruct->TIM_OCMode = TIM_OCMode_Timing;
 22018              		.loc 1 755 0
 22019 0008 7B68     		ldr	r3, [r7, #4]
 22020 000a 4FF00002 		mov	r2, #0
 22021 000e 1A80     		strh	r2, [r3, #0]	@ movhi
 756:../Libraries/STM32F10x_StdPeriph_Driver/src/stm32f10x_tim.c ****   TIM_OCInitStruct->TIM_OutputState = TIM_OutputState_Disable;
 22022              		.loc 1 756 0
 22023 0010 7B68     		ldr	r3, [r7, #4]
 22024 0012 4FF00002 		mov	r2, #0
 22025 0016 5A80     		strh	r2, [r3, #2]	@ movhi
 757:../Libraries/STM32F10x_StdPeriph_Driver/src/stm32f10x_tim.c ****   TIM_OCInitStruct->TIM_OutputNState = TIM_OutputNState_Disable;
 22026              		.loc 1 757 0
 22027 0018 7B68     		ldr	r3, [r7, #4]
 22028 001a 4FF00002 		mov	r2, #0
 22029 001e 9A80     		strh	r2, [r3, #4]	@ movhi
 758:../Libraries/STM32F10x_StdPeriph_Driver/src/stm32f10x_tim.c ****   TIM_OCInitStruct->TIM_Pulse = 0x0000;
 22030              		.loc 1 758 0
 22031 0020 7B68     		ldr	r3, [r7, #4]
 22032 0022 4FF00002 		mov	r2, #0
 22033 0026 DA80     		strh	r2, [r3, #6]	@ movhi
 759:../Libraries/STM32F10x_StdPeriph_Driver/src/stm32f10x_tim.c ****   TIM_OCInitStruct->TIM_OCPolarity = TIM_OCPolarity_High;
 22034              		.loc 1 759 0
 22035 0028 7B68     		ldr	r3, [r7, #4]
 22036 002a 4FF00002 		mov	r2, #0
 22037 002e 1A81     		strh	r2, [r3, #8]	@ movhi
 760:../Libraries/STM32F10x_StdPeriph_Driver/src/stm32f10x_tim.c ****   TIM_OCInitStruct->TIM_OCNPolarity = TIM_OCPolarity_High;
 22038              		.loc 1 760 0
 22039 0030 7B68     		ldr	r3, [r7, #4]
 22040 0032 4FF00002 		mov	r2, #0
 22041 0036 5A81     		strh	r2, [r3, #10]	@ movhi
 761:../Libraries/STM32F10x_StdPeriph_Driver/src/stm32f10x_tim.c ****   TIM_OCInitStruct->TIM_OCIdleState = TIM_OCIdleState_Reset;
 22042              		.loc 1 761 0
 22043 0038 7B68     		ldr	r3, [r7, #4]
 22044 003a 4FF00002 		mov	r2, #0
 22045 003e 9A81     		strh	r2, [r3, #12]	@ movhi
 762:../Libraries/STM32F10x_StdPeriph_Driver/src/stm32f10x_tim.c ****   TIM_OCInitStruct->TIM_OCNIdleState = TIM_OCNIdleState_Reset;
 22046              		.loc 1 762 0
 22047 0040 7B68     		ldr	r3, [r7, #4]
 22048 0042 4FF00002 		mov	r2, #0
 22049 0046 DA81     		strh	r2, [r3, #14]	@ movhi
 763:../Libraries/STM32F10x_StdPeriph_Driver/src/stm32f10x_tim.c **** }
 22050              		.loc 1 763 0
 22051 0048 07F10C07 		add	r7, r7, #12
 22052 004c BD46     		mov	sp, r7
 22053 004e 80BC     		pop	{r7}
 22054 0050 7047     		bx	lr
 22055              		.cfi_endproc
 22056              	.LFE39:
 22058 0052 00BF     		.section	.text.TIM_ICStructInit,"ax",%progbits
 22059              		.align	2
 22060              		.global	TIM_ICStructInit
 22061              		.thumb
 22062              		.thumb_func
 22064              	TIM_ICStructInit:
 22065              	.LFB40:
 764:../Libraries/STM32F10x_StdPeriph_Driver/src/stm32f10x_tim.c **** 
 765:../Libraries/STM32F10x_StdPeriph_Driver/src/stm32f10x_tim.c **** /**
 766:../Libraries/STM32F10x_StdPeriph_Driver/src/stm32f10x_tim.c ****   * @brief  Fills each TIM_ICInitStruct member with its default value.
 767:../Libraries/STM32F10x_StdPeriph_Driver/src/stm32f10x_tim.c ****   * @param  TIM_ICInitStruct: pointer to a TIM_ICInitTypeDef structure which will
 768:../Libraries/STM32F10x_StdPeriph_Driver/src/stm32f10x_tim.c ****   *         be initialized.
 769:../Libraries/STM32F10x_StdPeriph_Driver/src/stm32f10x_tim.c ****   * @retval None
 770:../Libraries/STM32F10x_StdPeriph_Driver/src/stm32f10x_tim.c ****   */
 771:../Libraries/STM32F10x_StdPeriph_Driver/src/stm32f10x_tim.c **** void TIM_ICStructInit(TIM_ICInitTypeDef* TIM_ICInitStruct)
 772:../Libraries/STM32F10x_StdPeriph_Driver/src/stm32f10x_tim.c **** {
 22066              		.loc 1 772 0
 22067              		.cfi_startproc
 22068              		@ args = 0, pretend = 0, frame = 8
 22069              		@ frame_needed = 1, uses_anonymous_args = 0
 22070              		@ link register save eliminated.
 22071 0000 80B4     		push	{r7}
 22072              	.LCFI33:
 22073              		.cfi_def_cfa_offset 4
 22074 0002 83B0     		sub	sp, sp, #12
 22075              	.LCFI34:
 22076              		.cfi_def_cfa_offset 16
 22077 0004 00AF     		add	r7, sp, #0
 22078              		.cfi_offset 7, -4
 22079              	.LCFI35:
 22080              		.cfi_def_cfa_register 7
 22081 0006 7860     		str	r0, [r7, #4]
 773:../Libraries/STM32F10x_StdPeriph_Driver/src/stm32f10x_tim.c ****   /* Set the default configuration */
 774:../Libraries/STM32F10x_StdPeriph_Driver/src/stm32f10x_tim.c ****   TIM_ICInitStruct->TIM_Channel = TIM_Channel_1;
 22082              		.loc 1 774 0
 22083 0008 7B68     		ldr	r3, [r7, #4]
 22084 000a 4FF00002 		mov	r2, #0
 22085 000e 1A80     		strh	r2, [r3, #0]	@ movhi
 775:../Libraries/STM32F10x_StdPeriph_Driver/src/stm32f10x_tim.c ****   TIM_ICInitStruct->TIM_ICPolarity = TIM_ICPolarity_Rising;
 22086              		.loc 1 775 0
 22087 0010 7B68     		ldr	r3, [r7, #4]
 22088 0012 4FF00002 		mov	r2, #0
 22089 0016 5A80     		strh	r2, [r3, #2]	@ movhi
 776:../Libraries/STM32F10x_StdPeriph_Driver/src/stm32f10x_tim.c ****   TIM_ICInitStruct->TIM_ICSelection = TIM_ICSelection_DirectTI;
 22090              		.loc 1 776 0
 22091 0018 7B68     		ldr	r3, [r7, #4]
 22092 001a 4FF00102 		mov	r2, #1
 22093 001e 9A80     		strh	r2, [r3, #4]	@ movhi
 777:../Libraries/STM32F10x_StdPeriph_Driver/src/stm32f10x_tim.c ****   TIM_ICInitStruct->TIM_ICPrescaler = TIM_ICPSC_DIV1;
 22094              		.loc 1 777 0
 22095 0020 7B68     		ldr	r3, [r7, #4]
 22096 0022 4FF00002 		mov	r2, #0
 22097 0026 DA80     		strh	r2, [r3, #6]	@ movhi
 778:../Libraries/STM32F10x_StdPeriph_Driver/src/stm32f10x_tim.c ****   TIM_ICInitStruct->TIM_ICFilter = 0x00;
 22098              		.loc 1 778 0
 22099 0028 7B68     		ldr	r3, [r7, #4]
 22100 002a 4FF00002 		mov	r2, #0
 22101 002e 1A81     		strh	r2, [r3, #8]	@ movhi
 779:../Libraries/STM32F10x_StdPeriph_Driver/src/stm32f10x_tim.c **** }
 22102              		.loc 1 779 0
 22103 0030 07F10C07 		add	r7, r7, #12
 22104 0034 BD46     		mov	sp, r7
 22105 0036 80BC     		pop	{r7}
 22106 0038 7047     		bx	lr
 22107              		.cfi_endproc
 22108              	.LFE40:
 22110 003a 00BF     		.section	.text.TIM_BDTRStructInit,"ax",%progbits
 22111              		.align	2
 22112              		.global	TIM_BDTRStructInit
 22113              		.thumb
 22114              		.thumb_func
 22116              	TIM_BDTRStructInit:
 22117              	.LFB41:
 780:../Libraries/STM32F10x_StdPeriph_Driver/src/stm32f10x_tim.c **** 
 781:../Libraries/STM32F10x_StdPeriph_Driver/src/stm32f10x_tim.c **** /**
 782:../Libraries/STM32F10x_StdPeriph_Driver/src/stm32f10x_tim.c ****   * @brief  Fills each TIM_BDTRInitStruct member with its default value.
 783:../Libraries/STM32F10x_StdPeriph_Driver/src/stm32f10x_tim.c ****   * @param  TIM_BDTRInitStruct: pointer to a TIM_BDTRInitTypeDef structure which
 784:../Libraries/STM32F10x_StdPeriph_Driver/src/stm32f10x_tim.c ****   *         will be initialized.
 785:../Libraries/STM32F10x_StdPeriph_Driver/src/stm32f10x_tim.c ****   * @retval None
 786:../Libraries/STM32F10x_StdPeriph_Driver/src/stm32f10x_tim.c ****   */
 787:../Libraries/STM32F10x_StdPeriph_Driver/src/stm32f10x_tim.c **** void TIM_BDTRStructInit(TIM_BDTRInitTypeDef* TIM_BDTRInitStruct)
 788:../Libraries/STM32F10x_StdPeriph_Driver/src/stm32f10x_tim.c **** {
 22118              		.loc 1 788 0
 22119              		.cfi_startproc
 22120              		@ args = 0, pretend = 0, frame = 8
 22121              		@ frame_needed = 1, uses_anonymous_args = 0
 22122              		@ link register save eliminated.
 22123 0000 80B4     		push	{r7}
 22124              	.LCFI36:
 22125              		.cfi_def_cfa_offset 4
 22126 0002 83B0     		sub	sp, sp, #12
 22127              	.LCFI37:
 22128              		.cfi_def_cfa_offset 16
 22129 0004 00AF     		add	r7, sp, #0
 22130              		.cfi_offset 7, -4
 22131              	.LCFI38:
 22132              		.cfi_def_cfa_register 7
 22133 0006 7860     		str	r0, [r7, #4]
 789:../Libraries/STM32F10x_StdPeriph_Driver/src/stm32f10x_tim.c ****   /* Set the default configuration */
 790:../Libraries/STM32F10x_StdPeriph_Driver/src/stm32f10x_tim.c ****   TIM_BDTRInitStruct->TIM_OSSRState = TIM_OSSRState_Disable;
 22134              		.loc 1 790 0
 22135 0008 7B68     		ldr	r3, [r7, #4]
 22136 000a 4FF00002 		mov	r2, #0
 22137 000e 1A80     		strh	r2, [r3, #0]	@ movhi
 791:../Libraries/STM32F10x_StdPeriph_Driver/src/stm32f10x_tim.c ****   TIM_BDTRInitStruct->TIM_OSSIState = TIM_OSSIState_Disable;
 22138              		.loc 1 791 0
 22139 0010 7B68     		ldr	r3, [r7, #4]
 22140 0012 4FF00002 		mov	r2, #0
 22141 0016 5A80     		strh	r2, [r3, #2]	@ movhi
 792:../Libraries/STM32F10x_StdPeriph_Driver/src/stm32f10x_tim.c ****   TIM_BDTRInitStruct->TIM_LOCKLevel = TIM_LOCKLevel_OFF;
 22142              		.loc 1 792 0
 22143 0018 7B68     		ldr	r3, [r7, #4]
 22144 001a 4FF00002 		mov	r2, #0
 22145 001e 9A80     		strh	r2, [r3, #4]	@ movhi
 793:../Libraries/STM32F10x_StdPeriph_Driver/src/stm32f10x_tim.c ****   TIM_BDTRInitStruct->TIM_DeadTime = 0x00;
 22146              		.loc 1 793 0
 22147 0020 7B68     		ldr	r3, [r7, #4]
 22148 0022 4FF00002 		mov	r2, #0
 22149 0026 DA80     		strh	r2, [r3, #6]	@ movhi
 794:../Libraries/STM32F10x_StdPeriph_Driver/src/stm32f10x_tim.c ****   TIM_BDTRInitStruct->TIM_Break = TIM_Break_Disable;
 22150              		.loc 1 794 0
 22151 0028 7B68     		ldr	r3, [r7, #4]
 22152 002a 4FF00002 		mov	r2, #0
 22153 002e 1A81     		strh	r2, [r3, #8]	@ movhi
 795:../Libraries/STM32F10x_StdPeriph_Driver/src/stm32f10x_tim.c ****   TIM_BDTRInitStruct->TIM_BreakPolarity = TIM_BreakPolarity_Low;
 22154              		.loc 1 795 0
 22155 0030 7B68     		ldr	r3, [r7, #4]
 22156 0032 4FF00002 		mov	r2, #0
 22157 0036 5A81     		strh	r2, [r3, #10]	@ movhi
 796:../Libraries/STM32F10x_StdPeriph_Driver/src/stm32f10x_tim.c ****   TIM_BDTRInitStruct->TIM_AutomaticOutput = TIM_AutomaticOutput_Disable;
 22158              		.loc 1 796 0
 22159 0038 7B68     		ldr	r3, [r7, #4]
 22160 003a 4FF00002 		mov	r2, #0
 22161 003e 9A81     		strh	r2, [r3, #12]	@ movhi
 797:../Libraries/STM32F10x_StdPeriph_Driver/src/stm32f10x_tim.c **** }
 22162              		.loc 1 797 0
 22163 0040 07F10C07 		add	r7, r7, #12
 22164 0044 BD46     		mov	sp, r7
 22165 0046 80BC     		pop	{r7}
 22166 0048 7047     		bx	lr
 22167              		.cfi_endproc
 22168              	.LFE41:
 22170 004a 00BF     		.section	.text.TIM_Cmd,"ax",%progbits
 22171              		.align	2
 22172              		.global	TIM_Cmd
 22173              		.thumb
 22174              		.thumb_func
 22176              	TIM_Cmd:
 22177              	.LFB42:
 798:../Libraries/STM32F10x_StdPeriph_Driver/src/stm32f10x_tim.c **** 
 799:../Libraries/STM32F10x_StdPeriph_Driver/src/stm32f10x_tim.c **** /**
 800:../Libraries/STM32F10x_StdPeriph_Driver/src/stm32f10x_tim.c ****   * @brief  Enables or disables the specified TIM peripheral.
 801:../Libraries/STM32F10x_StdPeriph_Driver/src/stm32f10x_tim.c ****   * @param  TIMx: where x can be 1 to 17 to select the TIMx peripheral.
 802:../Libraries/STM32F10x_StdPeriph_Driver/src/stm32f10x_tim.c ****   * @param  NewState: new state of the TIMx peripheral.
 803:../Libraries/STM32F10x_StdPeriph_Driver/src/stm32f10x_tim.c ****   *   This parameter can be: ENABLE or DISABLE.
 804:../Libraries/STM32F10x_StdPeriph_Driver/src/stm32f10x_tim.c ****   * @retval None
 805:../Libraries/STM32F10x_StdPeriph_Driver/src/stm32f10x_tim.c ****   */
 806:../Libraries/STM32F10x_StdPeriph_Driver/src/stm32f10x_tim.c **** void TIM_Cmd(TIM_TypeDef* TIMx, FunctionalState NewState)
 807:../Libraries/STM32F10x_StdPeriph_Driver/src/stm32f10x_tim.c **** {
 22178              		.loc 1 807 0
 22179              		.cfi_startproc
 22180              		@ args = 0, pretend = 0, frame = 8
 22181              		@ frame_needed = 1, uses_anonymous_args = 0
 22182              		@ link register save eliminated.
 22183 0000 80B4     		push	{r7}
 22184              	.LCFI39:
 22185              		.cfi_def_cfa_offset 4
 22186 0002 83B0     		sub	sp, sp, #12
 22187              	.LCFI40:
 22188              		.cfi_def_cfa_offset 16
 22189 0004 00AF     		add	r7, sp, #0
 22190              		.cfi_offset 7, -4
 22191              	.LCFI41:
 22192              		.cfi_def_cfa_register 7
 22193 0006 7860     		str	r0, [r7, #4]
 22194 0008 0B46     		mov	r3, r1
 22195 000a FB70     		strb	r3, [r7, #3]
 808:../Libraries/STM32F10x_StdPeriph_Driver/src/stm32f10x_tim.c ****   /* Check the parameters */
 809:../Libraries/STM32F10x_StdPeriph_Driver/src/stm32f10x_tim.c ****   assert_param(IS_TIM_ALL_PERIPH(TIMx));
 810:../Libraries/STM32F10x_StdPeriph_Driver/src/stm32f10x_tim.c ****   assert_param(IS_FUNCTIONAL_STATE(NewState));
 811:../Libraries/STM32F10x_StdPeriph_Driver/src/stm32f10x_tim.c ****   
 812:../Libraries/STM32F10x_StdPeriph_Driver/src/stm32f10x_tim.c ****   if (NewState != DISABLE)
 22196              		.loc 1 812 0
 22197 000c FB78     		ldrb	r3, [r7, #3]	@ zero_extendqisi2
 22198 000e 002B     		cmp	r3, #0
 22199 0010 08D0     		beq	.L67
 813:../Libraries/STM32F10x_StdPeriph_Driver/src/stm32f10x_tim.c ****   {
 814:../Libraries/STM32F10x_StdPeriph_Driver/src/stm32f10x_tim.c ****     /* Enable the TIM Counter */
 815:../Libraries/STM32F10x_StdPeriph_Driver/src/stm32f10x_tim.c ****     TIMx->CR1 |= TIM_CR1_CEN;
 22200              		.loc 1 815 0
 22201 0012 7B68     		ldr	r3, [r7, #4]
 22202 0014 1B88     		ldrh	r3, [r3, #0]	@ movhi
 22203 0016 9BB2     		uxth	r3, r3
 22204 0018 43F00103 		orr	r3, r3, #1
 22205 001c 9AB2     		uxth	r2, r3
 22206 001e 7B68     		ldr	r3, [r7, #4]
 22207 0020 1A80     		strh	r2, [r3, #0]	@ movhi
 22208 0022 07E0     		b	.L66
 22209              	.L67:
 816:../Libraries/STM32F10x_StdPeriph_Driver/src/stm32f10x_tim.c ****   }
 817:../Libraries/STM32F10x_StdPeriph_Driver/src/stm32f10x_tim.c ****   else
 818:../Libraries/STM32F10x_StdPeriph_Driver/src/stm32f10x_tim.c ****   {
 819:../Libraries/STM32F10x_StdPeriph_Driver/src/stm32f10x_tim.c ****     /* Disable the TIM Counter */
 820:../Libraries/STM32F10x_StdPeriph_Driver/src/stm32f10x_tim.c ****     TIMx->CR1 &= (uint16_t)(~((uint16_t)TIM_CR1_CEN));
 22210              		.loc 1 820 0
 22211 0024 7B68     		ldr	r3, [r7, #4]
 22212 0026 1B88     		ldrh	r3, [r3, #0]	@ movhi
 22213 0028 9BB2     		uxth	r3, r3
 22214 002a 23F00103 		bic	r3, r3, #1
 22215 002e 9AB2     		uxth	r2, r3
 22216 0030 7B68     		ldr	r3, [r7, #4]
 22217 0032 1A80     		strh	r2, [r3, #0]	@ movhi
 22218              	.L66:
 821:../Libraries/STM32F10x_StdPeriph_Driver/src/stm32f10x_tim.c ****   }
 822:../Libraries/STM32F10x_StdPeriph_Driver/src/stm32f10x_tim.c **** }
 22219              		.loc 1 822 0
 22220 0034 07F10C07 		add	r7, r7, #12
 22221 0038 BD46     		mov	sp, r7
 22222 003a 80BC     		pop	{r7}
 22223 003c 7047     		bx	lr
 22224              		.cfi_endproc
 22225              	.LFE42:
 22227 003e 00BF     		.section	.text.TIM_CtrlPWMOutputs,"ax",%progbits
 22228              		.align	2
 22229              		.global	TIM_CtrlPWMOutputs
 22230              		.thumb
 22231              		.thumb_func
 22233              	TIM_CtrlPWMOutputs:
 22234              	.LFB43:
 823:../Libraries/STM32F10x_StdPeriph_Driver/src/stm32f10x_tim.c **** 
 824:../Libraries/STM32F10x_StdPeriph_Driver/src/stm32f10x_tim.c **** /**
 825:../Libraries/STM32F10x_StdPeriph_Driver/src/stm32f10x_tim.c ****   * @brief  Enables or disables the TIM peripheral Main Outputs.
 826:../Libraries/STM32F10x_StdPeriph_Driver/src/stm32f10x_tim.c ****   * @param  TIMx: where x can be 1, 8, 15, 16 or 17 to select the TIMx peripheral.
 827:../Libraries/STM32F10x_StdPeriph_Driver/src/stm32f10x_tim.c ****   * @param  NewState: new state of the TIM peripheral Main Outputs.
 828:../Libraries/STM32F10x_StdPeriph_Driver/src/stm32f10x_tim.c ****   *   This parameter can be: ENABLE or DISABLE.
 829:../Libraries/STM32F10x_StdPeriph_Driver/src/stm32f10x_tim.c ****   * @retval None
 830:../Libraries/STM32F10x_StdPeriph_Driver/src/stm32f10x_tim.c ****   */
 831:../Libraries/STM32F10x_StdPeriph_Driver/src/stm32f10x_tim.c **** void TIM_CtrlPWMOutputs(TIM_TypeDef* TIMx, FunctionalState NewState)
 832:../Libraries/STM32F10x_StdPeriph_Driver/src/stm32f10x_tim.c **** {
 22235              		.loc 1 832 0
 22236              		.cfi_startproc
 22237              		@ args = 0, pretend = 0, frame = 8
 22238              		@ frame_needed = 1, uses_anonymous_args = 0
 22239              		@ link register save eliminated.
 22240 0000 80B4     		push	{r7}
 22241              	.LCFI42:
 22242              		.cfi_def_cfa_offset 4
 22243 0002 83B0     		sub	sp, sp, #12
 22244              	.LCFI43:
 22245              		.cfi_def_cfa_offset 16
 22246 0004 00AF     		add	r7, sp, #0
 22247              		.cfi_offset 7, -4
 22248              	.LCFI44:
 22249              		.cfi_def_cfa_register 7
 22250 0006 7860     		str	r0, [r7, #4]
 22251 0008 0B46     		mov	r3, r1
 22252 000a FB70     		strb	r3, [r7, #3]
 833:../Libraries/STM32F10x_StdPeriph_Driver/src/stm32f10x_tim.c ****   /* Check the parameters */
 834:../Libraries/STM32F10x_StdPeriph_Driver/src/stm32f10x_tim.c ****   assert_param(IS_TIM_LIST2_PERIPH(TIMx));
 835:../Libraries/STM32F10x_StdPeriph_Driver/src/stm32f10x_tim.c ****   assert_param(IS_FUNCTIONAL_STATE(NewState));
 836:../Libraries/STM32F10x_StdPeriph_Driver/src/stm32f10x_tim.c ****   if (NewState != DISABLE)
 22253              		.loc 1 836 0
 22254 000c FB78     		ldrb	r3, [r7, #3]	@ zero_extendqisi2
 22255 000e 002B     		cmp	r3, #0
 22256 0010 0CD0     		beq	.L70
 837:../Libraries/STM32F10x_StdPeriph_Driver/src/stm32f10x_tim.c ****   {
 838:../Libraries/STM32F10x_StdPeriph_Driver/src/stm32f10x_tim.c ****     /* Enable the TIM Main Output */
 839:../Libraries/STM32F10x_StdPeriph_Driver/src/stm32f10x_tim.c ****     TIMx->BDTR |= TIM_BDTR_MOE;
 22257              		.loc 1 839 0
 22258 0012 7B68     		ldr	r3, [r7, #4]
 22259 0014 B3F84430 		ldrh	r3, [r3, #68]	@ movhi
 22260 0018 9BB2     		uxth	r3, r3
 22261 001a 6FEA4343 		mvn	r3, r3, lsl #17
 22262 001e 6FEA5343 		mvn	r3, r3, lsr #17
 22263 0022 9AB2     		uxth	r2, r3
 22264 0024 7B68     		ldr	r3, [r7, #4]
 22265 0026 A3F84420 		strh	r2, [r3, #68]	@ movhi
 22266 002a 0BE0     		b	.L69
 22267              	.L70:
 840:../Libraries/STM32F10x_StdPeriph_Driver/src/stm32f10x_tim.c ****   }
 841:../Libraries/STM32F10x_StdPeriph_Driver/src/stm32f10x_tim.c ****   else
 842:../Libraries/STM32F10x_StdPeriph_Driver/src/stm32f10x_tim.c ****   {
 843:../Libraries/STM32F10x_StdPeriph_Driver/src/stm32f10x_tim.c ****     /* Disable the TIM Main Output */
 844:../Libraries/STM32F10x_StdPeriph_Driver/src/stm32f10x_tim.c ****     TIMx->BDTR &= (uint16_t)(~((uint16_t)TIM_BDTR_MOE));
 22268              		.loc 1 844 0
 22269 002c 7B68     		ldr	r3, [r7, #4]
 22270 002e B3F84430 		ldrh	r3, [r3, #68]	@ movhi
 22271 0032 9BB2     		uxth	r3, r3
 22272 0034 4FEA4343 		lsl	r3, r3, #17
 22273 0038 4FEA5343 		lsr	r3, r3, #17
 22274 003c 9AB2     		uxth	r2, r3
 22275 003e 7B68     		ldr	r3, [r7, #4]
 22276 0040 A3F84420 		strh	r2, [r3, #68]	@ movhi
 22277              	.L69:
 845:../Libraries/STM32F10x_StdPeriph_Driver/src/stm32f10x_tim.c ****   }  
 846:../Libraries/STM32F10x_StdPeriph_Driver/src/stm32f10x_tim.c **** }
 22278              		.loc 1 846 0
 22279 0044 07F10C07 		add	r7, r7, #12
 22280 0048 BD46     		mov	sp, r7
 22281 004a 80BC     		pop	{r7}
 22282 004c 7047     		bx	lr
 22283              		.cfi_endproc
 22284              	.LFE43:
 22286 004e 00BF     		.section	.text.TIM_ITConfig,"ax",%progbits
 22287              		.align	2
 22288              		.global	TIM_ITConfig
 22289              		.thumb
 22290              		.thumb_func
 22292              	TIM_ITConfig:
 22293              	.LFB44:
 847:../Libraries/STM32F10x_StdPeriph_Driver/src/stm32f10x_tim.c **** 
 848:../Libraries/STM32F10x_StdPeriph_Driver/src/stm32f10x_tim.c **** /**
 849:../Libraries/STM32F10x_StdPeriph_Driver/src/stm32f10x_tim.c ****   * @brief  Enables or disables the specified TIM interrupts.
 850:../Libraries/STM32F10x_StdPeriph_Driver/src/stm32f10x_tim.c ****   * @param  TIMx: where x can be 1 to 17 to select the TIMx peripheral.
 851:../Libraries/STM32F10x_StdPeriph_Driver/src/stm32f10x_tim.c ****   * @param  TIM_IT: specifies the TIM interrupts sources to be enabled or disabled.
 852:../Libraries/STM32F10x_StdPeriph_Driver/src/stm32f10x_tim.c ****   *   This parameter can be any combination of the following values:
 853:../Libraries/STM32F10x_StdPeriph_Driver/src/stm32f10x_tim.c ****   *     @arg TIM_IT_Update: TIM update Interrupt source
 854:../Libraries/STM32F10x_StdPeriph_Driver/src/stm32f10x_tim.c ****   *     @arg TIM_IT_CC1: TIM Capture Compare 1 Interrupt source
 855:../Libraries/STM32F10x_StdPeriph_Driver/src/stm32f10x_tim.c ****   *     @arg TIM_IT_CC2: TIM Capture Compare 2 Interrupt source
 856:../Libraries/STM32F10x_StdPeriph_Driver/src/stm32f10x_tim.c ****   *     @arg TIM_IT_CC3: TIM Capture Compare 3 Interrupt source
 857:../Libraries/STM32F10x_StdPeriph_Driver/src/stm32f10x_tim.c ****   *     @arg TIM_IT_CC4: TIM Capture Compare 4 Interrupt source
 858:../Libraries/STM32F10x_StdPeriph_Driver/src/stm32f10x_tim.c ****   *     @arg TIM_IT_COM: TIM Commutation Interrupt source
 859:../Libraries/STM32F10x_StdPeriph_Driver/src/stm32f10x_tim.c ****   *     @arg TIM_IT_Trigger: TIM Trigger Interrupt source
 860:../Libraries/STM32F10x_StdPeriph_Driver/src/stm32f10x_tim.c ****   *     @arg TIM_IT_Break: TIM Break Interrupt source
 861:../Libraries/STM32F10x_StdPeriph_Driver/src/stm32f10x_tim.c ****   * @note 
 862:../Libraries/STM32F10x_StdPeriph_Driver/src/stm32f10x_tim.c ****   *   - TIM6 and TIM7 can only generate an update interrupt.
 863:../Libraries/STM32F10x_StdPeriph_Driver/src/stm32f10x_tim.c ****   *   - TIM9, TIM12 and TIM15 can have only TIM_IT_Update, TIM_IT_CC1,
 864:../Libraries/STM32F10x_StdPeriph_Driver/src/stm32f10x_tim.c ****   *      TIM_IT_CC2 or TIM_IT_Trigger. 
 865:../Libraries/STM32F10x_StdPeriph_Driver/src/stm32f10x_tim.c ****   *   - TIM10, TIM11, TIM13, TIM14, TIM16 and TIM17 can have TIM_IT_Update or TIM_IT_CC1.   
 866:../Libraries/STM32F10x_StdPeriph_Driver/src/stm32f10x_tim.c ****   *   - TIM_IT_Break is used only with TIM1, TIM8 and TIM15. 
 867:../Libraries/STM32F10x_StdPeriph_Driver/src/stm32f10x_tim.c ****   *   - TIM_IT_COM is used only with TIM1, TIM8, TIM15, TIM16 and TIM17.    
 868:../Libraries/STM32F10x_StdPeriph_Driver/src/stm32f10x_tim.c ****   * @param  NewState: new state of the TIM interrupts.
 869:../Libraries/STM32F10x_StdPeriph_Driver/src/stm32f10x_tim.c ****   *   This parameter can be: ENABLE or DISABLE.
 870:../Libraries/STM32F10x_StdPeriph_Driver/src/stm32f10x_tim.c ****   * @retval None
 871:../Libraries/STM32F10x_StdPeriph_Driver/src/stm32f10x_tim.c ****   */
 872:../Libraries/STM32F10x_StdPeriph_Driver/src/stm32f10x_tim.c **** void TIM_ITConfig(TIM_TypeDef* TIMx, uint16_t TIM_IT, FunctionalState NewState)
 873:../Libraries/STM32F10x_StdPeriph_Driver/src/stm32f10x_tim.c **** {  
 22294              		.loc 1 873 0
 22295              		.cfi_startproc
 22296              		@ args = 0, pretend = 0, frame = 8
 22297              		@ frame_needed = 1, uses_anonymous_args = 0
 22298              		@ link register save eliminated.
 22299 0000 80B4     		push	{r7}
 22300              	.LCFI45:
 22301              		.cfi_def_cfa_offset 4
 22302 0002 83B0     		sub	sp, sp, #12
 22303              	.LCFI46:
 22304              		.cfi_def_cfa_offset 16
 22305 0004 00AF     		add	r7, sp, #0
 22306              		.cfi_offset 7, -4
 22307              	.LCFI47:
 22308              		.cfi_def_cfa_register 7
 22309 0006 7860     		str	r0, [r7, #4]
 22310 0008 1346     		mov	r3, r2
 22311 000a 0A46     		mov	r2, r1	@ movhi
 22312 000c 7A80     		strh	r2, [r7, #2]	@ movhi
 22313 000e 7B70     		strb	r3, [r7, #1]
 874:../Libraries/STM32F10x_StdPeriph_Driver/src/stm32f10x_tim.c ****   /* Check the parameters */
 875:../Libraries/STM32F10x_StdPeriph_Driver/src/stm32f10x_tim.c ****   assert_param(IS_TIM_ALL_PERIPH(TIMx));
 876:../Libraries/STM32F10x_StdPeriph_Driver/src/stm32f10x_tim.c ****   assert_param(IS_TIM_IT(TIM_IT));
 877:../Libraries/STM32F10x_StdPeriph_Driver/src/stm32f10x_tim.c ****   assert_param(IS_FUNCTIONAL_STATE(NewState));
 878:../Libraries/STM32F10x_StdPeriph_Driver/src/stm32f10x_tim.c ****   
 879:../Libraries/STM32F10x_StdPeriph_Driver/src/stm32f10x_tim.c ****   if (NewState != DISABLE)
 22314              		.loc 1 879 0
 22315 0010 7B78     		ldrb	r3, [r7, #1]	@ zero_extendqisi2
 22316 0012 002B     		cmp	r3, #0
 22317 0014 09D0     		beq	.L73
 880:../Libraries/STM32F10x_StdPeriph_Driver/src/stm32f10x_tim.c ****   {
 881:../Libraries/STM32F10x_StdPeriph_Driver/src/stm32f10x_tim.c ****     /* Enable the Interrupt sources */
 882:../Libraries/STM32F10x_StdPeriph_Driver/src/stm32f10x_tim.c ****     TIMx->DIER |= TIM_IT;
 22318              		.loc 1 882 0
 22319 0016 7B68     		ldr	r3, [r7, #4]
 22320 0018 9B89     		ldrh	r3, [r3, #12]	@ movhi
 22321 001a 9AB2     		uxth	r2, r3
 22322 001c 7B88     		ldrh	r3, [r7, #2]	@ movhi
 22323 001e 42EA0303 		orr	r3, r2, r3
 22324 0022 9AB2     		uxth	r2, r3
 22325 0024 7B68     		ldr	r3, [r7, #4]
 22326 0026 9A81     		strh	r2, [r3, #12]	@ movhi
 22327 0028 0BE0     		b	.L72
 22328              	.L73:
 883:../Libraries/STM32F10x_StdPeriph_Driver/src/stm32f10x_tim.c ****   }
 884:../Libraries/STM32F10x_StdPeriph_Driver/src/stm32f10x_tim.c ****   else
 885:../Libraries/STM32F10x_StdPeriph_Driver/src/stm32f10x_tim.c ****   {
 886:../Libraries/STM32F10x_StdPeriph_Driver/src/stm32f10x_tim.c ****     /* Disable the Interrupt sources */
 887:../Libraries/STM32F10x_StdPeriph_Driver/src/stm32f10x_tim.c ****     TIMx->DIER &= (uint16_t)~TIM_IT;
 22329              		.loc 1 887 0
 22330 002a 7B68     		ldr	r3, [r7, #4]
 22331 002c 9B89     		ldrh	r3, [r3, #12]	@ movhi
 22332 002e 9AB2     		uxth	r2, r3
 22333 0030 7B88     		ldrh	r3, [r7, #2]	@ movhi
 22334 0032 6FEA0303 		mvn	r3, r3
 22335 0036 9BB2     		uxth	r3, r3
 22336 0038 02EA0303 		and	r3, r2, r3
 22337 003c 9AB2     		uxth	r2, r3
 22338 003e 7B68     		ldr	r3, [r7, #4]
 22339 0040 9A81     		strh	r2, [r3, #12]	@ movhi
 22340              	.L72:
 888:../Libraries/STM32F10x_StdPeriph_Driver/src/stm32f10x_tim.c ****   }
 889:../Libraries/STM32F10x_StdPeriph_Driver/src/stm32f10x_tim.c **** }
 22341              		.loc 1 889 0
 22342 0042 07F10C07 		add	r7, r7, #12
 22343 0046 BD46     		mov	sp, r7
 22344 0048 80BC     		pop	{r7}
 22345 004a 7047     		bx	lr
 22346              		.cfi_endproc
 22347              	.LFE44:
 22349              		.section	.text.TIM_GenerateEvent,"ax",%progbits
 22350              		.align	2
 22351              		.global	TIM_GenerateEvent
 22352              		.thumb
 22353              		.thumb_func
 22355              	TIM_GenerateEvent:
 22356              	.LFB45:
 890:../Libraries/STM32F10x_StdPeriph_Driver/src/stm32f10x_tim.c **** 
 891:../Libraries/STM32F10x_StdPeriph_Driver/src/stm32f10x_tim.c **** /**
 892:../Libraries/STM32F10x_StdPeriph_Driver/src/stm32f10x_tim.c ****   * @brief  Configures the TIMx event to be generate by software.
 893:../Libraries/STM32F10x_StdPeriph_Driver/src/stm32f10x_tim.c ****   * @param  TIMx: where x can be 1 to 17 to select the TIM peripheral.
 894:../Libraries/STM32F10x_StdPeriph_Driver/src/stm32f10x_tim.c ****   * @param  TIM_EventSource: specifies the event source.
 895:../Libraries/STM32F10x_StdPeriph_Driver/src/stm32f10x_tim.c ****   *   This parameter can be one or more of the following values:	   
 896:../Libraries/STM32F10x_StdPeriph_Driver/src/stm32f10x_tim.c ****   *     @arg TIM_EventSource_Update: Timer update Event source
 897:../Libraries/STM32F10x_StdPeriph_Driver/src/stm32f10x_tim.c ****   *     @arg TIM_EventSource_CC1: Timer Capture Compare 1 Event source
 898:../Libraries/STM32F10x_StdPeriph_Driver/src/stm32f10x_tim.c ****   *     @arg TIM_EventSource_CC2: Timer Capture Compare 2 Event source
 899:../Libraries/STM32F10x_StdPeriph_Driver/src/stm32f10x_tim.c ****   *     @arg TIM_EventSource_CC3: Timer Capture Compare 3 Event source
 900:../Libraries/STM32F10x_StdPeriph_Driver/src/stm32f10x_tim.c ****   *     @arg TIM_EventSource_CC4: Timer Capture Compare 4 Event source
 901:../Libraries/STM32F10x_StdPeriph_Driver/src/stm32f10x_tim.c ****   *     @arg TIM_EventSource_COM: Timer COM event source  
 902:../Libraries/STM32F10x_StdPeriph_Driver/src/stm32f10x_tim.c ****   *     @arg TIM_EventSource_Trigger: Timer Trigger Event source
 903:../Libraries/STM32F10x_StdPeriph_Driver/src/stm32f10x_tim.c ****   *     @arg TIM_EventSource_Break: Timer Break event source
 904:../Libraries/STM32F10x_StdPeriph_Driver/src/stm32f10x_tim.c ****   * @note 
 905:../Libraries/STM32F10x_StdPeriph_Driver/src/stm32f10x_tim.c ****   *   - TIM6 and TIM7 can only generate an update event. 
 906:../Libraries/STM32F10x_StdPeriph_Driver/src/stm32f10x_tim.c ****   *   - TIM_EventSource_COM and TIM_EventSource_Break are used only with TIM1 and TIM8.      
 907:../Libraries/STM32F10x_StdPeriph_Driver/src/stm32f10x_tim.c ****   * @retval None
 908:../Libraries/STM32F10x_StdPeriph_Driver/src/stm32f10x_tim.c ****   */
 909:../Libraries/STM32F10x_StdPeriph_Driver/src/stm32f10x_tim.c **** void TIM_GenerateEvent(TIM_TypeDef* TIMx, uint16_t TIM_EventSource)
 910:../Libraries/STM32F10x_StdPeriph_Driver/src/stm32f10x_tim.c **** { 
 22357              		.loc 1 910 0
 22358              		.cfi_startproc
 22359              		@ args = 0, pretend = 0, frame = 8
 22360              		@ frame_needed = 1, uses_anonymous_args = 0
 22361              		@ link register save eliminated.
 22362 0000 80B4     		push	{r7}
 22363              	.LCFI48:
 22364              		.cfi_def_cfa_offset 4
 22365 0002 83B0     		sub	sp, sp, #12
 22366              	.LCFI49:
 22367              		.cfi_def_cfa_offset 16
 22368 0004 00AF     		add	r7, sp, #0
 22369              		.cfi_offset 7, -4
 22370              	.LCFI50:
 22371              		.cfi_def_cfa_register 7
 22372 0006 7860     		str	r0, [r7, #4]
 22373 0008 0B46     		mov	r3, r1
 22374 000a 7B80     		strh	r3, [r7, #2]	@ movhi
 911:../Libraries/STM32F10x_StdPeriph_Driver/src/stm32f10x_tim.c ****   /* Check the parameters */
 912:../Libraries/STM32F10x_StdPeriph_Driver/src/stm32f10x_tim.c ****   assert_param(IS_TIM_ALL_PERIPH(TIMx));
 913:../Libraries/STM32F10x_StdPeriph_Driver/src/stm32f10x_tim.c ****   assert_param(IS_TIM_EVENT_SOURCE(TIM_EventSource));
 914:../Libraries/STM32F10x_StdPeriph_Driver/src/stm32f10x_tim.c ****   
 915:../Libraries/STM32F10x_StdPeriph_Driver/src/stm32f10x_tim.c ****   /* Set the event sources */
 916:../Libraries/STM32F10x_StdPeriph_Driver/src/stm32f10x_tim.c ****   TIMx->EGR = TIM_EventSource;
 22375              		.loc 1 916 0
 22376 000c 7B68     		ldr	r3, [r7, #4]
 22377 000e 7A88     		ldrh	r2, [r7, #2]	@ movhi
 22378 0010 9A82     		strh	r2, [r3, #20]	@ movhi
 917:../Libraries/STM32F10x_StdPeriph_Driver/src/stm32f10x_tim.c **** }
 22379              		.loc 1 917 0
 22380 0012 07F10C07 		add	r7, r7, #12
 22381 0016 BD46     		mov	sp, r7
 22382 0018 80BC     		pop	{r7}
 22383 001a 7047     		bx	lr
 22384              		.cfi_endproc
 22385              	.LFE45:
 22387              		.section	.text.TIM_DMAConfig,"ax",%progbits
 22388              		.align	2
 22389              		.global	TIM_DMAConfig
 22390              		.thumb
 22391              		.thumb_func
 22393              	TIM_DMAConfig:
 22394              	.LFB46:
 918:../Libraries/STM32F10x_StdPeriph_Driver/src/stm32f10x_tim.c **** 
 919:../Libraries/STM32F10x_StdPeriph_Driver/src/stm32f10x_tim.c **** /**
 920:../Libraries/STM32F10x_StdPeriph_Driver/src/stm32f10x_tim.c ****   * @brief  Configures the TIMx's DMA interface.
 921:../Libraries/STM32F10x_StdPeriph_Driver/src/stm32f10x_tim.c ****   * @param  TIMx: where x can be  1, 2, 3, 4, 5, 8, 15, 16 or 17 to select 
 922:../Libraries/STM32F10x_StdPeriph_Driver/src/stm32f10x_tim.c ****   *   the TIM peripheral.
 923:../Libraries/STM32F10x_StdPeriph_Driver/src/stm32f10x_tim.c ****   * @param  TIM_DMABase: DMA Base address.
 924:../Libraries/STM32F10x_StdPeriph_Driver/src/stm32f10x_tim.c ****   *   This parameter can be one of the following values:
 925:../Libraries/STM32F10x_StdPeriph_Driver/src/stm32f10x_tim.c ****   *     @arg TIM_DMABase_CR, TIM_DMABase_CR2, TIM_DMABase_SMCR,
 926:../Libraries/STM32F10x_StdPeriph_Driver/src/stm32f10x_tim.c ****   *          TIM_DMABase_DIER, TIM1_DMABase_SR, TIM_DMABase_EGR,
 927:../Libraries/STM32F10x_StdPeriph_Driver/src/stm32f10x_tim.c ****   *          TIM_DMABase_CCMR1, TIM_DMABase_CCMR2, TIM_DMABase_CCER,
 928:../Libraries/STM32F10x_StdPeriph_Driver/src/stm32f10x_tim.c ****   *          TIM_DMABase_CNT, TIM_DMABase_PSC, TIM_DMABase_ARR,
 929:../Libraries/STM32F10x_StdPeriph_Driver/src/stm32f10x_tim.c ****   *          TIM_DMABase_RCR, TIM_DMABase_CCR1, TIM_DMABase_CCR2,
 930:../Libraries/STM32F10x_StdPeriph_Driver/src/stm32f10x_tim.c ****   *          TIM_DMABase_CCR3, TIM_DMABase_CCR4, TIM_DMABase_BDTR,
 931:../Libraries/STM32F10x_StdPeriph_Driver/src/stm32f10x_tim.c ****   *          TIM_DMABase_DCR.
 932:../Libraries/STM32F10x_StdPeriph_Driver/src/stm32f10x_tim.c ****   * @param  TIM_DMABurstLength: DMA Burst length.
 933:../Libraries/STM32F10x_StdPeriph_Driver/src/stm32f10x_tim.c ****   *   This parameter can be one value between:
 934:../Libraries/STM32F10x_StdPeriph_Driver/src/stm32f10x_tim.c ****   *   TIM_DMABurstLength_1Transfer and TIM_DMABurstLength_18Transfers.
 935:../Libraries/STM32F10x_StdPeriph_Driver/src/stm32f10x_tim.c ****   * @retval None
 936:../Libraries/STM32F10x_StdPeriph_Driver/src/stm32f10x_tim.c ****   */
 937:../Libraries/STM32F10x_StdPeriph_Driver/src/stm32f10x_tim.c **** void TIM_DMAConfig(TIM_TypeDef* TIMx, uint16_t TIM_DMABase, uint16_t TIM_DMABurstLength)
 938:../Libraries/STM32F10x_StdPeriph_Driver/src/stm32f10x_tim.c **** {
 22395              		.loc 1 938 0
 22396              		.cfi_startproc
 22397              		@ args = 0, pretend = 0, frame = 8
 22398              		@ frame_needed = 1, uses_anonymous_args = 0
 22399              		@ link register save eliminated.
 22400 0000 80B4     		push	{r7}
 22401              	.LCFI51:
 22402              		.cfi_def_cfa_offset 4
 22403 0002 83B0     		sub	sp, sp, #12
 22404              	.LCFI52:
 22405              		.cfi_def_cfa_offset 16
 22406 0004 00AF     		add	r7, sp, #0
 22407              		.cfi_offset 7, -4
 22408              	.LCFI53:
 22409              		.cfi_def_cfa_register 7
 22410 0006 7860     		str	r0, [r7, #4]
 22411 0008 1346     		mov	r3, r2
 22412 000a 0A46     		mov	r2, r1	@ movhi
 22413 000c 7A80     		strh	r2, [r7, #2]	@ movhi
 22414 000e 3B80     		strh	r3, [r7, #0]	@ movhi
 939:../Libraries/STM32F10x_StdPeriph_Driver/src/stm32f10x_tim.c ****   /* Check the parameters */
 940:../Libraries/STM32F10x_StdPeriph_Driver/src/stm32f10x_tim.c ****   assert_param(IS_TIM_LIST4_PERIPH(TIMx));
 941:../Libraries/STM32F10x_StdPeriph_Driver/src/stm32f10x_tim.c ****   assert_param(IS_TIM_DMA_BASE(TIM_DMABase));
 942:../Libraries/STM32F10x_StdPeriph_Driver/src/stm32f10x_tim.c ****   assert_param(IS_TIM_DMA_LENGTH(TIM_DMABurstLength));
 943:../Libraries/STM32F10x_StdPeriph_Driver/src/stm32f10x_tim.c ****   /* Set the DMA Base and the DMA Burst Length */
 944:../Libraries/STM32F10x_StdPeriph_Driver/src/stm32f10x_tim.c ****   TIMx->DCR = TIM_DMABase | TIM_DMABurstLength;
 22415              		.loc 1 944 0
 22416 0010 7A88     		ldrh	r2, [r7, #2]	@ movhi
 22417 0012 3B88     		ldrh	r3, [r7, #0]	@ movhi
 22418 0014 42EA0303 		orr	r3, r2, r3
 22419 0018 9AB2     		uxth	r2, r3
 22420 001a 7B68     		ldr	r3, [r7, #4]
 22421 001c A3F84820 		strh	r2, [r3, #72]	@ movhi
 945:../Libraries/STM32F10x_StdPeriph_Driver/src/stm32f10x_tim.c **** }
 22422              		.loc 1 945 0
 22423 0020 07F10C07 		add	r7, r7, #12
 22424 0024 BD46     		mov	sp, r7
 22425 0026 80BC     		pop	{r7}
 22426 0028 7047     		bx	lr
 22427              		.cfi_endproc
 22428              	.LFE46:
 22430 002a 00BF     		.section	.text.TIM_DMACmd,"ax",%progbits
 22431              		.align	2
 22432              		.global	TIM_DMACmd
 22433              		.thumb
 22434              		.thumb_func
 22436              	TIM_DMACmd:
 22437              	.LFB47:
 946:../Libraries/STM32F10x_StdPeriph_Driver/src/stm32f10x_tim.c **** 
 947:../Libraries/STM32F10x_StdPeriph_Driver/src/stm32f10x_tim.c **** /**
 948:../Libraries/STM32F10x_StdPeriph_Driver/src/stm32f10x_tim.c ****   * @brief  Enables or disables the TIMx's DMA Requests.
 949:../Libraries/STM32F10x_StdPeriph_Driver/src/stm32f10x_tim.c ****   * @param  TIMx: where x can be  1, 2, 3, 4, 5, 6, 7, 8, 15, 16 or 17 
 950:../Libraries/STM32F10x_StdPeriph_Driver/src/stm32f10x_tim.c ****   *   to select the TIM peripheral. 
 951:../Libraries/STM32F10x_StdPeriph_Driver/src/stm32f10x_tim.c ****   * @param  TIM_DMASource: specifies the DMA Request sources.
 952:../Libraries/STM32F10x_StdPeriph_Driver/src/stm32f10x_tim.c ****   *   This parameter can be any combination of the following values:
 953:../Libraries/STM32F10x_StdPeriph_Driver/src/stm32f10x_tim.c ****   *     @arg TIM_DMA_Update: TIM update Interrupt source
 954:../Libraries/STM32F10x_StdPeriph_Driver/src/stm32f10x_tim.c ****   *     @arg TIM_DMA_CC1: TIM Capture Compare 1 DMA source
 955:../Libraries/STM32F10x_StdPeriph_Driver/src/stm32f10x_tim.c ****   *     @arg TIM_DMA_CC2: TIM Capture Compare 2 DMA source
 956:../Libraries/STM32F10x_StdPeriph_Driver/src/stm32f10x_tim.c ****   *     @arg TIM_DMA_CC3: TIM Capture Compare 3 DMA source
 957:../Libraries/STM32F10x_StdPeriph_Driver/src/stm32f10x_tim.c ****   *     @arg TIM_DMA_CC4: TIM Capture Compare 4 DMA source
 958:../Libraries/STM32F10x_StdPeriph_Driver/src/stm32f10x_tim.c ****   *     @arg TIM_DMA_COM: TIM Commutation DMA source
 959:../Libraries/STM32F10x_StdPeriph_Driver/src/stm32f10x_tim.c ****   *     @arg TIM_DMA_Trigger: TIM Trigger DMA source
 960:../Libraries/STM32F10x_StdPeriph_Driver/src/stm32f10x_tim.c ****   * @param  NewState: new state of the DMA Request sources.
 961:../Libraries/STM32F10x_StdPeriph_Driver/src/stm32f10x_tim.c ****   *   This parameter can be: ENABLE or DISABLE.
 962:../Libraries/STM32F10x_StdPeriph_Driver/src/stm32f10x_tim.c ****   * @retval None
 963:../Libraries/STM32F10x_StdPeriph_Driver/src/stm32f10x_tim.c ****   */
 964:../Libraries/STM32F10x_StdPeriph_Driver/src/stm32f10x_tim.c **** void TIM_DMACmd(TIM_TypeDef* TIMx, uint16_t TIM_DMASource, FunctionalState NewState)
 965:../Libraries/STM32F10x_StdPeriph_Driver/src/stm32f10x_tim.c **** { 
 22438              		.loc 1 965 0
 22439              		.cfi_startproc
 22440              		@ args = 0, pretend = 0, frame = 8
 22441              		@ frame_needed = 1, uses_anonymous_args = 0
 22442              		@ link register save eliminated.
 22443 0000 80B4     		push	{r7}
 22444              	.LCFI54:
 22445              		.cfi_def_cfa_offset 4
 22446 0002 83B0     		sub	sp, sp, #12
 22447              	.LCFI55:
 22448              		.cfi_def_cfa_offset 16
 22449 0004 00AF     		add	r7, sp, #0
 22450              		.cfi_offset 7, -4
 22451              	.LCFI56:
 22452              		.cfi_def_cfa_register 7
 22453 0006 7860     		str	r0, [r7, #4]
 22454 0008 1346     		mov	r3, r2
 22455 000a 0A46     		mov	r2, r1	@ movhi
 22456 000c 7A80     		strh	r2, [r7, #2]	@ movhi
 22457 000e 7B70     		strb	r3, [r7, #1]
 966:../Libraries/STM32F10x_StdPeriph_Driver/src/stm32f10x_tim.c ****   /* Check the parameters */
 967:../Libraries/STM32F10x_StdPeriph_Driver/src/stm32f10x_tim.c ****   assert_param(IS_TIM_LIST9_PERIPH(TIMx));
 968:../Libraries/STM32F10x_StdPeriph_Driver/src/stm32f10x_tim.c ****   assert_param(IS_TIM_DMA_SOURCE(TIM_DMASource));
 969:../Libraries/STM32F10x_StdPeriph_Driver/src/stm32f10x_tim.c ****   assert_param(IS_FUNCTIONAL_STATE(NewState));
 970:../Libraries/STM32F10x_StdPeriph_Driver/src/stm32f10x_tim.c ****   
 971:../Libraries/STM32F10x_StdPeriph_Driver/src/stm32f10x_tim.c ****   if (NewState != DISABLE)
 22458              		.loc 1 971 0
 22459 0010 7B78     		ldrb	r3, [r7, #1]	@ zero_extendqisi2
 22460 0012 002B     		cmp	r3, #0
 22461 0014 09D0     		beq	.L78
 972:../Libraries/STM32F10x_StdPeriph_Driver/src/stm32f10x_tim.c ****   {
 973:../Libraries/STM32F10x_StdPeriph_Driver/src/stm32f10x_tim.c ****     /* Enable the DMA sources */
 974:../Libraries/STM32F10x_StdPeriph_Driver/src/stm32f10x_tim.c ****     TIMx->DIER |= TIM_DMASource; 
 22462              		.loc 1 974 0
 22463 0016 7B68     		ldr	r3, [r7, #4]
 22464 0018 9B89     		ldrh	r3, [r3, #12]	@ movhi
 22465 001a 9AB2     		uxth	r2, r3
 22466 001c 7B88     		ldrh	r3, [r7, #2]	@ movhi
 22467 001e 42EA0303 		orr	r3, r2, r3
 22468 0022 9AB2     		uxth	r2, r3
 22469 0024 7B68     		ldr	r3, [r7, #4]
 22470 0026 9A81     		strh	r2, [r3, #12]	@ movhi
 22471 0028 0BE0     		b	.L77
 22472              	.L78:
 975:../Libraries/STM32F10x_StdPeriph_Driver/src/stm32f10x_tim.c ****   }
 976:../Libraries/STM32F10x_StdPeriph_Driver/src/stm32f10x_tim.c ****   else
 977:../Libraries/STM32F10x_StdPeriph_Driver/src/stm32f10x_tim.c ****   {
 978:../Libraries/STM32F10x_StdPeriph_Driver/src/stm32f10x_tim.c ****     /* Disable the DMA sources */
 979:../Libraries/STM32F10x_StdPeriph_Driver/src/stm32f10x_tim.c ****     TIMx->DIER &= (uint16_t)~TIM_DMASource;
 22473              		.loc 1 979 0
 22474 002a 7B68     		ldr	r3, [r7, #4]
 22475 002c 9B89     		ldrh	r3, [r3, #12]	@ movhi
 22476 002e 9AB2     		uxth	r2, r3
 22477 0030 7B88     		ldrh	r3, [r7, #2]	@ movhi
 22478 0032 6FEA0303 		mvn	r3, r3
 22479 0036 9BB2     		uxth	r3, r3
 22480 0038 02EA0303 		and	r3, r2, r3
 22481 003c 9AB2     		uxth	r2, r3
 22482 003e 7B68     		ldr	r3, [r7, #4]
 22483 0040 9A81     		strh	r2, [r3, #12]	@ movhi
 22484              	.L77:
 980:../Libraries/STM32F10x_StdPeriph_Driver/src/stm32f10x_tim.c ****   }
 981:../Libraries/STM32F10x_StdPeriph_Driver/src/stm32f10x_tim.c **** }
 22485              		.loc 1 981 0
 22486 0042 07F10C07 		add	r7, r7, #12
 22487 0046 BD46     		mov	sp, r7
 22488 0048 80BC     		pop	{r7}
 22489 004a 7047     		bx	lr
 22490              		.cfi_endproc
 22491              	.LFE47:
 22493              		.section	.text.TIM_InternalClockConfig,"ax",%progbits
 22494              		.align	2
 22495              		.global	TIM_InternalClockConfig
 22496              		.thumb
 22497              		.thumb_func
 22499              	TIM_InternalClockConfig:
 22500              	.LFB48:
 982:../Libraries/STM32F10x_StdPeriph_Driver/src/stm32f10x_tim.c **** 
 983:../Libraries/STM32F10x_StdPeriph_Driver/src/stm32f10x_tim.c **** /**
 984:../Libraries/STM32F10x_StdPeriph_Driver/src/stm32f10x_tim.c ****   * @brief  Configures the TIMx internal Clock
 985:../Libraries/STM32F10x_StdPeriph_Driver/src/stm32f10x_tim.c ****   * @param  TIMx: where x can be  1, 2, 3, 4, 5, 8, 9, 12 or 15
 986:../Libraries/STM32F10x_StdPeriph_Driver/src/stm32f10x_tim.c ****   *         to select the TIM peripheral.
 987:../Libraries/STM32F10x_StdPeriph_Driver/src/stm32f10x_tim.c ****   * @retval None
 988:../Libraries/STM32F10x_StdPeriph_Driver/src/stm32f10x_tim.c ****   */
 989:../Libraries/STM32F10x_StdPeriph_Driver/src/stm32f10x_tim.c **** void TIM_InternalClockConfig(TIM_TypeDef* TIMx)
 990:../Libraries/STM32F10x_StdPeriph_Driver/src/stm32f10x_tim.c **** {
 22501              		.loc 1 990 0
 22502              		.cfi_startproc
 22503              		@ args = 0, pretend = 0, frame = 8
 22504              		@ frame_needed = 1, uses_anonymous_args = 0
 22505              		@ link register save eliminated.
 22506 0000 80B4     		push	{r7}
 22507              	.LCFI57:
 22508              		.cfi_def_cfa_offset 4
 22509 0002 83B0     		sub	sp, sp, #12
 22510              	.LCFI58:
 22511              		.cfi_def_cfa_offset 16
 22512 0004 00AF     		add	r7, sp, #0
 22513              		.cfi_offset 7, -4
 22514              	.LCFI59:
 22515              		.cfi_def_cfa_register 7
 22516 0006 7860     		str	r0, [r7, #4]
 991:../Libraries/STM32F10x_StdPeriph_Driver/src/stm32f10x_tim.c ****   /* Check the parameters */
 992:../Libraries/STM32F10x_StdPeriph_Driver/src/stm32f10x_tim.c ****   assert_param(IS_TIM_LIST6_PERIPH(TIMx));
 993:../Libraries/STM32F10x_StdPeriph_Driver/src/stm32f10x_tim.c ****   /* Disable slave mode to clock the prescaler directly with the internal clock */
 994:../Libraries/STM32F10x_StdPeriph_Driver/src/stm32f10x_tim.c ****   TIMx->SMCR &=  (uint16_t)(~((uint16_t)TIM_SMCR_SMS));
 22517              		.loc 1 994 0
 22518 0008 7B68     		ldr	r3, [r7, #4]
 22519 000a 1B89     		ldrh	r3, [r3, #8]	@ movhi
 22520 000c 9BB2     		uxth	r3, r3
 22521 000e 23F00703 		bic	r3, r3, #7
 22522 0012 9AB2     		uxth	r2, r3
 22523 0014 7B68     		ldr	r3, [r7, #4]
 22524 0016 1A81     		strh	r2, [r3, #8]	@ movhi
 995:../Libraries/STM32F10x_StdPeriph_Driver/src/stm32f10x_tim.c **** }
 22525              		.loc 1 995 0
 22526 0018 07F10C07 		add	r7, r7, #12
 22527 001c BD46     		mov	sp, r7
 22528 001e 80BC     		pop	{r7}
 22529 0020 7047     		bx	lr
 22530              		.cfi_endproc
 22531              	.LFE48:
 22533 0022 00BF     		.section	.text.TIM_ITRxExternalClockConfig,"ax",%progbits
 22534              		.align	2
 22535              		.global	TIM_ITRxExternalClockConfig
 22536              		.thumb
 22537              		.thumb_func
 22539              	TIM_ITRxExternalClockConfig:
 22540              	.LFB49:
 996:../Libraries/STM32F10x_StdPeriph_Driver/src/stm32f10x_tim.c **** 
 997:../Libraries/STM32F10x_StdPeriph_Driver/src/stm32f10x_tim.c **** /**
 998:../Libraries/STM32F10x_StdPeriph_Driver/src/stm32f10x_tim.c ****   * @brief  Configures the TIMx Internal Trigger as External Clock
 999:../Libraries/STM32F10x_StdPeriph_Driver/src/stm32f10x_tim.c ****   * @param  TIMx: where x can be  1, 2, 3, 4, 5, 9, 12 or 15 to select the TIM peripheral.
1000:../Libraries/STM32F10x_StdPeriph_Driver/src/stm32f10x_tim.c ****   * @param  TIM_ITRSource: Trigger source.
1001:../Libraries/STM32F10x_StdPeriph_Driver/src/stm32f10x_tim.c ****   *   This parameter can be one of the following values:
1002:../Libraries/STM32F10x_StdPeriph_Driver/src/stm32f10x_tim.c ****   * @param  TIM_TS_ITR0: Internal Trigger 0
1003:../Libraries/STM32F10x_StdPeriph_Driver/src/stm32f10x_tim.c ****   * @param  TIM_TS_ITR1: Internal Trigger 1
1004:../Libraries/STM32F10x_StdPeriph_Driver/src/stm32f10x_tim.c ****   * @param  TIM_TS_ITR2: Internal Trigger 2
1005:../Libraries/STM32F10x_StdPeriph_Driver/src/stm32f10x_tim.c ****   * @param  TIM_TS_ITR3: Internal Trigger 3
1006:../Libraries/STM32F10x_StdPeriph_Driver/src/stm32f10x_tim.c ****   * @retval None
1007:../Libraries/STM32F10x_StdPeriph_Driver/src/stm32f10x_tim.c ****   */
1008:../Libraries/STM32F10x_StdPeriph_Driver/src/stm32f10x_tim.c **** void TIM_ITRxExternalClockConfig(TIM_TypeDef* TIMx, uint16_t TIM_InputTriggerSource)
1009:../Libraries/STM32F10x_StdPeriph_Driver/src/stm32f10x_tim.c **** {
 22541              		.loc 1 1009 0
 22542              		.cfi_startproc
 22543              		@ args = 0, pretend = 0, frame = 8
 22544              		@ frame_needed = 1, uses_anonymous_args = 0
 22545 0000 80B5     		push	{r7, lr}
 22546              	.LCFI60:
 22547              		.cfi_def_cfa_offset 8
 22548 0002 82B0     		sub	sp, sp, #8
 22549              	.LCFI61:
 22550              		.cfi_def_cfa_offset 16
 22551 0004 00AF     		add	r7, sp, #0
 22552              		.cfi_offset 14, -4
 22553              		.cfi_offset 7, -8
 22554              	.LCFI62:
 22555              		.cfi_def_cfa_register 7
 22556 0006 7860     		str	r0, [r7, #4]
 22557 0008 0B46     		mov	r3, r1
 22558 000a 7B80     		strh	r3, [r7, #2]	@ movhi
1010:../Libraries/STM32F10x_StdPeriph_Driver/src/stm32f10x_tim.c ****   /* Check the parameters */
1011:../Libraries/STM32F10x_StdPeriph_Driver/src/stm32f10x_tim.c ****   assert_param(IS_TIM_LIST6_PERIPH(TIMx));
1012:../Libraries/STM32F10x_StdPeriph_Driver/src/stm32f10x_tim.c ****   assert_param(IS_TIM_INTERNAL_TRIGGER_SELECTION(TIM_InputTriggerSource));
1013:../Libraries/STM32F10x_StdPeriph_Driver/src/stm32f10x_tim.c ****   /* Select the Internal Trigger */
1014:../Libraries/STM32F10x_StdPeriph_Driver/src/stm32f10x_tim.c ****   TIM_SelectInputTrigger(TIMx, TIM_InputTriggerSource);
 22559              		.loc 1 1014 0
 22560 000c 7B88     		ldrh	r3, [r7, #2]
 22561 000e 7868     		ldr	r0, [r7, #4]
 22562 0010 1946     		mov	r1, r3
 22563 0012 FFF7FEFF 		bl	TIM_SelectInputTrigger
1015:../Libraries/STM32F10x_StdPeriph_Driver/src/stm32f10x_tim.c ****   /* Select the External clock mode1 */
1016:../Libraries/STM32F10x_StdPeriph_Driver/src/stm32f10x_tim.c ****   TIMx->SMCR |= TIM_SlaveMode_External1;
 22564              		.loc 1 1016 0
 22565 0016 7B68     		ldr	r3, [r7, #4]
 22566 0018 1B89     		ldrh	r3, [r3, #8]	@ movhi
 22567 001a 9BB2     		uxth	r3, r3
 22568 001c 43F00703 		orr	r3, r3, #7
 22569 0020 9AB2     		uxth	r2, r3
 22570 0022 7B68     		ldr	r3, [r7, #4]
 22571 0024 1A81     		strh	r2, [r3, #8]	@ movhi
1017:../Libraries/STM32F10x_StdPeriph_Driver/src/stm32f10x_tim.c **** }
 22572              		.loc 1 1017 0
 22573 0026 07F10807 		add	r7, r7, #8
 22574 002a BD46     		mov	sp, r7
 22575 002c 80BD     		pop	{r7, pc}
 22576              		.cfi_endproc
 22577              	.LFE49:
 22579 002e 00BF     		.section	.text.TIM_TIxExternalClockConfig,"ax",%progbits
 22580              		.align	2
 22581              		.global	TIM_TIxExternalClockConfig
 22582              		.thumb
 22583              		.thumb_func
 22585              	TIM_TIxExternalClockConfig:
 22586              	.LFB50:
1018:../Libraries/STM32F10x_StdPeriph_Driver/src/stm32f10x_tim.c **** 
1019:../Libraries/STM32F10x_StdPeriph_Driver/src/stm32f10x_tim.c **** /**
1020:../Libraries/STM32F10x_StdPeriph_Driver/src/stm32f10x_tim.c ****   * @brief  Configures the TIMx Trigger as External Clock
1021:../Libraries/STM32F10x_StdPeriph_Driver/src/stm32f10x_tim.c ****   * @param  TIMx: where x can be  1, 2, 3, 4, 5, 9, 12 or 15 to select the TIM peripheral.
1022:../Libraries/STM32F10x_StdPeriph_Driver/src/stm32f10x_tim.c ****   * @param  TIM_TIxExternalCLKSource: Trigger source.
1023:../Libraries/STM32F10x_StdPeriph_Driver/src/stm32f10x_tim.c ****   *   This parameter can be one of the following values:
1024:../Libraries/STM32F10x_StdPeriph_Driver/src/stm32f10x_tim.c ****   *     @arg TIM_TIxExternalCLK1Source_TI1ED: TI1 Edge Detector
1025:../Libraries/STM32F10x_StdPeriph_Driver/src/stm32f10x_tim.c ****   *     @arg TIM_TIxExternalCLK1Source_TI1: Filtered Timer Input 1
1026:../Libraries/STM32F10x_StdPeriph_Driver/src/stm32f10x_tim.c ****   *     @arg TIM_TIxExternalCLK1Source_TI2: Filtered Timer Input 2
1027:../Libraries/STM32F10x_StdPeriph_Driver/src/stm32f10x_tim.c ****   * @param  TIM_ICPolarity: specifies the TIx Polarity.
1028:../Libraries/STM32F10x_StdPeriph_Driver/src/stm32f10x_tim.c ****   *   This parameter can be one of the following values:
1029:../Libraries/STM32F10x_StdPeriph_Driver/src/stm32f10x_tim.c ****   *     @arg TIM_ICPolarity_Rising
1030:../Libraries/STM32F10x_StdPeriph_Driver/src/stm32f10x_tim.c ****   *     @arg TIM_ICPolarity_Falling
1031:../Libraries/STM32F10x_StdPeriph_Driver/src/stm32f10x_tim.c ****   * @param  ICFilter : specifies the filter value.
1032:../Libraries/STM32F10x_StdPeriph_Driver/src/stm32f10x_tim.c ****   *   This parameter must be a value between 0x0 and 0xF.
1033:../Libraries/STM32F10x_StdPeriph_Driver/src/stm32f10x_tim.c ****   * @retval None
1034:../Libraries/STM32F10x_StdPeriph_Driver/src/stm32f10x_tim.c ****   */
1035:../Libraries/STM32F10x_StdPeriph_Driver/src/stm32f10x_tim.c **** void TIM_TIxExternalClockConfig(TIM_TypeDef* TIMx, uint16_t TIM_TIxExternalCLKSource,
1036:../Libraries/STM32F10x_StdPeriph_Driver/src/stm32f10x_tim.c ****                                 uint16_t TIM_ICPolarity, uint16_t ICFilter)
1037:../Libraries/STM32F10x_StdPeriph_Driver/src/stm32f10x_tim.c **** {
 22587              		.loc 1 1037 0
 22588              		.cfi_startproc
 22589              		@ args = 0, pretend = 0, frame = 16
 22590              		@ frame_needed = 1, uses_anonymous_args = 0
 22591 0000 80B5     		push	{r7, lr}
 22592              	.LCFI63:
 22593              		.cfi_def_cfa_offset 8
 22594 0002 84B0     		sub	sp, sp, #16
 22595              	.LCFI64:
 22596              		.cfi_def_cfa_offset 24
 22597 0004 00AF     		add	r7, sp, #0
 22598              		.cfi_offset 14, -4
 22599              		.cfi_offset 7, -8
 22600              	.LCFI65:
 22601              		.cfi_def_cfa_register 7
 22602 0006 F860     		str	r0, [r7, #12]
 22603 0008 7981     		strh	r1, [r7, #10]	@ movhi
 22604 000a 3A81     		strh	r2, [r7, #8]	@ movhi
 22605 000c FB80     		strh	r3, [r7, #6]	@ movhi
1038:../Libraries/STM32F10x_StdPeriph_Driver/src/stm32f10x_tim.c ****   /* Check the parameters */
1039:../Libraries/STM32F10x_StdPeriph_Driver/src/stm32f10x_tim.c ****   assert_param(IS_TIM_LIST6_PERIPH(TIMx));
1040:../Libraries/STM32F10x_StdPeriph_Driver/src/stm32f10x_tim.c ****   assert_param(IS_TIM_TIXCLK_SOURCE(TIM_TIxExternalCLKSource));
1041:../Libraries/STM32F10x_StdPeriph_Driver/src/stm32f10x_tim.c ****   assert_param(IS_TIM_IC_POLARITY(TIM_ICPolarity));
1042:../Libraries/STM32F10x_StdPeriph_Driver/src/stm32f10x_tim.c ****   assert_param(IS_TIM_IC_FILTER(ICFilter));
1043:../Libraries/STM32F10x_StdPeriph_Driver/src/stm32f10x_tim.c ****   /* Configure the Timer Input Clock Source */
1044:../Libraries/STM32F10x_StdPeriph_Driver/src/stm32f10x_tim.c ****   if (TIM_TIxExternalCLKSource == TIM_TIxExternalCLK1Source_TI2)
 22606              		.loc 1 1044 0
 22607 000e 7B89     		ldrh	r3, [r7, #10]
 22608 0010 602B     		cmp	r3, #96
 22609 0012 08D1     		bne	.L83
1045:../Libraries/STM32F10x_StdPeriph_Driver/src/stm32f10x_tim.c ****   {
1046:../Libraries/STM32F10x_StdPeriph_Driver/src/stm32f10x_tim.c ****     TI2_Config(TIMx, TIM_ICPolarity, TIM_ICSelection_DirectTI, ICFilter);
 22610              		.loc 1 1046 0
 22611 0014 3A89     		ldrh	r2, [r7, #8]
 22612 0016 FB88     		ldrh	r3, [r7, #6]
 22613 0018 F868     		ldr	r0, [r7, #12]
 22614 001a 1146     		mov	r1, r2
 22615 001c 4FF00102 		mov	r2, #1
 22616 0020 FFF7FEFF 		bl	TI2_Config
 22617 0024 07E0     		b	.L84
 22618              	.L83:
1047:../Libraries/STM32F10x_StdPeriph_Driver/src/stm32f10x_tim.c ****   }
1048:../Libraries/STM32F10x_StdPeriph_Driver/src/stm32f10x_tim.c ****   else
1049:../Libraries/STM32F10x_StdPeriph_Driver/src/stm32f10x_tim.c ****   {
1050:../Libraries/STM32F10x_StdPeriph_Driver/src/stm32f10x_tim.c ****     TI1_Config(TIMx, TIM_ICPolarity, TIM_ICSelection_DirectTI, ICFilter);
 22619              		.loc 1 1050 0
 22620 0026 3A89     		ldrh	r2, [r7, #8]
 22621 0028 FB88     		ldrh	r3, [r7, #6]
 22622 002a F868     		ldr	r0, [r7, #12]
 22623 002c 1146     		mov	r1, r2
 22624 002e 4FF00102 		mov	r2, #1
 22625 0032 FFF7FEFF 		bl	TI1_Config
 22626              	.L84:
1051:../Libraries/STM32F10x_StdPeriph_Driver/src/stm32f10x_tim.c ****   }
1052:../Libraries/STM32F10x_StdPeriph_Driver/src/stm32f10x_tim.c ****   /* Select the Trigger source */
1053:../Libraries/STM32F10x_StdPeriph_Driver/src/stm32f10x_tim.c ****   TIM_SelectInputTrigger(TIMx, TIM_TIxExternalCLKSource);
 22627              		.loc 1 1053 0
 22628 0036 7B89     		ldrh	r3, [r7, #10]
 22629 0038 F868     		ldr	r0, [r7, #12]
 22630 003a 1946     		mov	r1, r3
 22631 003c FFF7FEFF 		bl	TIM_SelectInputTrigger
1054:../Libraries/STM32F10x_StdPeriph_Driver/src/stm32f10x_tim.c ****   /* Select the External clock mode1 */
1055:../Libraries/STM32F10x_StdPeriph_Driver/src/stm32f10x_tim.c ****   TIMx->SMCR |= TIM_SlaveMode_External1;
 22632              		.loc 1 1055 0
 22633 0040 FB68     		ldr	r3, [r7, #12]
 22634 0042 1B89     		ldrh	r3, [r3, #8]	@ movhi
 22635 0044 9BB2     		uxth	r3, r3
 22636 0046 43F00703 		orr	r3, r3, #7
 22637 004a 9AB2     		uxth	r2, r3
 22638 004c FB68     		ldr	r3, [r7, #12]
 22639 004e 1A81     		strh	r2, [r3, #8]	@ movhi
1056:../Libraries/STM32F10x_StdPeriph_Driver/src/stm32f10x_tim.c **** }
 22640              		.loc 1 1056 0
 22641 0050 07F11007 		add	r7, r7, #16
 22642 0054 BD46     		mov	sp, r7
 22643 0056 80BD     		pop	{r7, pc}
 22644              		.cfi_endproc
 22645              	.LFE50:
 22647              		.section	.text.TIM_ETRClockMode1Config,"ax",%progbits
 22648              		.align	2
 22649              		.global	TIM_ETRClockMode1Config
 22650              		.thumb
 22651              		.thumb_func
 22653              	TIM_ETRClockMode1Config:
 22654              	.LFB51:
1057:../Libraries/STM32F10x_StdPeriph_Driver/src/stm32f10x_tim.c **** 
1058:../Libraries/STM32F10x_StdPeriph_Driver/src/stm32f10x_tim.c **** /**
1059:../Libraries/STM32F10x_StdPeriph_Driver/src/stm32f10x_tim.c ****   * @brief  Configures the External clock Mode1
1060:../Libraries/STM32F10x_StdPeriph_Driver/src/stm32f10x_tim.c ****   * @param  TIMx: where x can be  1, 2, 3, 4, 5 or 8 to select the TIM peripheral.
1061:../Libraries/STM32F10x_StdPeriph_Driver/src/stm32f10x_tim.c ****   * @param  TIM_ExtTRGPrescaler: The external Trigger Prescaler.
1062:../Libraries/STM32F10x_StdPeriph_Driver/src/stm32f10x_tim.c ****   *   This parameter can be one of the following values:
1063:../Libraries/STM32F10x_StdPeriph_Driver/src/stm32f10x_tim.c ****   *     @arg TIM_ExtTRGPSC_OFF: ETRP Prescaler OFF.
1064:../Libraries/STM32F10x_StdPeriph_Driver/src/stm32f10x_tim.c ****   *     @arg TIM_ExtTRGPSC_DIV2: ETRP frequency divided by 2.
1065:../Libraries/STM32F10x_StdPeriph_Driver/src/stm32f10x_tim.c ****   *     @arg TIM_ExtTRGPSC_DIV4: ETRP frequency divided by 4.
1066:../Libraries/STM32F10x_StdPeriph_Driver/src/stm32f10x_tim.c ****   *     @arg TIM_ExtTRGPSC_DIV8: ETRP frequency divided by 8.
1067:../Libraries/STM32F10x_StdPeriph_Driver/src/stm32f10x_tim.c ****   * @param  TIM_ExtTRGPolarity: The external Trigger Polarity.
1068:../Libraries/STM32F10x_StdPeriph_Driver/src/stm32f10x_tim.c ****   *   This parameter can be one of the following values:
1069:../Libraries/STM32F10x_StdPeriph_Driver/src/stm32f10x_tim.c ****   *     @arg TIM_ExtTRGPolarity_Inverted: active low or falling edge active.
1070:../Libraries/STM32F10x_StdPeriph_Driver/src/stm32f10x_tim.c ****   *     @arg TIM_ExtTRGPolarity_NonInverted: active high or rising edge active.
1071:../Libraries/STM32F10x_StdPeriph_Driver/src/stm32f10x_tim.c ****   * @param  ExtTRGFilter: External Trigger Filter.
1072:../Libraries/STM32F10x_StdPeriph_Driver/src/stm32f10x_tim.c ****   *   This parameter must be a value between 0x00 and 0x0F
1073:../Libraries/STM32F10x_StdPeriph_Driver/src/stm32f10x_tim.c ****   * @retval None
1074:../Libraries/STM32F10x_StdPeriph_Driver/src/stm32f10x_tim.c ****   */
1075:../Libraries/STM32F10x_StdPeriph_Driver/src/stm32f10x_tim.c **** void TIM_ETRClockMode1Config(TIM_TypeDef* TIMx, uint16_t TIM_ExtTRGPrescaler, uint16_t TIM_ExtTRGPo
1076:../Libraries/STM32F10x_StdPeriph_Driver/src/stm32f10x_tim.c ****                              uint16_t ExtTRGFilter)
1077:../Libraries/STM32F10x_StdPeriph_Driver/src/stm32f10x_tim.c **** {
 22655              		.loc 1 1077 0
 22656              		.cfi_startproc
 22657              		@ args = 0, pretend = 0, frame = 24
 22658              		@ frame_needed = 1, uses_anonymous_args = 0
 22659 0000 80B5     		push	{r7, lr}
 22660              	.LCFI66:
 22661              		.cfi_def_cfa_offset 8
 22662 0002 86B0     		sub	sp, sp, #24
 22663              	.LCFI67:
 22664              		.cfi_def_cfa_offset 32
 22665 0004 00AF     		add	r7, sp, #0
 22666              		.cfi_offset 14, -4
 22667              		.cfi_offset 7, -8
 22668              	.LCFI68:
 22669              		.cfi_def_cfa_register 7
 22670 0006 F860     		str	r0, [r7, #12]
 22671 0008 7981     		strh	r1, [r7, #10]	@ movhi
 22672 000a 3A81     		strh	r2, [r7, #8]	@ movhi
 22673 000c FB80     		strh	r3, [r7, #6]	@ movhi
1078:../Libraries/STM32F10x_StdPeriph_Driver/src/stm32f10x_tim.c ****   uint16_t tmpsmcr = 0;
 22674              		.loc 1 1078 0
 22675 000e 4FF00003 		mov	r3, #0
 22676 0012 FB82     		strh	r3, [r7, #22]	@ movhi
1079:../Libraries/STM32F10x_StdPeriph_Driver/src/stm32f10x_tim.c ****   /* Check the parameters */
1080:../Libraries/STM32F10x_StdPeriph_Driver/src/stm32f10x_tim.c ****   assert_param(IS_TIM_LIST3_PERIPH(TIMx));
1081:../Libraries/STM32F10x_StdPeriph_Driver/src/stm32f10x_tim.c ****   assert_param(IS_TIM_EXT_PRESCALER(TIM_ExtTRGPrescaler));
1082:../Libraries/STM32F10x_StdPeriph_Driver/src/stm32f10x_tim.c ****   assert_param(IS_TIM_EXT_POLARITY(TIM_ExtTRGPolarity));
1083:../Libraries/STM32F10x_StdPeriph_Driver/src/stm32f10x_tim.c ****   assert_param(IS_TIM_EXT_FILTER(ExtTRGFilter));
1084:../Libraries/STM32F10x_StdPeriph_Driver/src/stm32f10x_tim.c ****   /* Configure the ETR Clock source */
1085:../Libraries/STM32F10x_StdPeriph_Driver/src/stm32f10x_tim.c ****   TIM_ETRConfig(TIMx, TIM_ExtTRGPrescaler, TIM_ExtTRGPolarity, ExtTRGFilter);
 22677              		.loc 1 1085 0
 22678 0014 7989     		ldrh	r1, [r7, #10]
 22679 0016 3A89     		ldrh	r2, [r7, #8]
 22680 0018 FB88     		ldrh	r3, [r7, #6]
 22681 001a F868     		ldr	r0, [r7, #12]
 22682 001c FFF7FEFF 		bl	TIM_ETRConfig
1086:../Libraries/STM32F10x_StdPeriph_Driver/src/stm32f10x_tim.c ****   
1087:../Libraries/STM32F10x_StdPeriph_Driver/src/stm32f10x_tim.c ****   /* Get the TIMx SMCR register value */
1088:../Libraries/STM32F10x_StdPeriph_Driver/src/stm32f10x_tim.c ****   tmpsmcr = TIMx->SMCR;
 22683              		.loc 1 1088 0
 22684 0020 FB68     		ldr	r3, [r7, #12]
 22685 0022 1B89     		ldrh	r3, [r3, #8]	@ movhi
 22686 0024 FB82     		strh	r3, [r7, #22]	@ movhi
1089:../Libraries/STM32F10x_StdPeriph_Driver/src/stm32f10x_tim.c ****   /* Reset the SMS Bits */
1090:../Libraries/STM32F10x_StdPeriph_Driver/src/stm32f10x_tim.c ****   tmpsmcr &= (uint16_t)(~((uint16_t)TIM_SMCR_SMS));
 22687              		.loc 1 1090 0
 22688 0026 FB8A     		ldrh	r3, [r7, #22]	@ movhi
 22689 0028 23F00703 		bic	r3, r3, #7
 22690 002c FB82     		strh	r3, [r7, #22]	@ movhi
1091:../Libraries/STM32F10x_StdPeriph_Driver/src/stm32f10x_tim.c ****   /* Select the External clock mode1 */
1092:../Libraries/STM32F10x_StdPeriph_Driver/src/stm32f10x_tim.c ****   tmpsmcr |= TIM_SlaveMode_External1;
 22691              		.loc 1 1092 0
 22692 002e FB8A     		ldrh	r3, [r7, #22]	@ movhi
 22693 0030 43F00703 		orr	r3, r3, #7
 22694 0034 FB82     		strh	r3, [r7, #22]	@ movhi
1093:../Libraries/STM32F10x_StdPeriph_Driver/src/stm32f10x_tim.c ****   /* Select the Trigger selection : ETRF */
1094:../Libraries/STM32F10x_StdPeriph_Driver/src/stm32f10x_tim.c ****   tmpsmcr &= (uint16_t)(~((uint16_t)TIM_SMCR_TS));
 22695              		.loc 1 1094 0
 22696 0036 FB8A     		ldrh	r3, [r7, #22]	@ movhi
 22697 0038 23F07003 		bic	r3, r3, #112
 22698 003c FB82     		strh	r3, [r7, #22]	@ movhi
1095:../Libraries/STM32F10x_StdPeriph_Driver/src/stm32f10x_tim.c ****   tmpsmcr |= TIM_TS_ETRF;
 22699              		.loc 1 1095 0
 22700 003e FB8A     		ldrh	r3, [r7, #22]	@ movhi
 22701 0040 43F07003 		orr	r3, r3, #112
 22702 0044 FB82     		strh	r3, [r7, #22]	@ movhi
1096:../Libraries/STM32F10x_StdPeriph_Driver/src/stm32f10x_tim.c ****   /* Write to TIMx SMCR */
1097:../Libraries/STM32F10x_StdPeriph_Driver/src/stm32f10x_tim.c ****   TIMx->SMCR = tmpsmcr;
 22703              		.loc 1 1097 0
 22704 0046 FB68     		ldr	r3, [r7, #12]
 22705 0048 FA8A     		ldrh	r2, [r7, #22]	@ movhi
 22706 004a 1A81     		strh	r2, [r3, #8]	@ movhi
1098:../Libraries/STM32F10x_StdPeriph_Driver/src/stm32f10x_tim.c **** }
 22707              		.loc 1 1098 0
 22708 004c 07F11807 		add	r7, r7, #24
 22709 0050 BD46     		mov	sp, r7
 22710 0052 80BD     		pop	{r7, pc}
 22711              		.cfi_endproc
 22712              	.LFE51:
 22714              		.section	.text.TIM_ETRClockMode2Config,"ax",%progbits
 22715              		.align	2
 22716              		.global	TIM_ETRClockMode2Config
 22717              		.thumb
 22718              		.thumb_func
 22720              	TIM_ETRClockMode2Config:
 22721              	.LFB52:
1099:../Libraries/STM32F10x_StdPeriph_Driver/src/stm32f10x_tim.c **** 
1100:../Libraries/STM32F10x_StdPeriph_Driver/src/stm32f10x_tim.c **** /**
1101:../Libraries/STM32F10x_StdPeriph_Driver/src/stm32f10x_tim.c ****   * @brief  Configures the External clock Mode2
1102:../Libraries/STM32F10x_StdPeriph_Driver/src/stm32f10x_tim.c ****   * @param  TIMx: where x can be  1, 2, 3, 4, 5 or 8 to select the TIM peripheral.
1103:../Libraries/STM32F10x_StdPeriph_Driver/src/stm32f10x_tim.c ****   * @param  TIM_ExtTRGPrescaler: The external Trigger Prescaler.
1104:../Libraries/STM32F10x_StdPeriph_Driver/src/stm32f10x_tim.c ****   *   This parameter can be one of the following values:
1105:../Libraries/STM32F10x_StdPeriph_Driver/src/stm32f10x_tim.c ****   *     @arg TIM_ExtTRGPSC_OFF: ETRP Prescaler OFF.
1106:../Libraries/STM32F10x_StdPeriph_Driver/src/stm32f10x_tim.c ****   *     @arg TIM_ExtTRGPSC_DIV2: ETRP frequency divided by 2.
1107:../Libraries/STM32F10x_StdPeriph_Driver/src/stm32f10x_tim.c ****   *     @arg TIM_ExtTRGPSC_DIV4: ETRP frequency divided by 4.
1108:../Libraries/STM32F10x_StdPeriph_Driver/src/stm32f10x_tim.c ****   *     @arg TIM_ExtTRGPSC_DIV8: ETRP frequency divided by 8.
1109:../Libraries/STM32F10x_StdPeriph_Driver/src/stm32f10x_tim.c ****   * @param  TIM_ExtTRGPolarity: The external Trigger Polarity.
1110:../Libraries/STM32F10x_StdPeriph_Driver/src/stm32f10x_tim.c ****   *   This parameter can be one of the following values:
1111:../Libraries/STM32F10x_StdPeriph_Driver/src/stm32f10x_tim.c ****   *     @arg TIM_ExtTRGPolarity_Inverted: active low or falling edge active.
1112:../Libraries/STM32F10x_StdPeriph_Driver/src/stm32f10x_tim.c ****   *     @arg TIM_ExtTRGPolarity_NonInverted: active high or rising edge active.
1113:../Libraries/STM32F10x_StdPeriph_Driver/src/stm32f10x_tim.c ****   * @param  ExtTRGFilter: External Trigger Filter.
1114:../Libraries/STM32F10x_StdPeriph_Driver/src/stm32f10x_tim.c ****   *   This parameter must be a value between 0x00 and 0x0F
1115:../Libraries/STM32F10x_StdPeriph_Driver/src/stm32f10x_tim.c ****   * @retval None
1116:../Libraries/STM32F10x_StdPeriph_Driver/src/stm32f10x_tim.c ****   */
1117:../Libraries/STM32F10x_StdPeriph_Driver/src/stm32f10x_tim.c **** void TIM_ETRClockMode2Config(TIM_TypeDef* TIMx, uint16_t TIM_ExtTRGPrescaler, 
1118:../Libraries/STM32F10x_StdPeriph_Driver/src/stm32f10x_tim.c ****                              uint16_t TIM_ExtTRGPolarity, uint16_t ExtTRGFilter)
1119:../Libraries/STM32F10x_StdPeriph_Driver/src/stm32f10x_tim.c **** {
 22722              		.loc 1 1119 0
 22723              		.cfi_startproc
 22724              		@ args = 0, pretend = 0, frame = 16
 22725              		@ frame_needed = 1, uses_anonymous_args = 0
 22726 0000 80B5     		push	{r7, lr}
 22727              	.LCFI69:
 22728              		.cfi_def_cfa_offset 8
 22729 0002 84B0     		sub	sp, sp, #16
 22730              	.LCFI70:
 22731              		.cfi_def_cfa_offset 24
 22732 0004 00AF     		add	r7, sp, #0
 22733              		.cfi_offset 14, -4
 22734              		.cfi_offset 7, -8
 22735              	.LCFI71:
 22736              		.cfi_def_cfa_register 7
 22737 0006 F860     		str	r0, [r7, #12]
 22738 0008 7981     		strh	r1, [r7, #10]	@ movhi
 22739 000a 3A81     		strh	r2, [r7, #8]	@ movhi
 22740 000c FB80     		strh	r3, [r7, #6]	@ movhi
1120:../Libraries/STM32F10x_StdPeriph_Driver/src/stm32f10x_tim.c ****   /* Check the parameters */
1121:../Libraries/STM32F10x_StdPeriph_Driver/src/stm32f10x_tim.c ****   assert_param(IS_TIM_LIST3_PERIPH(TIMx));
1122:../Libraries/STM32F10x_StdPeriph_Driver/src/stm32f10x_tim.c ****   assert_param(IS_TIM_EXT_PRESCALER(TIM_ExtTRGPrescaler));
1123:../Libraries/STM32F10x_StdPeriph_Driver/src/stm32f10x_tim.c ****   assert_param(IS_TIM_EXT_POLARITY(TIM_ExtTRGPolarity));
1124:../Libraries/STM32F10x_StdPeriph_Driver/src/stm32f10x_tim.c ****   assert_param(IS_TIM_EXT_FILTER(ExtTRGFilter));
1125:../Libraries/STM32F10x_StdPeriph_Driver/src/stm32f10x_tim.c ****   /* Configure the ETR Clock source */
1126:../Libraries/STM32F10x_StdPeriph_Driver/src/stm32f10x_tim.c ****   TIM_ETRConfig(TIMx, TIM_ExtTRGPrescaler, TIM_ExtTRGPolarity, ExtTRGFilter);
 22741              		.loc 1 1126 0
 22742 000e 7989     		ldrh	r1, [r7, #10]
 22743 0010 3A89     		ldrh	r2, [r7, #8]
 22744 0012 FB88     		ldrh	r3, [r7, #6]
 22745 0014 F868     		ldr	r0, [r7, #12]
 22746 0016 FFF7FEFF 		bl	TIM_ETRConfig
1127:../Libraries/STM32F10x_StdPeriph_Driver/src/stm32f10x_tim.c ****   /* Enable the External clock mode2 */
1128:../Libraries/STM32F10x_StdPeriph_Driver/src/stm32f10x_tim.c ****   TIMx->SMCR |= TIM_SMCR_ECE;
 22747              		.loc 1 1128 0
 22748 001a FB68     		ldr	r3, [r7, #12]
 22749 001c 1B89     		ldrh	r3, [r3, #8]	@ movhi
 22750 001e 9BB2     		uxth	r3, r3
 22751 0020 43F48043 		orr	r3, r3, #16384
 22752 0024 9AB2     		uxth	r2, r3
 22753 0026 FB68     		ldr	r3, [r7, #12]
 22754 0028 1A81     		strh	r2, [r3, #8]	@ movhi
1129:../Libraries/STM32F10x_StdPeriph_Driver/src/stm32f10x_tim.c **** }
 22755              		.loc 1 1129 0
 22756 002a 07F11007 		add	r7, r7, #16
 22757 002e BD46     		mov	sp, r7
 22758 0030 80BD     		pop	{r7, pc}
 22759              		.cfi_endproc
 22760              	.LFE52:
 22762 0032 00BF     		.section	.text.TIM_ETRConfig,"ax",%progbits
 22763              		.align	2
 22764              		.global	TIM_ETRConfig
 22765              		.thumb
 22766              		.thumb_func
 22768              	TIM_ETRConfig:
 22769              	.LFB53:
1130:../Libraries/STM32F10x_StdPeriph_Driver/src/stm32f10x_tim.c **** 
1131:../Libraries/STM32F10x_StdPeriph_Driver/src/stm32f10x_tim.c **** /**
1132:../Libraries/STM32F10x_StdPeriph_Driver/src/stm32f10x_tim.c ****   * @brief  Configures the TIMx External Trigger (ETR).
1133:../Libraries/STM32F10x_StdPeriph_Driver/src/stm32f10x_tim.c ****   * @param  TIMx: where x can be  1, 2, 3, 4, 5 or 8 to select the TIM peripheral.
1134:../Libraries/STM32F10x_StdPeriph_Driver/src/stm32f10x_tim.c ****   * @param  TIM_ExtTRGPrescaler: The external Trigger Prescaler.
1135:../Libraries/STM32F10x_StdPeriph_Driver/src/stm32f10x_tim.c ****   *   This parameter can be one of the following values:
1136:../Libraries/STM32F10x_StdPeriph_Driver/src/stm32f10x_tim.c ****   *     @arg TIM_ExtTRGPSC_OFF: ETRP Prescaler OFF.
1137:../Libraries/STM32F10x_StdPeriph_Driver/src/stm32f10x_tim.c ****   *     @arg TIM_ExtTRGPSC_DIV2: ETRP frequency divided by 2.
1138:../Libraries/STM32F10x_StdPeriph_Driver/src/stm32f10x_tim.c ****   *     @arg TIM_ExtTRGPSC_DIV4: ETRP frequency divided by 4.
1139:../Libraries/STM32F10x_StdPeriph_Driver/src/stm32f10x_tim.c ****   *     @arg TIM_ExtTRGPSC_DIV8: ETRP frequency divided by 8.
1140:../Libraries/STM32F10x_StdPeriph_Driver/src/stm32f10x_tim.c ****   * @param  TIM_ExtTRGPolarity: The external Trigger Polarity.
1141:../Libraries/STM32F10x_StdPeriph_Driver/src/stm32f10x_tim.c ****   *   This parameter can be one of the following values:
1142:../Libraries/STM32F10x_StdPeriph_Driver/src/stm32f10x_tim.c ****   *     @arg TIM_ExtTRGPolarity_Inverted: active low or falling edge active.
1143:../Libraries/STM32F10x_StdPeriph_Driver/src/stm32f10x_tim.c ****   *     @arg TIM_ExtTRGPolarity_NonInverted: active high or rising edge active.
1144:../Libraries/STM32F10x_StdPeriph_Driver/src/stm32f10x_tim.c ****   * @param  ExtTRGFilter: External Trigger Filter.
1145:../Libraries/STM32F10x_StdPeriph_Driver/src/stm32f10x_tim.c ****   *   This parameter must be a value between 0x00 and 0x0F
1146:../Libraries/STM32F10x_StdPeriph_Driver/src/stm32f10x_tim.c ****   * @retval None
1147:../Libraries/STM32F10x_StdPeriph_Driver/src/stm32f10x_tim.c ****   */
1148:../Libraries/STM32F10x_StdPeriph_Driver/src/stm32f10x_tim.c **** void TIM_ETRConfig(TIM_TypeDef* TIMx, uint16_t TIM_ExtTRGPrescaler, uint16_t TIM_ExtTRGPolarity,
1149:../Libraries/STM32F10x_StdPeriph_Driver/src/stm32f10x_tim.c ****                    uint16_t ExtTRGFilter)
1150:../Libraries/STM32F10x_StdPeriph_Driver/src/stm32f10x_tim.c **** {
 22770              		.loc 1 1150 0
 22771              		.cfi_startproc
 22772              		@ args = 0, pretend = 0, frame = 24
 22773              		@ frame_needed = 1, uses_anonymous_args = 0
 22774              		@ link register save eliminated.
 22775 0000 80B4     		push	{r7}
 22776              	.LCFI72:
 22777              		.cfi_def_cfa_offset 4
 22778 0002 87B0     		sub	sp, sp, #28
 22779              	.LCFI73:
 22780              		.cfi_def_cfa_offset 32
 22781 0004 00AF     		add	r7, sp, #0
 22782              		.cfi_offset 7, -4
 22783              	.LCFI74:
 22784              		.cfi_def_cfa_register 7
 22785 0006 F860     		str	r0, [r7, #12]
 22786 0008 7981     		strh	r1, [r7, #10]	@ movhi
 22787 000a 3A81     		strh	r2, [r7, #8]	@ movhi
 22788 000c FB80     		strh	r3, [r7, #6]	@ movhi
1151:../Libraries/STM32F10x_StdPeriph_Driver/src/stm32f10x_tim.c ****   uint16_t tmpsmcr = 0;
 22789              		.loc 1 1151 0
 22790 000e 4FF00003 		mov	r3, #0
 22791 0012 FB82     		strh	r3, [r7, #22]	@ movhi
1152:../Libraries/STM32F10x_StdPeriph_Driver/src/stm32f10x_tim.c ****   /* Check the parameters */
1153:../Libraries/STM32F10x_StdPeriph_Driver/src/stm32f10x_tim.c ****   assert_param(IS_TIM_LIST3_PERIPH(TIMx));
1154:../Libraries/STM32F10x_StdPeriph_Driver/src/stm32f10x_tim.c ****   assert_param(IS_TIM_EXT_PRESCALER(TIM_ExtTRGPrescaler));
1155:../Libraries/STM32F10x_StdPeriph_Driver/src/stm32f10x_tim.c ****   assert_param(IS_TIM_EXT_POLARITY(TIM_ExtTRGPolarity));
1156:../Libraries/STM32F10x_StdPeriph_Driver/src/stm32f10x_tim.c ****   assert_param(IS_TIM_EXT_FILTER(ExtTRGFilter));
1157:../Libraries/STM32F10x_StdPeriph_Driver/src/stm32f10x_tim.c ****   tmpsmcr = TIMx->SMCR;
 22792              		.loc 1 1157 0
 22793 0014 FB68     		ldr	r3, [r7, #12]
 22794 0016 1B89     		ldrh	r3, [r3, #8]	@ movhi
 22795 0018 FB82     		strh	r3, [r7, #22]	@ movhi
1158:../Libraries/STM32F10x_StdPeriph_Driver/src/stm32f10x_tim.c ****   /* Reset the ETR Bits */
1159:../Libraries/STM32F10x_StdPeriph_Driver/src/stm32f10x_tim.c ****   tmpsmcr &= SMCR_ETR_Mask;
 22796              		.loc 1 1159 0
 22797 001a FB8A     		ldrh	r3, [r7, #22]	@ movhi
 22798 001c 03F0FF03 		and	r3, r3, #255
 22799 0020 FB82     		strh	r3, [r7, #22]	@ movhi
1160:../Libraries/STM32F10x_StdPeriph_Driver/src/stm32f10x_tim.c ****   /* Set the Prescaler, the Filter value and the Polarity */
1161:../Libraries/STM32F10x_StdPeriph_Driver/src/stm32f10x_tim.c ****   tmpsmcr |= (uint16_t)(TIM_ExtTRGPrescaler | (uint16_t)(TIM_ExtTRGPolarity | (uint16_t)(ExtTRGFilt
 22800              		.loc 1 1161 0
 22801 0022 FB88     		ldrh	r3, [r7, #6]	@ movhi
 22802 0024 4FEA0323 		lsl	r3, r3, #8
 22803 0028 9AB2     		uxth	r2, r3
 22804 002a 3B89     		ldrh	r3, [r7, #8]	@ movhi
 22805 002c 42EA0303 		orr	r3, r2, r3
 22806 0030 9AB2     		uxth	r2, r3
 22807 0032 7B89     		ldrh	r3, [r7, #10]	@ movhi
 22808 0034 42EA0303 		orr	r3, r2, r3
 22809 0038 9AB2     		uxth	r2, r3
 22810 003a FB8A     		ldrh	r3, [r7, #22]	@ movhi
 22811 003c 42EA0303 		orr	r3, r2, r3
 22812 0040 FB82     		strh	r3, [r7, #22]	@ movhi
1162:../Libraries/STM32F10x_StdPeriph_Driver/src/stm32f10x_tim.c ****   /* Write to TIMx SMCR */
1163:../Libraries/STM32F10x_StdPeriph_Driver/src/stm32f10x_tim.c ****   TIMx->SMCR = tmpsmcr;
 22813              		.loc 1 1163 0
 22814 0042 FB68     		ldr	r3, [r7, #12]
 22815 0044 FA8A     		ldrh	r2, [r7, #22]	@ movhi
 22816 0046 1A81     		strh	r2, [r3, #8]	@ movhi
1164:../Libraries/STM32F10x_StdPeriph_Driver/src/stm32f10x_tim.c **** }
 22817              		.loc 1 1164 0
 22818 0048 07F11C07 		add	r7, r7, #28
 22819 004c BD46     		mov	sp, r7
 22820 004e 80BC     		pop	{r7}
 22821 0050 7047     		bx	lr
 22822              		.cfi_endproc
 22823              	.LFE53:
 22825 0052 00BF     		.section	.text.TIM_PrescalerConfig,"ax",%progbits
 22826              		.align	2
 22827              		.global	TIM_PrescalerConfig
 22828              		.thumb
 22829              		.thumb_func
 22831              	TIM_PrescalerConfig:
 22832              	.LFB54:
1165:../Libraries/STM32F10x_StdPeriph_Driver/src/stm32f10x_tim.c **** 
1166:../Libraries/STM32F10x_StdPeriph_Driver/src/stm32f10x_tim.c **** /**
1167:../Libraries/STM32F10x_StdPeriph_Driver/src/stm32f10x_tim.c ****   * @brief  Configures the TIMx Prescaler.
1168:../Libraries/STM32F10x_StdPeriph_Driver/src/stm32f10x_tim.c ****   * @param  TIMx: where x can be 1 to 17 to select the TIM peripheral.
1169:../Libraries/STM32F10x_StdPeriph_Driver/src/stm32f10x_tim.c ****   * @param  Prescaler: specifies the Prescaler Register value
1170:../Libraries/STM32F10x_StdPeriph_Driver/src/stm32f10x_tim.c ****   * @param  TIM_PSCReloadMode: specifies the TIM Prescaler Reload mode
1171:../Libraries/STM32F10x_StdPeriph_Driver/src/stm32f10x_tim.c ****   *   This parameter can be one of the following values:
1172:../Libraries/STM32F10x_StdPeriph_Driver/src/stm32f10x_tim.c ****   *     @arg TIM_PSCReloadMode_Update: The Prescaler is loaded at the update event.
1173:../Libraries/STM32F10x_StdPeriph_Driver/src/stm32f10x_tim.c ****   *     @arg TIM_PSCReloadMode_Immediate: The Prescaler is loaded immediately.
1174:../Libraries/STM32F10x_StdPeriph_Driver/src/stm32f10x_tim.c ****   * @retval None
1175:../Libraries/STM32F10x_StdPeriph_Driver/src/stm32f10x_tim.c ****   */
1176:../Libraries/STM32F10x_StdPeriph_Driver/src/stm32f10x_tim.c **** void TIM_PrescalerConfig(TIM_TypeDef* TIMx, uint16_t Prescaler, uint16_t TIM_PSCReloadMode)
1177:../Libraries/STM32F10x_StdPeriph_Driver/src/stm32f10x_tim.c **** {
 22833              		.loc 1 1177 0
 22834              		.cfi_startproc
 22835              		@ args = 0, pretend = 0, frame = 8
 22836              		@ frame_needed = 1, uses_anonymous_args = 0
 22837              		@ link register save eliminated.
 22838 0000 80B4     		push	{r7}
 22839              	.LCFI75:
 22840              		.cfi_def_cfa_offset 4
 22841 0002 83B0     		sub	sp, sp, #12
 22842              	.LCFI76:
 22843              		.cfi_def_cfa_offset 16
 22844 0004 00AF     		add	r7, sp, #0
 22845              		.cfi_offset 7, -4
 22846              	.LCFI77:
 22847              		.cfi_def_cfa_register 7
 22848 0006 7860     		str	r0, [r7, #4]
 22849 0008 1346     		mov	r3, r2
 22850 000a 0A46     		mov	r2, r1	@ movhi
 22851 000c 7A80     		strh	r2, [r7, #2]	@ movhi
 22852 000e 3B80     		strh	r3, [r7, #0]	@ movhi
1178:../Libraries/STM32F10x_StdPeriph_Driver/src/stm32f10x_tim.c ****   /* Check the parameters */
1179:../Libraries/STM32F10x_StdPeriph_Driver/src/stm32f10x_tim.c ****   assert_param(IS_TIM_ALL_PERIPH(TIMx));
1180:../Libraries/STM32F10x_StdPeriph_Driver/src/stm32f10x_tim.c ****   assert_param(IS_TIM_PRESCALER_RELOAD(TIM_PSCReloadMode));
1181:../Libraries/STM32F10x_StdPeriph_Driver/src/stm32f10x_tim.c ****   /* Set the Prescaler value */
1182:../Libraries/STM32F10x_StdPeriph_Driver/src/stm32f10x_tim.c ****   TIMx->PSC = Prescaler;
 22853              		.loc 1 1182 0
 22854 0010 7B68     		ldr	r3, [r7, #4]
 22855 0012 7A88     		ldrh	r2, [r7, #2]	@ movhi
 22856 0014 1A85     		strh	r2, [r3, #40]	@ movhi
1183:../Libraries/STM32F10x_StdPeriph_Driver/src/stm32f10x_tim.c ****   /* Set or reset the UG Bit */
1184:../Libraries/STM32F10x_StdPeriph_Driver/src/stm32f10x_tim.c ****   TIMx->EGR = TIM_PSCReloadMode;
 22857              		.loc 1 1184 0
 22858 0016 7B68     		ldr	r3, [r7, #4]
 22859 0018 3A88     		ldrh	r2, [r7, #0]	@ movhi
 22860 001a 9A82     		strh	r2, [r3, #20]	@ movhi
1185:../Libraries/STM32F10x_StdPeriph_Driver/src/stm32f10x_tim.c **** }
 22861              		.loc 1 1185 0
 22862 001c 07F10C07 		add	r7, r7, #12
 22863 0020 BD46     		mov	sp, r7
 22864 0022 80BC     		pop	{r7}
 22865 0024 7047     		bx	lr
 22866              		.cfi_endproc
 22867              	.LFE54:
 22869 0026 00BF     		.section	.text.TIM_CounterModeConfig,"ax",%progbits
 22870              		.align	2
 22871              		.global	TIM_CounterModeConfig
 22872              		.thumb
 22873              		.thumb_func
 22875              	TIM_CounterModeConfig:
 22876              	.LFB55:
1186:../Libraries/STM32F10x_StdPeriph_Driver/src/stm32f10x_tim.c **** 
1187:../Libraries/STM32F10x_StdPeriph_Driver/src/stm32f10x_tim.c **** /**
1188:../Libraries/STM32F10x_StdPeriph_Driver/src/stm32f10x_tim.c ****   * @brief  Specifies the TIMx Counter Mode to be used.
1189:../Libraries/STM32F10x_StdPeriph_Driver/src/stm32f10x_tim.c ****   * @param  TIMx: where x can be  1, 2, 3, 4, 5 or 8 to select the TIM peripheral.
1190:../Libraries/STM32F10x_StdPeriph_Driver/src/stm32f10x_tim.c ****   * @param  TIM_CounterMode: specifies the Counter Mode to be used
1191:../Libraries/STM32F10x_StdPeriph_Driver/src/stm32f10x_tim.c ****   *   This parameter can be one of the following values:
1192:../Libraries/STM32F10x_StdPeriph_Driver/src/stm32f10x_tim.c ****   *     @arg TIM_CounterMode_Up: TIM Up Counting Mode
1193:../Libraries/STM32F10x_StdPeriph_Driver/src/stm32f10x_tim.c ****   *     @arg TIM_CounterMode_Down: TIM Down Counting Mode
1194:../Libraries/STM32F10x_StdPeriph_Driver/src/stm32f10x_tim.c ****   *     @arg TIM_CounterMode_CenterAligned1: TIM Center Aligned Mode1
1195:../Libraries/STM32F10x_StdPeriph_Driver/src/stm32f10x_tim.c ****   *     @arg TIM_CounterMode_CenterAligned2: TIM Center Aligned Mode2
1196:../Libraries/STM32F10x_StdPeriph_Driver/src/stm32f10x_tim.c ****   *     @arg TIM_CounterMode_CenterAligned3: TIM Center Aligned Mode3
1197:../Libraries/STM32F10x_StdPeriph_Driver/src/stm32f10x_tim.c ****   * @retval None
1198:../Libraries/STM32F10x_StdPeriph_Driver/src/stm32f10x_tim.c ****   */
1199:../Libraries/STM32F10x_StdPeriph_Driver/src/stm32f10x_tim.c **** void TIM_CounterModeConfig(TIM_TypeDef* TIMx, uint16_t TIM_CounterMode)
1200:../Libraries/STM32F10x_StdPeriph_Driver/src/stm32f10x_tim.c **** {
 22877              		.loc 1 1200 0
 22878              		.cfi_startproc
 22879              		@ args = 0, pretend = 0, frame = 16
 22880              		@ frame_needed = 1, uses_anonymous_args = 0
 22881              		@ link register save eliminated.
 22882 0000 80B4     		push	{r7}
 22883              	.LCFI78:
 22884              		.cfi_def_cfa_offset 4
 22885 0002 85B0     		sub	sp, sp, #20
 22886              	.LCFI79:
 22887              		.cfi_def_cfa_offset 24
 22888 0004 00AF     		add	r7, sp, #0
 22889              		.cfi_offset 7, -4
 22890              	.LCFI80:
 22891              		.cfi_def_cfa_register 7
 22892 0006 7860     		str	r0, [r7, #4]
 22893 0008 0B46     		mov	r3, r1
 22894 000a 7B80     		strh	r3, [r7, #2]	@ movhi
1201:../Libraries/STM32F10x_StdPeriph_Driver/src/stm32f10x_tim.c ****   uint16_t tmpcr1 = 0;
 22895              		.loc 1 1201 0
 22896 000c 4FF00003 		mov	r3, #0
 22897 0010 FB81     		strh	r3, [r7, #14]	@ movhi
1202:../Libraries/STM32F10x_StdPeriph_Driver/src/stm32f10x_tim.c ****   /* Check the parameters */
1203:../Libraries/STM32F10x_StdPeriph_Driver/src/stm32f10x_tim.c ****   assert_param(IS_TIM_LIST3_PERIPH(TIMx));
1204:../Libraries/STM32F10x_StdPeriph_Driver/src/stm32f10x_tim.c ****   assert_param(IS_TIM_COUNTER_MODE(TIM_CounterMode));
1205:../Libraries/STM32F10x_StdPeriph_Driver/src/stm32f10x_tim.c ****   tmpcr1 = TIMx->CR1;
 22898              		.loc 1 1205 0
 22899 0012 7B68     		ldr	r3, [r7, #4]
 22900 0014 1B88     		ldrh	r3, [r3, #0]	@ movhi
 22901 0016 FB81     		strh	r3, [r7, #14]	@ movhi
1206:../Libraries/STM32F10x_StdPeriph_Driver/src/stm32f10x_tim.c ****   /* Reset the CMS and DIR Bits */
1207:../Libraries/STM32F10x_StdPeriph_Driver/src/stm32f10x_tim.c ****   tmpcr1 &= (uint16_t)(~((uint16_t)(TIM_CR1_DIR | TIM_CR1_CMS)));
 22902              		.loc 1 1207 0
 22903 0018 FB89     		ldrh	r3, [r7, #14]	@ movhi
 22904 001a 23F07003 		bic	r3, r3, #112
 22905 001e FB81     		strh	r3, [r7, #14]	@ movhi
1208:../Libraries/STM32F10x_StdPeriph_Driver/src/stm32f10x_tim.c ****   /* Set the Counter Mode */
1209:../Libraries/STM32F10x_StdPeriph_Driver/src/stm32f10x_tim.c ****   tmpcr1 |= TIM_CounterMode;
 22906              		.loc 1 1209 0
 22907 0020 FA89     		ldrh	r2, [r7, #14]	@ movhi
 22908 0022 7B88     		ldrh	r3, [r7, #2]	@ movhi
 22909 0024 42EA0303 		orr	r3, r2, r3
 22910 0028 FB81     		strh	r3, [r7, #14]	@ movhi
1210:../Libraries/STM32F10x_StdPeriph_Driver/src/stm32f10x_tim.c ****   /* Write to TIMx CR1 register */
1211:../Libraries/STM32F10x_StdPeriph_Driver/src/stm32f10x_tim.c ****   TIMx->CR1 = tmpcr1;
 22911              		.loc 1 1211 0
 22912 002a 7B68     		ldr	r3, [r7, #4]
 22913 002c FA89     		ldrh	r2, [r7, #14]	@ movhi
 22914 002e 1A80     		strh	r2, [r3, #0]	@ movhi
1212:../Libraries/STM32F10x_StdPeriph_Driver/src/stm32f10x_tim.c **** }
 22915              		.loc 1 1212 0
 22916 0030 07F11407 		add	r7, r7, #20
 22917 0034 BD46     		mov	sp, r7
 22918 0036 80BC     		pop	{r7}
 22919 0038 7047     		bx	lr
 22920              		.cfi_endproc
 22921              	.LFE55:
 22923 003a 00BF     		.section	.text.TIM_SelectInputTrigger,"ax",%progbits
 22924              		.align	2
 22925              		.global	TIM_SelectInputTrigger
 22926              		.thumb
 22927              		.thumb_func
 22929              	TIM_SelectInputTrigger:
 22930              	.LFB56:
1213:../Libraries/STM32F10x_StdPeriph_Driver/src/stm32f10x_tim.c **** 
1214:../Libraries/STM32F10x_StdPeriph_Driver/src/stm32f10x_tim.c **** /**
1215:../Libraries/STM32F10x_StdPeriph_Driver/src/stm32f10x_tim.c ****   * @brief  Selects the Input Trigger source
1216:../Libraries/STM32F10x_StdPeriph_Driver/src/stm32f10x_tim.c ****   * @param  TIMx: where x can be  1, 2, 3, 4, 5, 8, 9, 12 or 15 to select the TIM peripheral.
1217:../Libraries/STM32F10x_StdPeriph_Driver/src/stm32f10x_tim.c ****   * @param  TIM_InputTriggerSource: The Input Trigger source.
1218:../Libraries/STM32F10x_StdPeriph_Driver/src/stm32f10x_tim.c ****   *   This parameter can be one of the following values:
1219:../Libraries/STM32F10x_StdPeriph_Driver/src/stm32f10x_tim.c ****   *     @arg TIM_TS_ITR0: Internal Trigger 0
1220:../Libraries/STM32F10x_StdPeriph_Driver/src/stm32f10x_tim.c ****   *     @arg TIM_TS_ITR1: Internal Trigger 1
1221:../Libraries/STM32F10x_StdPeriph_Driver/src/stm32f10x_tim.c ****   *     @arg TIM_TS_ITR2: Internal Trigger 2
1222:../Libraries/STM32F10x_StdPeriph_Driver/src/stm32f10x_tim.c ****   *     @arg TIM_TS_ITR3: Internal Trigger 3
1223:../Libraries/STM32F10x_StdPeriph_Driver/src/stm32f10x_tim.c ****   *     @arg TIM_TS_TI1F_ED: TI1 Edge Detector
1224:../Libraries/STM32F10x_StdPeriph_Driver/src/stm32f10x_tim.c ****   *     @arg TIM_TS_TI1FP1: Filtered Timer Input 1
1225:../Libraries/STM32F10x_StdPeriph_Driver/src/stm32f10x_tim.c ****   *     @arg TIM_TS_TI2FP2: Filtered Timer Input 2
1226:../Libraries/STM32F10x_StdPeriph_Driver/src/stm32f10x_tim.c ****   *     @arg TIM_TS_ETRF: External Trigger input
1227:../Libraries/STM32F10x_StdPeriph_Driver/src/stm32f10x_tim.c ****   * @retval None
1228:../Libraries/STM32F10x_StdPeriph_Driver/src/stm32f10x_tim.c ****   */
1229:../Libraries/STM32F10x_StdPeriph_Driver/src/stm32f10x_tim.c **** void TIM_SelectInputTrigger(TIM_TypeDef* TIMx, uint16_t TIM_InputTriggerSource)
1230:../Libraries/STM32F10x_StdPeriph_Driver/src/stm32f10x_tim.c **** {
 22931              		.loc 1 1230 0
 22932              		.cfi_startproc
 22933              		@ args = 0, pretend = 0, frame = 16
 22934              		@ frame_needed = 1, uses_anonymous_args = 0
 22935              		@ link register save eliminated.
 22936 0000 80B4     		push	{r7}
 22937              	.LCFI81:
 22938              		.cfi_def_cfa_offset 4
 22939 0002 85B0     		sub	sp, sp, #20
 22940              	.LCFI82:
 22941              		.cfi_def_cfa_offset 24
 22942 0004 00AF     		add	r7, sp, #0
 22943              		.cfi_offset 7, -4
 22944              	.LCFI83:
 22945              		.cfi_def_cfa_register 7
 22946 0006 7860     		str	r0, [r7, #4]
 22947 0008 0B46     		mov	r3, r1
 22948 000a 7B80     		strh	r3, [r7, #2]	@ movhi
1231:../Libraries/STM32F10x_StdPeriph_Driver/src/stm32f10x_tim.c ****   uint16_t tmpsmcr = 0;
 22949              		.loc 1 1231 0
 22950 000c 4FF00003 		mov	r3, #0
 22951 0010 FB81     		strh	r3, [r7, #14]	@ movhi
1232:../Libraries/STM32F10x_StdPeriph_Driver/src/stm32f10x_tim.c ****   /* Check the parameters */
1233:../Libraries/STM32F10x_StdPeriph_Driver/src/stm32f10x_tim.c ****   assert_param(IS_TIM_LIST6_PERIPH(TIMx));
1234:../Libraries/STM32F10x_StdPeriph_Driver/src/stm32f10x_tim.c ****   assert_param(IS_TIM_TRIGGER_SELECTION(TIM_InputTriggerSource));
1235:../Libraries/STM32F10x_StdPeriph_Driver/src/stm32f10x_tim.c ****   /* Get the TIMx SMCR register value */
1236:../Libraries/STM32F10x_StdPeriph_Driver/src/stm32f10x_tim.c ****   tmpsmcr = TIMx->SMCR;
 22952              		.loc 1 1236 0
 22953 0012 7B68     		ldr	r3, [r7, #4]
 22954 0014 1B89     		ldrh	r3, [r3, #8]	@ movhi
 22955 0016 FB81     		strh	r3, [r7, #14]	@ movhi
1237:../Libraries/STM32F10x_StdPeriph_Driver/src/stm32f10x_tim.c ****   /* Reset the TS Bits */
1238:../Libraries/STM32F10x_StdPeriph_Driver/src/stm32f10x_tim.c ****   tmpsmcr &= (uint16_t)(~((uint16_t)TIM_SMCR_TS));
 22956              		.loc 1 1238 0
 22957 0018 FB89     		ldrh	r3, [r7, #14]	@ movhi
 22958 001a 23F07003 		bic	r3, r3, #112
 22959 001e FB81     		strh	r3, [r7, #14]	@ movhi
1239:../Libraries/STM32F10x_StdPeriph_Driver/src/stm32f10x_tim.c ****   /* Set the Input Trigger source */
1240:../Libraries/STM32F10x_StdPeriph_Driver/src/stm32f10x_tim.c ****   tmpsmcr |= TIM_InputTriggerSource;
 22960              		.loc 1 1240 0
 22961 0020 FA89     		ldrh	r2, [r7, #14]	@ movhi
 22962 0022 7B88     		ldrh	r3, [r7, #2]	@ movhi
 22963 0024 42EA0303 		orr	r3, r2, r3
 22964 0028 FB81     		strh	r3, [r7, #14]	@ movhi
1241:../Libraries/STM32F10x_StdPeriph_Driver/src/stm32f10x_tim.c ****   /* Write to TIMx SMCR */
1242:../Libraries/STM32F10x_StdPeriph_Driver/src/stm32f10x_tim.c ****   TIMx->SMCR = tmpsmcr;
 22965              		.loc 1 1242 0
 22966 002a 7B68     		ldr	r3, [r7, #4]
 22967 002c FA89     		ldrh	r2, [r7, #14]	@ movhi
 22968 002e 1A81     		strh	r2, [r3, #8]	@ movhi
1243:../Libraries/STM32F10x_StdPeriph_Driver/src/stm32f10x_tim.c **** }
 22969              		.loc 1 1243 0
 22970 0030 07F11407 		add	r7, r7, #20
 22971 0034 BD46     		mov	sp, r7
 22972 0036 80BC     		pop	{r7}
 22973 0038 7047     		bx	lr
 22974              		.cfi_endproc
 22975              	.LFE56:
 22977 003a 00BF     		.section	.text.TIM_EncoderInterfaceConfig,"ax",%progbits
 22978              		.align	2
 22979              		.global	TIM_EncoderInterfaceConfig
 22980              		.thumb
 22981              		.thumb_func
 22983              	TIM_EncoderInterfaceConfig:
 22984              	.LFB57:
1244:../Libraries/STM32F10x_StdPeriph_Driver/src/stm32f10x_tim.c **** 
1245:../Libraries/STM32F10x_StdPeriph_Driver/src/stm32f10x_tim.c **** /**
1246:../Libraries/STM32F10x_StdPeriph_Driver/src/stm32f10x_tim.c ****   * @brief  Configures the TIMx Encoder Interface.
1247:../Libraries/STM32F10x_StdPeriph_Driver/src/stm32f10x_tim.c ****   * @param  TIMx: where x can be  1, 2, 3, 4, 5 or 8 to select the TIM peripheral.
1248:../Libraries/STM32F10x_StdPeriph_Driver/src/stm32f10x_tim.c ****   * @param  TIM_EncoderMode: specifies the TIMx Encoder Mode.
1249:../Libraries/STM32F10x_StdPeriph_Driver/src/stm32f10x_tim.c ****   *   This parameter can be one of the following values:
1250:../Libraries/STM32F10x_StdPeriph_Driver/src/stm32f10x_tim.c ****   *     @arg TIM_EncoderMode_TI1: Counter counts on TI1FP1 edge depending on TI2FP2 level.
1251:../Libraries/STM32F10x_StdPeriph_Driver/src/stm32f10x_tim.c ****   *     @arg TIM_EncoderMode_TI2: Counter counts on TI2FP2 edge depending on TI1FP1 level.
1252:../Libraries/STM32F10x_StdPeriph_Driver/src/stm32f10x_tim.c ****   *     @arg TIM_EncoderMode_TI12: Counter counts on both TI1FP1 and TI2FP2 edges depending
1253:../Libraries/STM32F10x_StdPeriph_Driver/src/stm32f10x_tim.c ****   *                                on the level of the other input.
1254:../Libraries/STM32F10x_StdPeriph_Driver/src/stm32f10x_tim.c ****   * @param  TIM_IC1Polarity: specifies the IC1 Polarity
1255:../Libraries/STM32F10x_StdPeriph_Driver/src/stm32f10x_tim.c ****   *   This parameter can be one of the following values:
1256:../Libraries/STM32F10x_StdPeriph_Driver/src/stm32f10x_tim.c ****   *     @arg TIM_ICPolarity_Falling: IC Falling edge.
1257:../Libraries/STM32F10x_StdPeriph_Driver/src/stm32f10x_tim.c ****   *     @arg TIM_ICPolarity_Rising: IC Rising edge.
1258:../Libraries/STM32F10x_StdPeriph_Driver/src/stm32f10x_tim.c ****   * @param  TIM_IC2Polarity: specifies the IC2 Polarity
1259:../Libraries/STM32F10x_StdPeriph_Driver/src/stm32f10x_tim.c ****   *   This parameter can be one of the following values:
1260:../Libraries/STM32F10x_StdPeriph_Driver/src/stm32f10x_tim.c ****   *     @arg TIM_ICPolarity_Falling: IC Falling edge.
1261:../Libraries/STM32F10x_StdPeriph_Driver/src/stm32f10x_tim.c ****   *     @arg TIM_ICPolarity_Rising: IC Rising edge.
1262:../Libraries/STM32F10x_StdPeriph_Driver/src/stm32f10x_tim.c ****   * @retval None
1263:../Libraries/STM32F10x_StdPeriph_Driver/src/stm32f10x_tim.c ****   */
1264:../Libraries/STM32F10x_StdPeriph_Driver/src/stm32f10x_tim.c **** void TIM_EncoderInterfaceConfig(TIM_TypeDef* TIMx, uint16_t TIM_EncoderMode,
1265:../Libraries/STM32F10x_StdPeriph_Driver/src/stm32f10x_tim.c ****                                 uint16_t TIM_IC1Polarity, uint16_t TIM_IC2Polarity)
1266:../Libraries/STM32F10x_StdPeriph_Driver/src/stm32f10x_tim.c **** {
 22985              		.loc 1 1266 0
 22986              		.cfi_startproc
 22987              		@ args = 0, pretend = 0, frame = 24
 22988              		@ frame_needed = 1, uses_anonymous_args = 0
 22989              		@ link register save eliminated.
 22990 0000 80B4     		push	{r7}
 22991              	.LCFI84:
 22992              		.cfi_def_cfa_offset 4
 22993 0002 87B0     		sub	sp, sp, #28
 22994              	.LCFI85:
 22995              		.cfi_def_cfa_offset 32
 22996 0004 00AF     		add	r7, sp, #0
 22997              		.cfi_offset 7, -4
 22998              	.LCFI86:
 22999              		.cfi_def_cfa_register 7
 23000 0006 F860     		str	r0, [r7, #12]
 23001 0008 7981     		strh	r1, [r7, #10]	@ movhi
 23002 000a 3A81     		strh	r2, [r7, #8]	@ movhi
 23003 000c FB80     		strh	r3, [r7, #6]	@ movhi
1267:../Libraries/STM32F10x_StdPeriph_Driver/src/stm32f10x_tim.c ****   uint16_t tmpsmcr = 0;
 23004              		.loc 1 1267 0
 23005 000e 4FF00003 		mov	r3, #0
 23006 0012 FB82     		strh	r3, [r7, #22]	@ movhi
1268:../Libraries/STM32F10x_StdPeriph_Driver/src/stm32f10x_tim.c ****   uint16_t tmpccmr1 = 0;
 23007              		.loc 1 1268 0
 23008 0014 4FF00003 		mov	r3, #0
 23009 0018 BB82     		strh	r3, [r7, #20]	@ movhi
1269:../Libraries/STM32F10x_StdPeriph_Driver/src/stm32f10x_tim.c ****   uint16_t tmpccer = 0;
 23010              		.loc 1 1269 0
 23011 001a 4FF00003 		mov	r3, #0
 23012 001e 7B82     		strh	r3, [r7, #18]	@ movhi
1270:../Libraries/STM32F10x_StdPeriph_Driver/src/stm32f10x_tim.c ****     
1271:../Libraries/STM32F10x_StdPeriph_Driver/src/stm32f10x_tim.c ****   /* Check the parameters */
1272:../Libraries/STM32F10x_StdPeriph_Driver/src/stm32f10x_tim.c ****   assert_param(IS_TIM_LIST5_PERIPH(TIMx));
1273:../Libraries/STM32F10x_StdPeriph_Driver/src/stm32f10x_tim.c ****   assert_param(IS_TIM_ENCODER_MODE(TIM_EncoderMode));
1274:../Libraries/STM32F10x_StdPeriph_Driver/src/stm32f10x_tim.c ****   assert_param(IS_TIM_IC_POLARITY(TIM_IC1Polarity));
1275:../Libraries/STM32F10x_StdPeriph_Driver/src/stm32f10x_tim.c ****   assert_param(IS_TIM_IC_POLARITY(TIM_IC2Polarity));
1276:../Libraries/STM32F10x_StdPeriph_Driver/src/stm32f10x_tim.c **** 
1277:../Libraries/STM32F10x_StdPeriph_Driver/src/stm32f10x_tim.c ****   /* Get the TIMx SMCR register value */
1278:../Libraries/STM32F10x_StdPeriph_Driver/src/stm32f10x_tim.c ****   tmpsmcr = TIMx->SMCR;
 23013              		.loc 1 1278 0
 23014 0020 FB68     		ldr	r3, [r7, #12]
 23015 0022 1B89     		ldrh	r3, [r3, #8]	@ movhi
 23016 0024 FB82     		strh	r3, [r7, #22]	@ movhi
1279:../Libraries/STM32F10x_StdPeriph_Driver/src/stm32f10x_tim.c ****   
1280:../Libraries/STM32F10x_StdPeriph_Driver/src/stm32f10x_tim.c ****   /* Get the TIMx CCMR1 register value */
1281:../Libraries/STM32F10x_StdPeriph_Driver/src/stm32f10x_tim.c ****   tmpccmr1 = TIMx->CCMR1;
 23017              		.loc 1 1281 0
 23018 0026 FB68     		ldr	r3, [r7, #12]
 23019 0028 1B8B     		ldrh	r3, [r3, #24]	@ movhi
 23020 002a BB82     		strh	r3, [r7, #20]	@ movhi
1282:../Libraries/STM32F10x_StdPeriph_Driver/src/stm32f10x_tim.c ****   
1283:../Libraries/STM32F10x_StdPeriph_Driver/src/stm32f10x_tim.c ****   /* Get the TIMx CCER register value */
1284:../Libraries/STM32F10x_StdPeriph_Driver/src/stm32f10x_tim.c ****   tmpccer = TIMx->CCER;
 23021              		.loc 1 1284 0
 23022 002c FB68     		ldr	r3, [r7, #12]
 23023 002e 1B8C     		ldrh	r3, [r3, #32]	@ movhi
 23024 0030 7B82     		strh	r3, [r7, #18]	@ movhi
1285:../Libraries/STM32F10x_StdPeriph_Driver/src/stm32f10x_tim.c ****   
1286:../Libraries/STM32F10x_StdPeriph_Driver/src/stm32f10x_tim.c ****   /* Set the encoder Mode */
1287:../Libraries/STM32F10x_StdPeriph_Driver/src/stm32f10x_tim.c ****   tmpsmcr &= (uint16_t)(~((uint16_t)TIM_SMCR_SMS));
 23025              		.loc 1 1287 0
 23026 0032 FB8A     		ldrh	r3, [r7, #22]	@ movhi
 23027 0034 23F00703 		bic	r3, r3, #7
 23028 0038 FB82     		strh	r3, [r7, #22]	@ movhi
1288:../Libraries/STM32F10x_StdPeriph_Driver/src/stm32f10x_tim.c ****   tmpsmcr |= TIM_EncoderMode;
 23029              		.loc 1 1288 0
 23030 003a FA8A     		ldrh	r2, [r7, #22]	@ movhi
 23031 003c 7B89     		ldrh	r3, [r7, #10]	@ movhi
 23032 003e 42EA0303 		orr	r3, r2, r3
 23033 0042 FB82     		strh	r3, [r7, #22]	@ movhi
1289:../Libraries/STM32F10x_StdPeriph_Driver/src/stm32f10x_tim.c ****   
1290:../Libraries/STM32F10x_StdPeriph_Driver/src/stm32f10x_tim.c ****   /* Select the Capture Compare 1 and the Capture Compare 2 as input */
1291:../Libraries/STM32F10x_StdPeriph_Driver/src/stm32f10x_tim.c ****   tmpccmr1 &= (uint16_t)(((uint16_t)~((uint16_t)TIM_CCMR1_CC1S)) & (uint16_t)(~((uint16_t)TIM_CCMR1
 23034              		.loc 1 1291 0
 23035 0044 BB8A     		ldrh	r3, [r7, #20]	@ movhi
 23036 0046 23F44073 		bic	r3, r3, #768
 23037 004a 23F00303 		bic	r3, r3, #3
 23038 004e BB82     		strh	r3, [r7, #20]	@ movhi
1292:../Libraries/STM32F10x_StdPeriph_Driver/src/stm32f10x_tim.c ****   tmpccmr1 |= TIM_CCMR1_CC1S_0 | TIM_CCMR1_CC2S_0;
 23039              		.loc 1 1292 0
 23040 0050 BB8A     		ldrh	r3, [r7, #20]	@ movhi
 23041 0052 43F48073 		orr	r3, r3, #256
 23042 0056 43F00103 		orr	r3, r3, #1
 23043 005a BB82     		strh	r3, [r7, #20]	@ movhi
1293:../Libraries/STM32F10x_StdPeriph_Driver/src/stm32f10x_tim.c ****   
1294:../Libraries/STM32F10x_StdPeriph_Driver/src/stm32f10x_tim.c ****   /* Set the TI1 and the TI2 Polarities */
1295:../Libraries/STM32F10x_StdPeriph_Driver/src/stm32f10x_tim.c ****   tmpccer &= (uint16_t)(((uint16_t)~((uint16_t)TIM_CCER_CC1P)) & ((uint16_t)~((uint16_t)TIM_CCER_CC
 23044              		.loc 1 1295 0
 23045 005c 7B8A     		ldrh	r3, [r7, #18]	@ movhi
 23046 005e 23F02203 		bic	r3, r3, #34
 23047 0062 7B82     		strh	r3, [r7, #18]	@ movhi
1296:../Libraries/STM32F10x_StdPeriph_Driver/src/stm32f10x_tim.c ****   tmpccer |= (uint16_t)(TIM_IC1Polarity | (uint16_t)(TIM_IC2Polarity << (uint16_t)4));
 23048              		.loc 1 1296 0
 23049 0064 FB88     		ldrh	r3, [r7, #6]	@ movhi
 23050 0066 4FEA0313 		lsl	r3, r3, #4
 23051 006a 9AB2     		uxth	r2, r3
 23052 006c 3B89     		ldrh	r3, [r7, #8]	@ movhi
 23053 006e 42EA0303 		orr	r3, r2, r3
 23054 0072 9AB2     		uxth	r2, r3
 23055 0074 7B8A     		ldrh	r3, [r7, #18]	@ movhi
 23056 0076 42EA0303 		orr	r3, r2, r3
 23057 007a 7B82     		strh	r3, [r7, #18]	@ movhi
1297:../Libraries/STM32F10x_StdPeriph_Driver/src/stm32f10x_tim.c ****   
1298:../Libraries/STM32F10x_StdPeriph_Driver/src/stm32f10x_tim.c ****   /* Write to TIMx SMCR */
1299:../Libraries/STM32F10x_StdPeriph_Driver/src/stm32f10x_tim.c ****   TIMx->SMCR = tmpsmcr;
 23058              		.loc 1 1299 0
 23059 007c FB68     		ldr	r3, [r7, #12]
 23060 007e FA8A     		ldrh	r2, [r7, #22]	@ movhi
 23061 0080 1A81     		strh	r2, [r3, #8]	@ movhi
1300:../Libraries/STM32F10x_StdPeriph_Driver/src/stm32f10x_tim.c ****   /* Write to TIMx CCMR1 */
1301:../Libraries/STM32F10x_StdPeriph_Driver/src/stm32f10x_tim.c ****   TIMx->CCMR1 = tmpccmr1;
 23062              		.loc 1 1301 0
 23063 0082 FB68     		ldr	r3, [r7, #12]
 23064 0084 BA8A     		ldrh	r2, [r7, #20]	@ movhi
 23065 0086 1A83     		strh	r2, [r3, #24]	@ movhi
1302:../Libraries/STM32F10x_StdPeriph_Driver/src/stm32f10x_tim.c ****   /* Write to TIMx CCER */
1303:../Libraries/STM32F10x_StdPeriph_Driver/src/stm32f10x_tim.c ****   TIMx->CCER = tmpccer;
 23066              		.loc 1 1303 0
 23067 0088 FB68     		ldr	r3, [r7, #12]
 23068 008a 7A8A     		ldrh	r2, [r7, #18]	@ movhi
 23069 008c 1A84     		strh	r2, [r3, #32]	@ movhi
1304:../Libraries/STM32F10x_StdPeriph_Driver/src/stm32f10x_tim.c **** }
 23070              		.loc 1 1304 0
 23071 008e 07F11C07 		add	r7, r7, #28
 23072 0092 BD46     		mov	sp, r7
 23073 0094 80BC     		pop	{r7}
 23074 0096 7047     		bx	lr
 23075              		.cfi_endproc
 23076              	.LFE57:
 23078              		.section	.text.TIM_ForcedOC1Config,"ax",%progbits
 23079              		.align	2
 23080              		.global	TIM_ForcedOC1Config
 23081              		.thumb
 23082              		.thumb_func
 23084              	TIM_ForcedOC1Config:
 23085              	.LFB58:
1305:../Libraries/STM32F10x_StdPeriph_Driver/src/stm32f10x_tim.c **** 
1306:../Libraries/STM32F10x_StdPeriph_Driver/src/stm32f10x_tim.c **** /**
1307:../Libraries/STM32F10x_StdPeriph_Driver/src/stm32f10x_tim.c ****   * @brief  Forces the TIMx output 1 waveform to active or inactive level.
1308:../Libraries/STM32F10x_StdPeriph_Driver/src/stm32f10x_tim.c ****   * @param  TIMx: where x can be  1 to 17 except 6 and 7 to select the TIM peripheral.
1309:../Libraries/STM32F10x_StdPeriph_Driver/src/stm32f10x_tim.c ****   * @param  TIM_ForcedAction: specifies the forced Action to be set to the output waveform.
1310:../Libraries/STM32F10x_StdPeriph_Driver/src/stm32f10x_tim.c ****   *   This parameter can be one of the following values:
1311:../Libraries/STM32F10x_StdPeriph_Driver/src/stm32f10x_tim.c ****   *     @arg TIM_ForcedAction_Active: Force active level on OC1REF
1312:../Libraries/STM32F10x_StdPeriph_Driver/src/stm32f10x_tim.c ****   *     @arg TIM_ForcedAction_InActive: Force inactive level on OC1REF.
1313:../Libraries/STM32F10x_StdPeriph_Driver/src/stm32f10x_tim.c ****   * @retval None
1314:../Libraries/STM32F10x_StdPeriph_Driver/src/stm32f10x_tim.c ****   */
1315:../Libraries/STM32F10x_StdPeriph_Driver/src/stm32f10x_tim.c **** void TIM_ForcedOC1Config(TIM_TypeDef* TIMx, uint16_t TIM_ForcedAction)
1316:../Libraries/STM32F10x_StdPeriph_Driver/src/stm32f10x_tim.c **** {
 23086              		.loc 1 1316 0
 23087              		.cfi_startproc
 23088              		@ args = 0, pretend = 0, frame = 16
 23089              		@ frame_needed = 1, uses_anonymous_args = 0
 23090              		@ link register save eliminated.
 23091 0000 80B4     		push	{r7}
 23092              	.LCFI87:
 23093              		.cfi_def_cfa_offset 4
 23094 0002 85B0     		sub	sp, sp, #20
 23095              	.LCFI88:
 23096              		.cfi_def_cfa_offset 24
 23097 0004 00AF     		add	r7, sp, #0
 23098              		.cfi_offset 7, -4
 23099              	.LCFI89:
 23100              		.cfi_def_cfa_register 7
 23101 0006 7860     		str	r0, [r7, #4]
 23102 0008 0B46     		mov	r3, r1
 23103 000a 7B80     		strh	r3, [r7, #2]	@ movhi
1317:../Libraries/STM32F10x_StdPeriph_Driver/src/stm32f10x_tim.c ****   uint16_t tmpccmr1 = 0;
 23104              		.loc 1 1317 0
 23105 000c 4FF00003 		mov	r3, #0
 23106 0010 FB81     		strh	r3, [r7, #14]	@ movhi
1318:../Libraries/STM32F10x_StdPeriph_Driver/src/stm32f10x_tim.c ****   /* Check the parameters */
1319:../Libraries/STM32F10x_StdPeriph_Driver/src/stm32f10x_tim.c ****   assert_param(IS_TIM_LIST8_PERIPH(TIMx));
1320:../Libraries/STM32F10x_StdPeriph_Driver/src/stm32f10x_tim.c ****   assert_param(IS_TIM_FORCED_ACTION(TIM_ForcedAction));
1321:../Libraries/STM32F10x_StdPeriph_Driver/src/stm32f10x_tim.c ****   tmpccmr1 = TIMx->CCMR1;
 23107              		.loc 1 1321 0
 23108 0012 7B68     		ldr	r3, [r7, #4]
 23109 0014 1B8B     		ldrh	r3, [r3, #24]	@ movhi
 23110 0016 FB81     		strh	r3, [r7, #14]	@ movhi
1322:../Libraries/STM32F10x_StdPeriph_Driver/src/stm32f10x_tim.c ****   /* Reset the OC1M Bits */
1323:../Libraries/STM32F10x_StdPeriph_Driver/src/stm32f10x_tim.c ****   tmpccmr1 &= (uint16_t)~((uint16_t)TIM_CCMR1_OC1M);
 23111              		.loc 1 1323 0
 23112 0018 FB89     		ldrh	r3, [r7, #14]	@ movhi
 23113 001a 23F07003 		bic	r3, r3, #112
 23114 001e FB81     		strh	r3, [r7, #14]	@ movhi
1324:../Libraries/STM32F10x_StdPeriph_Driver/src/stm32f10x_tim.c ****   /* Configure The Forced output Mode */
1325:../Libraries/STM32F10x_StdPeriph_Driver/src/stm32f10x_tim.c ****   tmpccmr1 |= TIM_ForcedAction;
 23115              		.loc 1 1325 0
 23116 0020 FA89     		ldrh	r2, [r7, #14]	@ movhi
 23117 0022 7B88     		ldrh	r3, [r7, #2]	@ movhi
 23118 0024 42EA0303 		orr	r3, r2, r3
 23119 0028 FB81     		strh	r3, [r7, #14]	@ movhi
1326:../Libraries/STM32F10x_StdPeriph_Driver/src/stm32f10x_tim.c ****   /* Write to TIMx CCMR1 register */
1327:../Libraries/STM32F10x_StdPeriph_Driver/src/stm32f10x_tim.c ****   TIMx->CCMR1 = tmpccmr1;
 23120              		.loc 1 1327 0
 23121 002a 7B68     		ldr	r3, [r7, #4]
 23122 002c FA89     		ldrh	r2, [r7, #14]	@ movhi
 23123 002e 1A83     		strh	r2, [r3, #24]	@ movhi
1328:../Libraries/STM32F10x_StdPeriph_Driver/src/stm32f10x_tim.c **** }
 23124              		.loc 1 1328 0
 23125 0030 07F11407 		add	r7, r7, #20
 23126 0034 BD46     		mov	sp, r7
 23127 0036 80BC     		pop	{r7}
 23128 0038 7047     		bx	lr
 23129              		.cfi_endproc
 23130              	.LFE58:
 23132 003a 00BF     		.section	.text.TIM_ForcedOC2Config,"ax",%progbits
 23133              		.align	2
 23134              		.global	TIM_ForcedOC2Config
 23135              		.thumb
 23136              		.thumb_func
 23138              	TIM_ForcedOC2Config:
 23139              	.LFB59:
1329:../Libraries/STM32F10x_StdPeriph_Driver/src/stm32f10x_tim.c **** 
1330:../Libraries/STM32F10x_StdPeriph_Driver/src/stm32f10x_tim.c **** /**
1331:../Libraries/STM32F10x_StdPeriph_Driver/src/stm32f10x_tim.c ****   * @brief  Forces the TIMx output 2 waveform to active or inactive level.
1332:../Libraries/STM32F10x_StdPeriph_Driver/src/stm32f10x_tim.c ****   * @param  TIMx: where x can be  1, 2, 3, 4, 5, 8, 9, 12 or 15 to select the TIM peripheral.
1333:../Libraries/STM32F10x_StdPeriph_Driver/src/stm32f10x_tim.c ****   * @param  TIM_ForcedAction: specifies the forced Action to be set to the output waveform.
1334:../Libraries/STM32F10x_StdPeriph_Driver/src/stm32f10x_tim.c ****   *   This parameter can be one of the following values:
1335:../Libraries/STM32F10x_StdPeriph_Driver/src/stm32f10x_tim.c ****   *     @arg TIM_ForcedAction_Active: Force active level on OC2REF
1336:../Libraries/STM32F10x_StdPeriph_Driver/src/stm32f10x_tim.c ****   *     @arg TIM_ForcedAction_InActive: Force inactive level on OC2REF.
1337:../Libraries/STM32F10x_StdPeriph_Driver/src/stm32f10x_tim.c ****   * @retval None
1338:../Libraries/STM32F10x_StdPeriph_Driver/src/stm32f10x_tim.c ****   */
1339:../Libraries/STM32F10x_StdPeriph_Driver/src/stm32f10x_tim.c **** void TIM_ForcedOC2Config(TIM_TypeDef* TIMx, uint16_t TIM_ForcedAction)
1340:../Libraries/STM32F10x_StdPeriph_Driver/src/stm32f10x_tim.c **** {
 23140              		.loc 1 1340 0
 23141              		.cfi_startproc
 23142              		@ args = 0, pretend = 0, frame = 16
 23143              		@ frame_needed = 1, uses_anonymous_args = 0
 23144              		@ link register save eliminated.
 23145 0000 80B4     		push	{r7}
 23146              	.LCFI90:
 23147              		.cfi_def_cfa_offset 4
 23148 0002 85B0     		sub	sp, sp, #20
 23149              	.LCFI91:
 23150              		.cfi_def_cfa_offset 24
 23151 0004 00AF     		add	r7, sp, #0
 23152              		.cfi_offset 7, -4
 23153              	.LCFI92:
 23154              		.cfi_def_cfa_register 7
 23155 0006 7860     		str	r0, [r7, #4]
 23156 0008 0B46     		mov	r3, r1
 23157 000a 7B80     		strh	r3, [r7, #2]	@ movhi
1341:../Libraries/STM32F10x_StdPeriph_Driver/src/stm32f10x_tim.c ****   uint16_t tmpccmr1 = 0;
 23158              		.loc 1 1341 0
 23159 000c 4FF00003 		mov	r3, #0
 23160 0010 FB81     		strh	r3, [r7, #14]	@ movhi
1342:../Libraries/STM32F10x_StdPeriph_Driver/src/stm32f10x_tim.c ****   /* Check the parameters */
1343:../Libraries/STM32F10x_StdPeriph_Driver/src/stm32f10x_tim.c ****   assert_param(IS_TIM_LIST6_PERIPH(TIMx));
1344:../Libraries/STM32F10x_StdPeriph_Driver/src/stm32f10x_tim.c ****   assert_param(IS_TIM_FORCED_ACTION(TIM_ForcedAction));
1345:../Libraries/STM32F10x_StdPeriph_Driver/src/stm32f10x_tim.c ****   tmpccmr1 = TIMx->CCMR1;
 23161              		.loc 1 1345 0
 23162 0012 7B68     		ldr	r3, [r7, #4]
 23163 0014 1B8B     		ldrh	r3, [r3, #24]	@ movhi
 23164 0016 FB81     		strh	r3, [r7, #14]	@ movhi
1346:../Libraries/STM32F10x_StdPeriph_Driver/src/stm32f10x_tim.c ****   /* Reset the OC2M Bits */
1347:../Libraries/STM32F10x_StdPeriph_Driver/src/stm32f10x_tim.c ****   tmpccmr1 &= (uint16_t)~((uint16_t)TIM_CCMR1_OC2M);
 23165              		.loc 1 1347 0
 23166 0018 FB89     		ldrh	r3, [r7, #14]	@ movhi
 23167 001a 23F4E043 		bic	r3, r3, #28672
 23168 001e FB81     		strh	r3, [r7, #14]	@ movhi
1348:../Libraries/STM32F10x_StdPeriph_Driver/src/stm32f10x_tim.c ****   /* Configure The Forced output Mode */
1349:../Libraries/STM32F10x_StdPeriph_Driver/src/stm32f10x_tim.c ****   tmpccmr1 |= (uint16_t)(TIM_ForcedAction << 8);
 23169              		.loc 1 1349 0
 23170 0020 7B88     		ldrh	r3, [r7, #2]	@ movhi
 23171 0022 4FEA0323 		lsl	r3, r3, #8
 23172 0026 9AB2     		uxth	r2, r3
 23173 0028 FB89     		ldrh	r3, [r7, #14]	@ movhi
 23174 002a 42EA0303 		orr	r3, r2, r3
 23175 002e FB81     		strh	r3, [r7, #14]	@ movhi
1350:../Libraries/STM32F10x_StdPeriph_Driver/src/stm32f10x_tim.c ****   /* Write to TIMx CCMR1 register */
1351:../Libraries/STM32F10x_StdPeriph_Driver/src/stm32f10x_tim.c ****   TIMx->CCMR1 = tmpccmr1;
 23176              		.loc 1 1351 0
 23177 0030 7B68     		ldr	r3, [r7, #4]
 23178 0032 FA89     		ldrh	r2, [r7, #14]	@ movhi
 23179 0034 1A83     		strh	r2, [r3, #24]	@ movhi
1352:../Libraries/STM32F10x_StdPeriph_Driver/src/stm32f10x_tim.c **** }
 23180              		.loc 1 1352 0
 23181 0036 07F11407 		add	r7, r7, #20
 23182 003a BD46     		mov	sp, r7
 23183 003c 80BC     		pop	{r7}
 23184 003e 7047     		bx	lr
 23185              		.cfi_endproc
 23186              	.LFE59:
 23188              		.section	.text.TIM_ForcedOC3Config,"ax",%progbits
 23189              		.align	2
 23190              		.global	TIM_ForcedOC3Config
 23191              		.thumb
 23192              		.thumb_func
 23194              	TIM_ForcedOC3Config:
 23195              	.LFB60:
1353:../Libraries/STM32F10x_StdPeriph_Driver/src/stm32f10x_tim.c **** 
1354:../Libraries/STM32F10x_StdPeriph_Driver/src/stm32f10x_tim.c **** /**
1355:../Libraries/STM32F10x_StdPeriph_Driver/src/stm32f10x_tim.c ****   * @brief  Forces the TIMx output 3 waveform to active or inactive level.
1356:../Libraries/STM32F10x_StdPeriph_Driver/src/stm32f10x_tim.c ****   * @param  TIMx: where x can be  1, 2, 3, 4, 5 or 8 to select the TIM peripheral.
1357:../Libraries/STM32F10x_StdPeriph_Driver/src/stm32f10x_tim.c ****   * @param  TIM_ForcedAction: specifies the forced Action to be set to the output waveform.
1358:../Libraries/STM32F10x_StdPeriph_Driver/src/stm32f10x_tim.c ****   *   This parameter can be one of the following values:
1359:../Libraries/STM32F10x_StdPeriph_Driver/src/stm32f10x_tim.c ****   *     @arg TIM_ForcedAction_Active: Force active level on OC3REF
1360:../Libraries/STM32F10x_StdPeriph_Driver/src/stm32f10x_tim.c ****   *     @arg TIM_ForcedAction_InActive: Force inactive level on OC3REF.
1361:../Libraries/STM32F10x_StdPeriph_Driver/src/stm32f10x_tim.c ****   * @retval None
1362:../Libraries/STM32F10x_StdPeriph_Driver/src/stm32f10x_tim.c ****   */
1363:../Libraries/STM32F10x_StdPeriph_Driver/src/stm32f10x_tim.c **** void TIM_ForcedOC3Config(TIM_TypeDef* TIMx, uint16_t TIM_ForcedAction)
1364:../Libraries/STM32F10x_StdPeriph_Driver/src/stm32f10x_tim.c **** {
 23196              		.loc 1 1364 0
 23197              		.cfi_startproc
 23198              		@ args = 0, pretend = 0, frame = 16
 23199              		@ frame_needed = 1, uses_anonymous_args = 0
 23200              		@ link register save eliminated.
 23201 0000 80B4     		push	{r7}
 23202              	.LCFI93:
 23203              		.cfi_def_cfa_offset 4
 23204 0002 85B0     		sub	sp, sp, #20
 23205              	.LCFI94:
 23206              		.cfi_def_cfa_offset 24
 23207 0004 00AF     		add	r7, sp, #0
 23208              		.cfi_offset 7, -4
 23209              	.LCFI95:
 23210              		.cfi_def_cfa_register 7
 23211 0006 7860     		str	r0, [r7, #4]
 23212 0008 0B46     		mov	r3, r1
 23213 000a 7B80     		strh	r3, [r7, #2]	@ movhi
1365:../Libraries/STM32F10x_StdPeriph_Driver/src/stm32f10x_tim.c ****   uint16_t tmpccmr2 = 0;
 23214              		.loc 1 1365 0
 23215 000c 4FF00003 		mov	r3, #0
 23216 0010 FB81     		strh	r3, [r7, #14]	@ movhi
1366:../Libraries/STM32F10x_StdPeriph_Driver/src/stm32f10x_tim.c ****   /* Check the parameters */
1367:../Libraries/STM32F10x_StdPeriph_Driver/src/stm32f10x_tim.c ****   assert_param(IS_TIM_LIST3_PERIPH(TIMx));
1368:../Libraries/STM32F10x_StdPeriph_Driver/src/stm32f10x_tim.c ****   assert_param(IS_TIM_FORCED_ACTION(TIM_ForcedAction));
1369:../Libraries/STM32F10x_StdPeriph_Driver/src/stm32f10x_tim.c ****   tmpccmr2 = TIMx->CCMR2;
 23217              		.loc 1 1369 0
 23218 0012 7B68     		ldr	r3, [r7, #4]
 23219 0014 9B8B     		ldrh	r3, [r3, #28]	@ movhi
 23220 0016 FB81     		strh	r3, [r7, #14]	@ movhi
1370:../Libraries/STM32F10x_StdPeriph_Driver/src/stm32f10x_tim.c ****   /* Reset the OC1M Bits */
1371:../Libraries/STM32F10x_StdPeriph_Driver/src/stm32f10x_tim.c ****   tmpccmr2 &= (uint16_t)~((uint16_t)TIM_CCMR2_OC3M);
 23221              		.loc 1 1371 0
 23222 0018 FB89     		ldrh	r3, [r7, #14]	@ movhi
 23223 001a 23F07003 		bic	r3, r3, #112
 23224 001e FB81     		strh	r3, [r7, #14]	@ movhi
1372:../Libraries/STM32F10x_StdPeriph_Driver/src/stm32f10x_tim.c ****   /* Configure The Forced output Mode */
1373:../Libraries/STM32F10x_StdPeriph_Driver/src/stm32f10x_tim.c ****   tmpccmr2 |= TIM_ForcedAction;
 23225              		.loc 1 1373 0
 23226 0020 FA89     		ldrh	r2, [r7, #14]	@ movhi
 23227 0022 7B88     		ldrh	r3, [r7, #2]	@ movhi
 23228 0024 42EA0303 		orr	r3, r2, r3
 23229 0028 FB81     		strh	r3, [r7, #14]	@ movhi
1374:../Libraries/STM32F10x_StdPeriph_Driver/src/stm32f10x_tim.c ****   /* Write to TIMx CCMR2 register */
1375:../Libraries/STM32F10x_StdPeriph_Driver/src/stm32f10x_tim.c ****   TIMx->CCMR2 = tmpccmr2;
 23230              		.loc 1 1375 0
 23231 002a 7B68     		ldr	r3, [r7, #4]
 23232 002c FA89     		ldrh	r2, [r7, #14]	@ movhi
 23233 002e 9A83     		strh	r2, [r3, #28]	@ movhi
1376:../Libraries/STM32F10x_StdPeriph_Driver/src/stm32f10x_tim.c **** }
 23234              		.loc 1 1376 0
 23235 0030 07F11407 		add	r7, r7, #20
 23236 0034 BD46     		mov	sp, r7
 23237 0036 80BC     		pop	{r7}
 23238 0038 7047     		bx	lr
 23239              		.cfi_endproc
 23240              	.LFE60:
 23242 003a 00BF     		.section	.text.TIM_ForcedOC4Config,"ax",%progbits
 23243              		.align	2
 23244              		.global	TIM_ForcedOC4Config
 23245              		.thumb
 23246              		.thumb_func
 23248              	TIM_ForcedOC4Config:
 23249              	.LFB61:
1377:../Libraries/STM32F10x_StdPeriph_Driver/src/stm32f10x_tim.c **** 
1378:../Libraries/STM32F10x_StdPeriph_Driver/src/stm32f10x_tim.c **** /**
1379:../Libraries/STM32F10x_StdPeriph_Driver/src/stm32f10x_tim.c ****   * @brief  Forces the TIMx output 4 waveform to active or inactive level.
1380:../Libraries/STM32F10x_StdPeriph_Driver/src/stm32f10x_tim.c ****   * @param  TIMx: where x can be  1, 2, 3, 4, 5 or 8 to select the TIM peripheral.
1381:../Libraries/STM32F10x_StdPeriph_Driver/src/stm32f10x_tim.c ****   * @param  TIM_ForcedAction: specifies the forced Action to be set to the output waveform.
1382:../Libraries/STM32F10x_StdPeriph_Driver/src/stm32f10x_tim.c ****   *   This parameter can be one of the following values:
1383:../Libraries/STM32F10x_StdPeriph_Driver/src/stm32f10x_tim.c ****   *     @arg TIM_ForcedAction_Active: Force active level on OC4REF
1384:../Libraries/STM32F10x_StdPeriph_Driver/src/stm32f10x_tim.c ****   *     @arg TIM_ForcedAction_InActive: Force inactive level on OC4REF.
1385:../Libraries/STM32F10x_StdPeriph_Driver/src/stm32f10x_tim.c ****   * @retval None
1386:../Libraries/STM32F10x_StdPeriph_Driver/src/stm32f10x_tim.c ****   */
1387:../Libraries/STM32F10x_StdPeriph_Driver/src/stm32f10x_tim.c **** void TIM_ForcedOC4Config(TIM_TypeDef* TIMx, uint16_t TIM_ForcedAction)
1388:../Libraries/STM32F10x_StdPeriph_Driver/src/stm32f10x_tim.c **** {
 23250              		.loc 1 1388 0
 23251              		.cfi_startproc
 23252              		@ args = 0, pretend = 0, frame = 16
 23253              		@ frame_needed = 1, uses_anonymous_args = 0
 23254              		@ link register save eliminated.
 23255 0000 80B4     		push	{r7}
 23256              	.LCFI96:
 23257              		.cfi_def_cfa_offset 4
 23258 0002 85B0     		sub	sp, sp, #20
 23259              	.LCFI97:
 23260              		.cfi_def_cfa_offset 24
 23261 0004 00AF     		add	r7, sp, #0
 23262              		.cfi_offset 7, -4
 23263              	.LCFI98:
 23264              		.cfi_def_cfa_register 7
 23265 0006 7860     		str	r0, [r7, #4]
 23266 0008 0B46     		mov	r3, r1
 23267 000a 7B80     		strh	r3, [r7, #2]	@ movhi
1389:../Libraries/STM32F10x_StdPeriph_Driver/src/stm32f10x_tim.c ****   uint16_t tmpccmr2 = 0;
 23268              		.loc 1 1389 0
 23269 000c 4FF00003 		mov	r3, #0
 23270 0010 FB81     		strh	r3, [r7, #14]	@ movhi
1390:../Libraries/STM32F10x_StdPeriph_Driver/src/stm32f10x_tim.c ****   /* Check the parameters */
1391:../Libraries/STM32F10x_StdPeriph_Driver/src/stm32f10x_tim.c ****   assert_param(IS_TIM_LIST3_PERIPH(TIMx));
1392:../Libraries/STM32F10x_StdPeriph_Driver/src/stm32f10x_tim.c ****   assert_param(IS_TIM_FORCED_ACTION(TIM_ForcedAction));
1393:../Libraries/STM32F10x_StdPeriph_Driver/src/stm32f10x_tim.c ****   tmpccmr2 = TIMx->CCMR2;
 23271              		.loc 1 1393 0
 23272 0012 7B68     		ldr	r3, [r7, #4]
 23273 0014 9B8B     		ldrh	r3, [r3, #28]	@ movhi
 23274 0016 FB81     		strh	r3, [r7, #14]	@ movhi
1394:../Libraries/STM32F10x_StdPeriph_Driver/src/stm32f10x_tim.c ****   /* Reset the OC2M Bits */
1395:../Libraries/STM32F10x_StdPeriph_Driver/src/stm32f10x_tim.c ****   tmpccmr2 &= (uint16_t)~((uint16_t)TIM_CCMR2_OC4M);
 23275              		.loc 1 1395 0
 23276 0018 FB89     		ldrh	r3, [r7, #14]	@ movhi
 23277 001a 23F4E043 		bic	r3, r3, #28672
 23278 001e FB81     		strh	r3, [r7, #14]	@ movhi
1396:../Libraries/STM32F10x_StdPeriph_Driver/src/stm32f10x_tim.c ****   /* Configure The Forced output Mode */
1397:../Libraries/STM32F10x_StdPeriph_Driver/src/stm32f10x_tim.c ****   tmpccmr2 |= (uint16_t)(TIM_ForcedAction << 8);
 23279              		.loc 1 1397 0
 23280 0020 7B88     		ldrh	r3, [r7, #2]	@ movhi
 23281 0022 4FEA0323 		lsl	r3, r3, #8
 23282 0026 9AB2     		uxth	r2, r3
 23283 0028 FB89     		ldrh	r3, [r7, #14]	@ movhi
 23284 002a 42EA0303 		orr	r3, r2, r3
 23285 002e FB81     		strh	r3, [r7, #14]	@ movhi
1398:../Libraries/STM32F10x_StdPeriph_Driver/src/stm32f10x_tim.c ****   /* Write to TIMx CCMR2 register */
1399:../Libraries/STM32F10x_StdPeriph_Driver/src/stm32f10x_tim.c ****   TIMx->CCMR2 = tmpccmr2;
 23286              		.loc 1 1399 0
 23287 0030 7B68     		ldr	r3, [r7, #4]
 23288 0032 FA89     		ldrh	r2, [r7, #14]	@ movhi
 23289 0034 9A83     		strh	r2, [r3, #28]	@ movhi
1400:../Libraries/STM32F10x_StdPeriph_Driver/src/stm32f10x_tim.c **** }
 23290              		.loc 1 1400 0
 23291 0036 07F11407 		add	r7, r7, #20
 23292 003a BD46     		mov	sp, r7
 23293 003c 80BC     		pop	{r7}
 23294 003e 7047     		bx	lr
 23295              		.cfi_endproc
 23296              	.LFE61:
 23298              		.section	.text.TIM_ARRPreloadConfig,"ax",%progbits
 23299              		.align	2
 23300              		.global	TIM_ARRPreloadConfig
 23301              		.thumb
 23302              		.thumb_func
 23304              	TIM_ARRPreloadConfig:
 23305              	.LFB62:
1401:../Libraries/STM32F10x_StdPeriph_Driver/src/stm32f10x_tim.c **** 
1402:../Libraries/STM32F10x_StdPeriph_Driver/src/stm32f10x_tim.c **** /**
1403:../Libraries/STM32F10x_StdPeriph_Driver/src/stm32f10x_tim.c ****   * @brief  Enables or disables TIMx peripheral Preload register on ARR.
1404:../Libraries/STM32F10x_StdPeriph_Driver/src/stm32f10x_tim.c ****   * @param  TIMx: where x can be  1 to 17 to select the TIM peripheral.
1405:../Libraries/STM32F10x_StdPeriph_Driver/src/stm32f10x_tim.c ****   * @param  NewState: new state of the TIMx peripheral Preload register
1406:../Libraries/STM32F10x_StdPeriph_Driver/src/stm32f10x_tim.c ****   *   This parameter can be: ENABLE or DISABLE.
1407:../Libraries/STM32F10x_StdPeriph_Driver/src/stm32f10x_tim.c ****   * @retval None
1408:../Libraries/STM32F10x_StdPeriph_Driver/src/stm32f10x_tim.c ****   */
1409:../Libraries/STM32F10x_StdPeriph_Driver/src/stm32f10x_tim.c **** void TIM_ARRPreloadConfig(TIM_TypeDef* TIMx, FunctionalState NewState)
1410:../Libraries/STM32F10x_StdPeriph_Driver/src/stm32f10x_tim.c **** {
 23306              		.loc 1 1410 0
 23307              		.cfi_startproc
 23308              		@ args = 0, pretend = 0, frame = 8
 23309              		@ frame_needed = 1, uses_anonymous_args = 0
 23310              		@ link register save eliminated.
 23311 0000 80B4     		push	{r7}
 23312              	.LCFI99:
 23313              		.cfi_def_cfa_offset 4
 23314 0002 83B0     		sub	sp, sp, #12
 23315              	.LCFI100:
 23316              		.cfi_def_cfa_offset 16
 23317 0004 00AF     		add	r7, sp, #0
 23318              		.cfi_offset 7, -4
 23319              	.LCFI101:
 23320              		.cfi_def_cfa_register 7
 23321 0006 7860     		str	r0, [r7, #4]
 23322 0008 0B46     		mov	r3, r1
 23323 000a FB70     		strb	r3, [r7, #3]
1411:../Libraries/STM32F10x_StdPeriph_Driver/src/stm32f10x_tim.c ****   /* Check the parameters */
1412:../Libraries/STM32F10x_StdPeriph_Driver/src/stm32f10x_tim.c ****   assert_param(IS_TIM_ALL_PERIPH(TIMx));
1413:../Libraries/STM32F10x_StdPeriph_Driver/src/stm32f10x_tim.c ****   assert_param(IS_FUNCTIONAL_STATE(NewState));
1414:../Libraries/STM32F10x_StdPeriph_Driver/src/stm32f10x_tim.c ****   if (NewState != DISABLE)
 23324              		.loc 1 1414 0
 23325 000c FB78     		ldrb	r3, [r7, #3]	@ zero_extendqisi2
 23326 000e 002B     		cmp	r3, #0
 23327 0010 08D0     		beq	.L97
1415:../Libraries/STM32F10x_StdPeriph_Driver/src/stm32f10x_tim.c ****   {
1416:../Libraries/STM32F10x_StdPeriph_Driver/src/stm32f10x_tim.c ****     /* Set the ARR Preload Bit */
1417:../Libraries/STM32F10x_StdPeriph_Driver/src/stm32f10x_tim.c ****     TIMx->CR1 |= TIM_CR1_ARPE;
 23328              		.loc 1 1417 0
 23329 0012 7B68     		ldr	r3, [r7, #4]
 23330 0014 1B88     		ldrh	r3, [r3, #0]	@ movhi
 23331 0016 9BB2     		uxth	r3, r3
 23332 0018 43F08003 		orr	r3, r3, #128
 23333 001c 9AB2     		uxth	r2, r3
 23334 001e 7B68     		ldr	r3, [r7, #4]
 23335 0020 1A80     		strh	r2, [r3, #0]	@ movhi
 23336 0022 07E0     		b	.L96
 23337              	.L97:
1418:../Libraries/STM32F10x_StdPeriph_Driver/src/stm32f10x_tim.c ****   }
1419:../Libraries/STM32F10x_StdPeriph_Driver/src/stm32f10x_tim.c ****   else
1420:../Libraries/STM32F10x_StdPeriph_Driver/src/stm32f10x_tim.c ****   {
1421:../Libraries/STM32F10x_StdPeriph_Driver/src/stm32f10x_tim.c ****     /* Reset the ARR Preload Bit */
1422:../Libraries/STM32F10x_StdPeriph_Driver/src/stm32f10x_tim.c ****     TIMx->CR1 &= (uint16_t)~((uint16_t)TIM_CR1_ARPE);
 23338              		.loc 1 1422 0
 23339 0024 7B68     		ldr	r3, [r7, #4]
 23340 0026 1B88     		ldrh	r3, [r3, #0]	@ movhi
 23341 0028 9BB2     		uxth	r3, r3
 23342 002a 23F08003 		bic	r3, r3, #128
 23343 002e 9AB2     		uxth	r2, r3
 23344 0030 7B68     		ldr	r3, [r7, #4]
 23345 0032 1A80     		strh	r2, [r3, #0]	@ movhi
 23346              	.L96:
1423:../Libraries/STM32F10x_StdPeriph_Driver/src/stm32f10x_tim.c ****   }
1424:../Libraries/STM32F10x_StdPeriph_Driver/src/stm32f10x_tim.c **** }
 23347              		.loc 1 1424 0
 23348 0034 07F10C07 		add	r7, r7, #12
 23349 0038 BD46     		mov	sp, r7
 23350 003a 80BC     		pop	{r7}
 23351 003c 7047     		bx	lr
 23352              		.cfi_endproc
 23353              	.LFE62:
 23355 003e 00BF     		.section	.text.TIM_SelectCOM,"ax",%progbits
 23356              		.align	2
 23357              		.global	TIM_SelectCOM
 23358              		.thumb
 23359              		.thumb_func
 23361              	TIM_SelectCOM:
 23362              	.LFB63:
1425:../Libraries/STM32F10x_StdPeriph_Driver/src/stm32f10x_tim.c **** 
1426:../Libraries/STM32F10x_StdPeriph_Driver/src/stm32f10x_tim.c **** /**
1427:../Libraries/STM32F10x_StdPeriph_Driver/src/stm32f10x_tim.c ****   * @brief  Selects the TIM peripheral Commutation event.
1428:../Libraries/STM32F10x_StdPeriph_Driver/src/stm32f10x_tim.c ****   * @param  TIMx: where x can be  1, 8, 15, 16 or 17 to select the TIMx peripheral
1429:../Libraries/STM32F10x_StdPeriph_Driver/src/stm32f10x_tim.c ****   * @param  NewState: new state of the Commutation event.
1430:../Libraries/STM32F10x_StdPeriph_Driver/src/stm32f10x_tim.c ****   *   This parameter can be: ENABLE or DISABLE.
1431:../Libraries/STM32F10x_StdPeriph_Driver/src/stm32f10x_tim.c ****   * @retval None
1432:../Libraries/STM32F10x_StdPeriph_Driver/src/stm32f10x_tim.c ****   */
1433:../Libraries/STM32F10x_StdPeriph_Driver/src/stm32f10x_tim.c **** void TIM_SelectCOM(TIM_TypeDef* TIMx, FunctionalState NewState)
1434:../Libraries/STM32F10x_StdPeriph_Driver/src/stm32f10x_tim.c **** {
 23363              		.loc 1 1434 0
 23364              		.cfi_startproc
 23365              		@ args = 0, pretend = 0, frame = 8
 23366              		@ frame_needed = 1, uses_anonymous_args = 0
 23367              		@ link register save eliminated.
 23368 0000 80B4     		push	{r7}
 23369              	.LCFI102:
 23370              		.cfi_def_cfa_offset 4
 23371 0002 83B0     		sub	sp, sp, #12
 23372              	.LCFI103:
 23373              		.cfi_def_cfa_offset 16
 23374 0004 00AF     		add	r7, sp, #0
 23375              		.cfi_offset 7, -4
 23376              	.LCFI104:
 23377              		.cfi_def_cfa_register 7
 23378 0006 7860     		str	r0, [r7, #4]
 23379 0008 0B46     		mov	r3, r1
 23380 000a FB70     		strb	r3, [r7, #3]
1435:../Libraries/STM32F10x_StdPeriph_Driver/src/stm32f10x_tim.c ****   /* Check the parameters */
1436:../Libraries/STM32F10x_StdPeriph_Driver/src/stm32f10x_tim.c ****   assert_param(IS_TIM_LIST2_PERIPH(TIMx));
1437:../Libraries/STM32F10x_StdPeriph_Driver/src/stm32f10x_tim.c ****   assert_param(IS_FUNCTIONAL_STATE(NewState));
1438:../Libraries/STM32F10x_StdPeriph_Driver/src/stm32f10x_tim.c ****   if (NewState != DISABLE)
 23381              		.loc 1 1438 0
 23382 000c FB78     		ldrb	r3, [r7, #3]	@ zero_extendqisi2
 23383 000e 002B     		cmp	r3, #0
 23384 0010 08D0     		beq	.L100
1439:../Libraries/STM32F10x_StdPeriph_Driver/src/stm32f10x_tim.c ****   {
1440:../Libraries/STM32F10x_StdPeriph_Driver/src/stm32f10x_tim.c ****     /* Set the COM Bit */
1441:../Libraries/STM32F10x_StdPeriph_Driver/src/stm32f10x_tim.c ****     TIMx->CR2 |= TIM_CR2_CCUS;
 23385              		.loc 1 1441 0
 23386 0012 7B68     		ldr	r3, [r7, #4]
 23387 0014 9B88     		ldrh	r3, [r3, #4]	@ movhi
 23388 0016 9BB2     		uxth	r3, r3
 23389 0018 43F00403 		orr	r3, r3, #4
 23390 001c 9AB2     		uxth	r2, r3
 23391 001e 7B68     		ldr	r3, [r7, #4]
 23392 0020 9A80     		strh	r2, [r3, #4]	@ movhi
 23393 0022 07E0     		b	.L99
 23394              	.L100:
1442:../Libraries/STM32F10x_StdPeriph_Driver/src/stm32f10x_tim.c ****   }
1443:../Libraries/STM32F10x_StdPeriph_Driver/src/stm32f10x_tim.c ****   else
1444:../Libraries/STM32F10x_StdPeriph_Driver/src/stm32f10x_tim.c ****   {
1445:../Libraries/STM32F10x_StdPeriph_Driver/src/stm32f10x_tim.c ****     /* Reset the COM Bit */
1446:../Libraries/STM32F10x_StdPeriph_Driver/src/stm32f10x_tim.c ****     TIMx->CR2 &= (uint16_t)~((uint16_t)TIM_CR2_CCUS);
 23395              		.loc 1 1446 0
 23396 0024 7B68     		ldr	r3, [r7, #4]
 23397 0026 9B88     		ldrh	r3, [r3, #4]	@ movhi
 23398 0028 9BB2     		uxth	r3, r3
 23399 002a 23F00403 		bic	r3, r3, #4
 23400 002e 9AB2     		uxth	r2, r3
 23401 0030 7B68     		ldr	r3, [r7, #4]
 23402 0032 9A80     		strh	r2, [r3, #4]	@ movhi
 23403              	.L99:
1447:../Libraries/STM32F10x_StdPeriph_Driver/src/stm32f10x_tim.c ****   }
1448:../Libraries/STM32F10x_StdPeriph_Driver/src/stm32f10x_tim.c **** }
 23404              		.loc 1 1448 0
 23405 0034 07F10C07 		add	r7, r7, #12
 23406 0038 BD46     		mov	sp, r7
 23407 003a 80BC     		pop	{r7}
 23408 003c 7047     		bx	lr
 23409              		.cfi_endproc
 23410              	.LFE63:
 23412 003e 00BF     		.section	.text.TIM_SelectCCDMA,"ax",%progbits
 23413              		.align	2
 23414              		.global	TIM_SelectCCDMA
 23415              		.thumb
 23416              		.thumb_func
 23418              	TIM_SelectCCDMA:
 23419              	.LFB64:
1449:../Libraries/STM32F10x_StdPeriph_Driver/src/stm32f10x_tim.c **** 
1450:../Libraries/STM32F10x_StdPeriph_Driver/src/stm32f10x_tim.c **** /**
1451:../Libraries/STM32F10x_StdPeriph_Driver/src/stm32f10x_tim.c ****   * @brief  Selects the TIMx peripheral Capture Compare DMA source.
1452:../Libraries/STM32F10x_StdPeriph_Driver/src/stm32f10x_tim.c ****   * @param  TIMx: where x can be  1, 2, 3, 4, 5, 8, 15, 16 or 17 to select 
1453:../Libraries/STM32F10x_StdPeriph_Driver/src/stm32f10x_tim.c ****   *         the TIM peripheral.
1454:../Libraries/STM32F10x_StdPeriph_Driver/src/stm32f10x_tim.c ****   * @param  NewState: new state of the Capture Compare DMA source
1455:../Libraries/STM32F10x_StdPeriph_Driver/src/stm32f10x_tim.c ****   *   This parameter can be: ENABLE or DISABLE.
1456:../Libraries/STM32F10x_StdPeriph_Driver/src/stm32f10x_tim.c ****   * @retval None
1457:../Libraries/STM32F10x_StdPeriph_Driver/src/stm32f10x_tim.c ****   */
1458:../Libraries/STM32F10x_StdPeriph_Driver/src/stm32f10x_tim.c **** void TIM_SelectCCDMA(TIM_TypeDef* TIMx, FunctionalState NewState)
1459:../Libraries/STM32F10x_StdPeriph_Driver/src/stm32f10x_tim.c **** {
 23420              		.loc 1 1459 0
 23421              		.cfi_startproc
 23422              		@ args = 0, pretend = 0, frame = 8
 23423              		@ frame_needed = 1, uses_anonymous_args = 0
 23424              		@ link register save eliminated.
 23425 0000 80B4     		push	{r7}
 23426              	.LCFI105:
 23427              		.cfi_def_cfa_offset 4
 23428 0002 83B0     		sub	sp, sp, #12
 23429              	.LCFI106:
 23430              		.cfi_def_cfa_offset 16
 23431 0004 00AF     		add	r7, sp, #0
 23432              		.cfi_offset 7, -4
 23433              	.LCFI107:
 23434              		.cfi_def_cfa_register 7
 23435 0006 7860     		str	r0, [r7, #4]
 23436 0008 0B46     		mov	r3, r1
 23437 000a FB70     		strb	r3, [r7, #3]
1460:../Libraries/STM32F10x_StdPeriph_Driver/src/stm32f10x_tim.c ****   /* Check the parameters */
1461:../Libraries/STM32F10x_StdPeriph_Driver/src/stm32f10x_tim.c ****   assert_param(IS_TIM_LIST4_PERIPH(TIMx));
1462:../Libraries/STM32F10x_StdPeriph_Driver/src/stm32f10x_tim.c ****   assert_param(IS_FUNCTIONAL_STATE(NewState));
1463:../Libraries/STM32F10x_StdPeriph_Driver/src/stm32f10x_tim.c ****   if (NewState != DISABLE)
 23438              		.loc 1 1463 0
 23439 000c FB78     		ldrb	r3, [r7, #3]	@ zero_extendqisi2
 23440 000e 002B     		cmp	r3, #0
 23441 0010 08D0     		beq	.L103
1464:../Libraries/STM32F10x_StdPeriph_Driver/src/stm32f10x_tim.c ****   {
1465:../Libraries/STM32F10x_StdPeriph_Driver/src/stm32f10x_tim.c ****     /* Set the CCDS Bit */
1466:../Libraries/STM32F10x_StdPeriph_Driver/src/stm32f10x_tim.c ****     TIMx->CR2 |= TIM_CR2_CCDS;
 23442              		.loc 1 1466 0
 23443 0012 7B68     		ldr	r3, [r7, #4]
 23444 0014 9B88     		ldrh	r3, [r3, #4]	@ movhi
 23445 0016 9BB2     		uxth	r3, r3
 23446 0018 43F00803 		orr	r3, r3, #8
 23447 001c 9AB2     		uxth	r2, r3
 23448 001e 7B68     		ldr	r3, [r7, #4]
 23449 0020 9A80     		strh	r2, [r3, #4]	@ movhi
 23450 0022 07E0     		b	.L102
 23451              	.L103:
1467:../Libraries/STM32F10x_StdPeriph_Driver/src/stm32f10x_tim.c ****   }
1468:../Libraries/STM32F10x_StdPeriph_Driver/src/stm32f10x_tim.c ****   else
1469:../Libraries/STM32F10x_StdPeriph_Driver/src/stm32f10x_tim.c ****   {
1470:../Libraries/STM32F10x_StdPeriph_Driver/src/stm32f10x_tim.c ****     /* Reset the CCDS Bit */
1471:../Libraries/STM32F10x_StdPeriph_Driver/src/stm32f10x_tim.c ****     TIMx->CR2 &= (uint16_t)~((uint16_t)TIM_CR2_CCDS);
 23452              		.loc 1 1471 0
 23453 0024 7B68     		ldr	r3, [r7, #4]
 23454 0026 9B88     		ldrh	r3, [r3, #4]	@ movhi
 23455 0028 9BB2     		uxth	r3, r3
 23456 002a 23F00803 		bic	r3, r3, #8
 23457 002e 9AB2     		uxth	r2, r3
 23458 0030 7B68     		ldr	r3, [r7, #4]
 23459 0032 9A80     		strh	r2, [r3, #4]	@ movhi
 23460              	.L102:
1472:../Libraries/STM32F10x_StdPeriph_Driver/src/stm32f10x_tim.c ****   }
1473:../Libraries/STM32F10x_StdPeriph_Driver/src/stm32f10x_tim.c **** }
 23461              		.loc 1 1473 0
 23462 0034 07F10C07 		add	r7, r7, #12
 23463 0038 BD46     		mov	sp, r7
 23464 003a 80BC     		pop	{r7}
 23465 003c 7047     		bx	lr
 23466              		.cfi_endproc
 23467              	.LFE64:
 23469 003e 00BF     		.section	.text.TIM_CCPreloadControl,"ax",%progbits
 23470              		.align	2
 23471              		.global	TIM_CCPreloadControl
 23472              		.thumb
 23473              		.thumb_func
 23475              	TIM_CCPreloadControl:
 23476              	.LFB65:
1474:../Libraries/STM32F10x_StdPeriph_Driver/src/stm32f10x_tim.c **** 
1475:../Libraries/STM32F10x_StdPeriph_Driver/src/stm32f10x_tim.c **** /**
1476:../Libraries/STM32F10x_StdPeriph_Driver/src/stm32f10x_tim.c ****   * @brief  Sets or Resets the TIM peripheral Capture Compare Preload Control bit.
1477:../Libraries/STM32F10x_StdPeriph_Driver/src/stm32f10x_tim.c ****   * @param  TIMx: where x can be   1, 2, 3, 4, 5, 8 or 15 
1478:../Libraries/STM32F10x_StdPeriph_Driver/src/stm32f10x_tim.c ****   *         to select the TIMx peripheral
1479:../Libraries/STM32F10x_StdPeriph_Driver/src/stm32f10x_tim.c ****   * @param  NewState: new state of the Capture Compare Preload Control bit
1480:../Libraries/STM32F10x_StdPeriph_Driver/src/stm32f10x_tim.c ****   *   This parameter can be: ENABLE or DISABLE.
1481:../Libraries/STM32F10x_StdPeriph_Driver/src/stm32f10x_tim.c ****   * @retval None
1482:../Libraries/STM32F10x_StdPeriph_Driver/src/stm32f10x_tim.c ****   */
1483:../Libraries/STM32F10x_StdPeriph_Driver/src/stm32f10x_tim.c **** void TIM_CCPreloadControl(TIM_TypeDef* TIMx, FunctionalState NewState)
1484:../Libraries/STM32F10x_StdPeriph_Driver/src/stm32f10x_tim.c **** { 
 23477              		.loc 1 1484 0
 23478              		.cfi_startproc
 23479              		@ args = 0, pretend = 0, frame = 8
 23480              		@ frame_needed = 1, uses_anonymous_args = 0
 23481              		@ link register save eliminated.
 23482 0000 80B4     		push	{r7}
 23483              	.LCFI108:
 23484              		.cfi_def_cfa_offset 4
 23485 0002 83B0     		sub	sp, sp, #12
 23486              	.LCFI109:
 23487              		.cfi_def_cfa_offset 16
 23488 0004 00AF     		add	r7, sp, #0
 23489              		.cfi_offset 7, -4
 23490              	.LCFI110:
 23491              		.cfi_def_cfa_register 7
 23492 0006 7860     		str	r0, [r7, #4]
 23493 0008 0B46     		mov	r3, r1
 23494 000a FB70     		strb	r3, [r7, #3]
1485:../Libraries/STM32F10x_StdPeriph_Driver/src/stm32f10x_tim.c ****   /* Check the parameters */
1486:../Libraries/STM32F10x_StdPeriph_Driver/src/stm32f10x_tim.c ****   assert_param(IS_TIM_LIST5_PERIPH(TIMx));
1487:../Libraries/STM32F10x_StdPeriph_Driver/src/stm32f10x_tim.c ****   assert_param(IS_FUNCTIONAL_STATE(NewState));
1488:../Libraries/STM32F10x_StdPeriph_Driver/src/stm32f10x_tim.c ****   if (NewState != DISABLE)
 23495              		.loc 1 1488 0
 23496 000c FB78     		ldrb	r3, [r7, #3]	@ zero_extendqisi2
 23497 000e 002B     		cmp	r3, #0
 23498 0010 08D0     		beq	.L106
1489:../Libraries/STM32F10x_StdPeriph_Driver/src/stm32f10x_tim.c ****   {
1490:../Libraries/STM32F10x_StdPeriph_Driver/src/stm32f10x_tim.c ****     /* Set the CCPC Bit */
1491:../Libraries/STM32F10x_StdPeriph_Driver/src/stm32f10x_tim.c ****     TIMx->CR2 |= TIM_CR2_CCPC;
 23499              		.loc 1 1491 0
 23500 0012 7B68     		ldr	r3, [r7, #4]
 23501 0014 9B88     		ldrh	r3, [r3, #4]	@ movhi
 23502 0016 9BB2     		uxth	r3, r3
 23503 0018 43F00103 		orr	r3, r3, #1
 23504 001c 9AB2     		uxth	r2, r3
 23505 001e 7B68     		ldr	r3, [r7, #4]
 23506 0020 9A80     		strh	r2, [r3, #4]	@ movhi
 23507 0022 07E0     		b	.L105
 23508              	.L106:
1492:../Libraries/STM32F10x_StdPeriph_Driver/src/stm32f10x_tim.c ****   }
1493:../Libraries/STM32F10x_StdPeriph_Driver/src/stm32f10x_tim.c ****   else
1494:../Libraries/STM32F10x_StdPeriph_Driver/src/stm32f10x_tim.c ****   {
1495:../Libraries/STM32F10x_StdPeriph_Driver/src/stm32f10x_tim.c ****     /* Reset the CCPC Bit */
1496:../Libraries/STM32F10x_StdPeriph_Driver/src/stm32f10x_tim.c ****     TIMx->CR2 &= (uint16_t)~((uint16_t)TIM_CR2_CCPC);
 23509              		.loc 1 1496 0
 23510 0024 7B68     		ldr	r3, [r7, #4]
 23511 0026 9B88     		ldrh	r3, [r3, #4]	@ movhi
 23512 0028 9BB2     		uxth	r3, r3
 23513 002a 23F00103 		bic	r3, r3, #1
 23514 002e 9AB2     		uxth	r2, r3
 23515 0030 7B68     		ldr	r3, [r7, #4]
 23516 0032 9A80     		strh	r2, [r3, #4]	@ movhi
 23517              	.L105:
1497:../Libraries/STM32F10x_StdPeriph_Driver/src/stm32f10x_tim.c ****   }
1498:../Libraries/STM32F10x_StdPeriph_Driver/src/stm32f10x_tim.c **** }
 23518              		.loc 1 1498 0
 23519 0034 07F10C07 		add	r7, r7, #12
 23520 0038 BD46     		mov	sp, r7
 23521 003a 80BC     		pop	{r7}
 23522 003c 7047     		bx	lr
 23523              		.cfi_endproc
 23524              	.LFE65:
 23526 003e 00BF     		.section	.text.TIM_OC1PreloadConfig,"ax",%progbits
 23527              		.align	2
 23528              		.global	TIM_OC1PreloadConfig
 23529              		.thumb
 23530              		.thumb_func
 23532              	TIM_OC1PreloadConfig:
 23533              	.LFB66:
1499:../Libraries/STM32F10x_StdPeriph_Driver/src/stm32f10x_tim.c **** 
1500:../Libraries/STM32F10x_StdPeriph_Driver/src/stm32f10x_tim.c **** /**
1501:../Libraries/STM32F10x_StdPeriph_Driver/src/stm32f10x_tim.c ****   * @brief  Enables or disables the TIMx peripheral Preload register on CCR1.
1502:../Libraries/STM32F10x_StdPeriph_Driver/src/stm32f10x_tim.c ****   * @param  TIMx: where x can be  1 to 17 except 6 and 7 to select the TIM peripheral.
1503:../Libraries/STM32F10x_StdPeriph_Driver/src/stm32f10x_tim.c ****   * @param  TIM_OCPreload: new state of the TIMx peripheral Preload register
1504:../Libraries/STM32F10x_StdPeriph_Driver/src/stm32f10x_tim.c ****   *   This parameter can be one of the following values:
1505:../Libraries/STM32F10x_StdPeriph_Driver/src/stm32f10x_tim.c ****   *     @arg TIM_OCPreload_Enable
1506:../Libraries/STM32F10x_StdPeriph_Driver/src/stm32f10x_tim.c ****   *     @arg TIM_OCPreload_Disable
1507:../Libraries/STM32F10x_StdPeriph_Driver/src/stm32f10x_tim.c ****   * @retval None
1508:../Libraries/STM32F10x_StdPeriph_Driver/src/stm32f10x_tim.c ****   */
1509:../Libraries/STM32F10x_StdPeriph_Driver/src/stm32f10x_tim.c **** void TIM_OC1PreloadConfig(TIM_TypeDef* TIMx, uint16_t TIM_OCPreload)
1510:../Libraries/STM32F10x_StdPeriph_Driver/src/stm32f10x_tim.c **** {
 23534              		.loc 1 1510 0
 23535              		.cfi_startproc
 23536              		@ args = 0, pretend = 0, frame = 16
 23537              		@ frame_needed = 1, uses_anonymous_args = 0
 23538              		@ link register save eliminated.
 23539 0000 80B4     		push	{r7}
 23540              	.LCFI111:
 23541              		.cfi_def_cfa_offset 4
 23542 0002 85B0     		sub	sp, sp, #20
 23543              	.LCFI112:
 23544              		.cfi_def_cfa_offset 24
 23545 0004 00AF     		add	r7, sp, #0
 23546              		.cfi_offset 7, -4
 23547              	.LCFI113:
 23548              		.cfi_def_cfa_register 7
 23549 0006 7860     		str	r0, [r7, #4]
 23550 0008 0B46     		mov	r3, r1
 23551 000a 7B80     		strh	r3, [r7, #2]	@ movhi
1511:../Libraries/STM32F10x_StdPeriph_Driver/src/stm32f10x_tim.c ****   uint16_t tmpccmr1 = 0;
 23552              		.loc 1 1511 0
 23553 000c 4FF00003 		mov	r3, #0
 23554 0010 FB81     		strh	r3, [r7, #14]	@ movhi
1512:../Libraries/STM32F10x_StdPeriph_Driver/src/stm32f10x_tim.c ****   /* Check the parameters */
1513:../Libraries/STM32F10x_StdPeriph_Driver/src/stm32f10x_tim.c ****   assert_param(IS_TIM_LIST8_PERIPH(TIMx));
1514:../Libraries/STM32F10x_StdPeriph_Driver/src/stm32f10x_tim.c ****   assert_param(IS_TIM_OCPRELOAD_STATE(TIM_OCPreload));
1515:../Libraries/STM32F10x_StdPeriph_Driver/src/stm32f10x_tim.c ****   tmpccmr1 = TIMx->CCMR1;
 23555              		.loc 1 1515 0
 23556 0012 7B68     		ldr	r3, [r7, #4]
 23557 0014 1B8B     		ldrh	r3, [r3, #24]	@ movhi
 23558 0016 FB81     		strh	r3, [r7, #14]	@ movhi
1516:../Libraries/STM32F10x_StdPeriph_Driver/src/stm32f10x_tim.c ****   /* Reset the OC1PE Bit */
1517:../Libraries/STM32F10x_StdPeriph_Driver/src/stm32f10x_tim.c ****   tmpccmr1 &= (uint16_t)~((uint16_t)TIM_CCMR1_OC1PE);
 23559              		.loc 1 1517 0
 23560 0018 FB89     		ldrh	r3, [r7, #14]	@ movhi
 23561 001a 23F00803 		bic	r3, r3, #8
 23562 001e FB81     		strh	r3, [r7, #14]	@ movhi
1518:../Libraries/STM32F10x_StdPeriph_Driver/src/stm32f10x_tim.c ****   /* Enable or Disable the Output Compare Preload feature */
1519:../Libraries/STM32F10x_StdPeriph_Driver/src/stm32f10x_tim.c ****   tmpccmr1 |= TIM_OCPreload;
 23563              		.loc 1 1519 0
 23564 0020 FA89     		ldrh	r2, [r7, #14]	@ movhi
 23565 0022 7B88     		ldrh	r3, [r7, #2]	@ movhi
 23566 0024 42EA0303 		orr	r3, r2, r3
 23567 0028 FB81     		strh	r3, [r7, #14]	@ movhi
1520:../Libraries/STM32F10x_StdPeriph_Driver/src/stm32f10x_tim.c ****   /* Write to TIMx CCMR1 register */
1521:../Libraries/STM32F10x_StdPeriph_Driver/src/stm32f10x_tim.c ****   TIMx->CCMR1 = tmpccmr1;
 23568              		.loc 1 1521 0
 23569 002a 7B68     		ldr	r3, [r7, #4]
 23570 002c FA89     		ldrh	r2, [r7, #14]	@ movhi
 23571 002e 1A83     		strh	r2, [r3, #24]	@ movhi
1522:../Libraries/STM32F10x_StdPeriph_Driver/src/stm32f10x_tim.c **** }
 23572              		.loc 1 1522 0
 23573 0030 07F11407 		add	r7, r7, #20
 23574 0034 BD46     		mov	sp, r7
 23575 0036 80BC     		pop	{r7}
 23576 0038 7047     		bx	lr
 23577              		.cfi_endproc
 23578              	.LFE66:
 23580 003a 00BF     		.section	.text.TIM_OC2PreloadConfig,"ax",%progbits
 23581              		.align	2
 23582              		.global	TIM_OC2PreloadConfig
 23583              		.thumb
 23584              		.thumb_func
 23586              	TIM_OC2PreloadConfig:
 23587              	.LFB67:
1523:../Libraries/STM32F10x_StdPeriph_Driver/src/stm32f10x_tim.c **** 
1524:../Libraries/STM32F10x_StdPeriph_Driver/src/stm32f10x_tim.c **** /**
1525:../Libraries/STM32F10x_StdPeriph_Driver/src/stm32f10x_tim.c ****   * @brief  Enables or disables the TIMx peripheral Preload register on CCR2.
1526:../Libraries/STM32F10x_StdPeriph_Driver/src/stm32f10x_tim.c ****   * @param  TIMx: where x can be  1, 2, 3, 4, 5, 8, 9, 12 or 15 to select 
1527:../Libraries/STM32F10x_StdPeriph_Driver/src/stm32f10x_tim.c ****   *         the TIM peripheral.
1528:../Libraries/STM32F10x_StdPeriph_Driver/src/stm32f10x_tim.c ****   * @param  TIM_OCPreload: new state of the TIMx peripheral Preload register
1529:../Libraries/STM32F10x_StdPeriph_Driver/src/stm32f10x_tim.c ****   *   This parameter can be one of the following values:
1530:../Libraries/STM32F10x_StdPeriph_Driver/src/stm32f10x_tim.c ****   *     @arg TIM_OCPreload_Enable
1531:../Libraries/STM32F10x_StdPeriph_Driver/src/stm32f10x_tim.c ****   *     @arg TIM_OCPreload_Disable
1532:../Libraries/STM32F10x_StdPeriph_Driver/src/stm32f10x_tim.c ****   * @retval None
1533:../Libraries/STM32F10x_StdPeriph_Driver/src/stm32f10x_tim.c ****   */
1534:../Libraries/STM32F10x_StdPeriph_Driver/src/stm32f10x_tim.c **** void TIM_OC2PreloadConfig(TIM_TypeDef* TIMx, uint16_t TIM_OCPreload)
1535:../Libraries/STM32F10x_StdPeriph_Driver/src/stm32f10x_tim.c **** {
 23588              		.loc 1 1535 0
 23589              		.cfi_startproc
 23590              		@ args = 0, pretend = 0, frame = 16
 23591              		@ frame_needed = 1, uses_anonymous_args = 0
 23592              		@ link register save eliminated.
 23593 0000 80B4     		push	{r7}
 23594              	.LCFI114:
 23595              		.cfi_def_cfa_offset 4
 23596 0002 85B0     		sub	sp, sp, #20
 23597              	.LCFI115:
 23598              		.cfi_def_cfa_offset 24
 23599 0004 00AF     		add	r7, sp, #0
 23600              		.cfi_offset 7, -4
 23601              	.LCFI116:
 23602              		.cfi_def_cfa_register 7
 23603 0006 7860     		str	r0, [r7, #4]
 23604 0008 0B46     		mov	r3, r1
 23605 000a 7B80     		strh	r3, [r7, #2]	@ movhi
1536:../Libraries/STM32F10x_StdPeriph_Driver/src/stm32f10x_tim.c ****   uint16_t tmpccmr1 = 0;
 23606              		.loc 1 1536 0
 23607 000c 4FF00003 		mov	r3, #0
 23608 0010 FB81     		strh	r3, [r7, #14]	@ movhi
1537:../Libraries/STM32F10x_StdPeriph_Driver/src/stm32f10x_tim.c ****   /* Check the parameters */
1538:../Libraries/STM32F10x_StdPeriph_Driver/src/stm32f10x_tim.c ****   assert_param(IS_TIM_LIST6_PERIPH(TIMx));
1539:../Libraries/STM32F10x_StdPeriph_Driver/src/stm32f10x_tim.c ****   assert_param(IS_TIM_OCPRELOAD_STATE(TIM_OCPreload));
1540:../Libraries/STM32F10x_StdPeriph_Driver/src/stm32f10x_tim.c ****   tmpccmr1 = TIMx->CCMR1;
 23609              		.loc 1 1540 0
 23610 0012 7B68     		ldr	r3, [r7, #4]
 23611 0014 1B8B     		ldrh	r3, [r3, #24]	@ movhi
 23612 0016 FB81     		strh	r3, [r7, #14]	@ movhi
1541:../Libraries/STM32F10x_StdPeriph_Driver/src/stm32f10x_tim.c ****   /* Reset the OC2PE Bit */
1542:../Libraries/STM32F10x_StdPeriph_Driver/src/stm32f10x_tim.c ****   tmpccmr1 &= (uint16_t)~((uint16_t)TIM_CCMR1_OC2PE);
 23613              		.loc 1 1542 0
 23614 0018 FB89     		ldrh	r3, [r7, #14]	@ movhi
 23615 001a 23F40063 		bic	r3, r3, #2048
 23616 001e FB81     		strh	r3, [r7, #14]	@ movhi
1543:../Libraries/STM32F10x_StdPeriph_Driver/src/stm32f10x_tim.c ****   /* Enable or Disable the Output Compare Preload feature */
1544:../Libraries/STM32F10x_StdPeriph_Driver/src/stm32f10x_tim.c ****   tmpccmr1 |= (uint16_t)(TIM_OCPreload << 8);
 23617              		.loc 1 1544 0
 23618 0020 7B88     		ldrh	r3, [r7, #2]	@ movhi
 23619 0022 4FEA0323 		lsl	r3, r3, #8
 23620 0026 9AB2     		uxth	r2, r3
 23621 0028 FB89     		ldrh	r3, [r7, #14]	@ movhi
 23622 002a 42EA0303 		orr	r3, r2, r3
 23623 002e FB81     		strh	r3, [r7, #14]	@ movhi
1545:../Libraries/STM32F10x_StdPeriph_Driver/src/stm32f10x_tim.c ****   /* Write to TIMx CCMR1 register */
1546:../Libraries/STM32F10x_StdPeriph_Driver/src/stm32f10x_tim.c ****   TIMx->CCMR1 = tmpccmr1;
 23624              		.loc 1 1546 0
 23625 0030 7B68     		ldr	r3, [r7, #4]
 23626 0032 FA89     		ldrh	r2, [r7, #14]	@ movhi
 23627 0034 1A83     		strh	r2, [r3, #24]	@ movhi
1547:../Libraries/STM32F10x_StdPeriph_Driver/src/stm32f10x_tim.c **** }
 23628              		.loc 1 1547 0
 23629 0036 07F11407 		add	r7, r7, #20
 23630 003a BD46     		mov	sp, r7
 23631 003c 80BC     		pop	{r7}
 23632 003e 7047     		bx	lr
 23633              		.cfi_endproc
 23634              	.LFE67:
 23636              		.section	.text.TIM_OC3PreloadConfig,"ax",%progbits
 23637              		.align	2
 23638              		.global	TIM_OC3PreloadConfig
 23639              		.thumb
 23640              		.thumb_func
 23642              	TIM_OC3PreloadConfig:
 23643              	.LFB68:
1548:../Libraries/STM32F10x_StdPeriph_Driver/src/stm32f10x_tim.c **** 
1549:../Libraries/STM32F10x_StdPeriph_Driver/src/stm32f10x_tim.c **** /**
1550:../Libraries/STM32F10x_StdPeriph_Driver/src/stm32f10x_tim.c ****   * @brief  Enables or disables the TIMx peripheral Preload register on CCR3.
1551:../Libraries/STM32F10x_StdPeriph_Driver/src/stm32f10x_tim.c ****   * @param  TIMx: where x can be  1, 2, 3, 4, 5 or 8 to select the TIM peripheral.
1552:../Libraries/STM32F10x_StdPeriph_Driver/src/stm32f10x_tim.c ****   * @param  TIM_OCPreload: new state of the TIMx peripheral Preload register
1553:../Libraries/STM32F10x_StdPeriph_Driver/src/stm32f10x_tim.c ****   *   This parameter can be one of the following values:
1554:../Libraries/STM32F10x_StdPeriph_Driver/src/stm32f10x_tim.c ****   *     @arg TIM_OCPreload_Enable
1555:../Libraries/STM32F10x_StdPeriph_Driver/src/stm32f10x_tim.c ****   *     @arg TIM_OCPreload_Disable
1556:../Libraries/STM32F10x_StdPeriph_Driver/src/stm32f10x_tim.c ****   * @retval None
1557:../Libraries/STM32F10x_StdPeriph_Driver/src/stm32f10x_tim.c ****   */
1558:../Libraries/STM32F10x_StdPeriph_Driver/src/stm32f10x_tim.c **** void TIM_OC3PreloadConfig(TIM_TypeDef* TIMx, uint16_t TIM_OCPreload)
1559:../Libraries/STM32F10x_StdPeriph_Driver/src/stm32f10x_tim.c **** {
 23644              		.loc 1 1559 0
 23645              		.cfi_startproc
 23646              		@ args = 0, pretend = 0, frame = 16
 23647              		@ frame_needed = 1, uses_anonymous_args = 0
 23648              		@ link register save eliminated.
 23649 0000 80B4     		push	{r7}
 23650              	.LCFI117:
 23651              		.cfi_def_cfa_offset 4
 23652 0002 85B0     		sub	sp, sp, #20
 23653              	.LCFI118:
 23654              		.cfi_def_cfa_offset 24
 23655 0004 00AF     		add	r7, sp, #0
 23656              		.cfi_offset 7, -4
 23657              	.LCFI119:
 23658              		.cfi_def_cfa_register 7
 23659 0006 7860     		str	r0, [r7, #4]
 23660 0008 0B46     		mov	r3, r1
 23661 000a 7B80     		strh	r3, [r7, #2]	@ movhi
1560:../Libraries/STM32F10x_StdPeriph_Driver/src/stm32f10x_tim.c ****   uint16_t tmpccmr2 = 0;
 23662              		.loc 1 1560 0
 23663 000c 4FF00003 		mov	r3, #0
 23664 0010 FB81     		strh	r3, [r7, #14]	@ movhi
1561:../Libraries/STM32F10x_StdPeriph_Driver/src/stm32f10x_tim.c ****   /* Check the parameters */
1562:../Libraries/STM32F10x_StdPeriph_Driver/src/stm32f10x_tim.c ****   assert_param(IS_TIM_LIST3_PERIPH(TIMx));
1563:../Libraries/STM32F10x_StdPeriph_Driver/src/stm32f10x_tim.c ****   assert_param(IS_TIM_OCPRELOAD_STATE(TIM_OCPreload));
1564:../Libraries/STM32F10x_StdPeriph_Driver/src/stm32f10x_tim.c ****   tmpccmr2 = TIMx->CCMR2;
 23665              		.loc 1 1564 0
 23666 0012 7B68     		ldr	r3, [r7, #4]
 23667 0014 9B8B     		ldrh	r3, [r3, #28]	@ movhi
 23668 0016 FB81     		strh	r3, [r7, #14]	@ movhi
1565:../Libraries/STM32F10x_StdPeriph_Driver/src/stm32f10x_tim.c ****   /* Reset the OC3PE Bit */
1566:../Libraries/STM32F10x_StdPeriph_Driver/src/stm32f10x_tim.c ****   tmpccmr2 &= (uint16_t)~((uint16_t)TIM_CCMR2_OC3PE);
 23669              		.loc 1 1566 0
 23670 0018 FB89     		ldrh	r3, [r7, #14]	@ movhi
 23671 001a 23F00803 		bic	r3, r3, #8
 23672 001e FB81     		strh	r3, [r7, #14]	@ movhi
1567:../Libraries/STM32F10x_StdPeriph_Driver/src/stm32f10x_tim.c ****   /* Enable or Disable the Output Compare Preload feature */
1568:../Libraries/STM32F10x_StdPeriph_Driver/src/stm32f10x_tim.c ****   tmpccmr2 |= TIM_OCPreload;
 23673              		.loc 1 1568 0
 23674 0020 FA89     		ldrh	r2, [r7, #14]	@ movhi
 23675 0022 7B88     		ldrh	r3, [r7, #2]	@ movhi
 23676 0024 42EA0303 		orr	r3, r2, r3
 23677 0028 FB81     		strh	r3, [r7, #14]	@ movhi
1569:../Libraries/STM32F10x_StdPeriph_Driver/src/stm32f10x_tim.c ****   /* Write to TIMx CCMR2 register */
1570:../Libraries/STM32F10x_StdPeriph_Driver/src/stm32f10x_tim.c ****   TIMx->CCMR2 = tmpccmr2;
 23678              		.loc 1 1570 0
 23679 002a 7B68     		ldr	r3, [r7, #4]
 23680 002c FA89     		ldrh	r2, [r7, #14]	@ movhi
 23681 002e 9A83     		strh	r2, [r3, #28]	@ movhi
1571:../Libraries/STM32F10x_StdPeriph_Driver/src/stm32f10x_tim.c **** }
 23682              		.loc 1 1571 0
 23683 0030 07F11407 		add	r7, r7, #20
 23684 0034 BD46     		mov	sp, r7
 23685 0036 80BC     		pop	{r7}
 23686 0038 7047     		bx	lr
 23687              		.cfi_endproc
 23688              	.LFE68:
 23690 003a 00BF     		.section	.text.TIM_OC4PreloadConfig,"ax",%progbits
 23691              		.align	2
 23692              		.global	TIM_OC4PreloadConfig
 23693              		.thumb
 23694              		.thumb_func
 23696              	TIM_OC4PreloadConfig:
 23697              	.LFB69:
1572:../Libraries/STM32F10x_StdPeriph_Driver/src/stm32f10x_tim.c **** 
1573:../Libraries/STM32F10x_StdPeriph_Driver/src/stm32f10x_tim.c **** /**
1574:../Libraries/STM32F10x_StdPeriph_Driver/src/stm32f10x_tim.c ****   * @brief  Enables or disables the TIMx peripheral Preload register on CCR4.
1575:../Libraries/STM32F10x_StdPeriph_Driver/src/stm32f10x_tim.c ****   * @param  TIMx: where x can be  1, 2, 3, 4, 5 or 8 to select the TIM peripheral.
1576:../Libraries/STM32F10x_StdPeriph_Driver/src/stm32f10x_tim.c ****   * @param  TIM_OCPreload: new state of the TIMx peripheral Preload register
1577:../Libraries/STM32F10x_StdPeriph_Driver/src/stm32f10x_tim.c ****   *   This parameter can be one of the following values:
1578:../Libraries/STM32F10x_StdPeriph_Driver/src/stm32f10x_tim.c ****   *     @arg TIM_OCPreload_Enable
1579:../Libraries/STM32F10x_StdPeriph_Driver/src/stm32f10x_tim.c ****   *     @arg TIM_OCPreload_Disable
1580:../Libraries/STM32F10x_StdPeriph_Driver/src/stm32f10x_tim.c ****   * @retval None
1581:../Libraries/STM32F10x_StdPeriph_Driver/src/stm32f10x_tim.c ****   */
1582:../Libraries/STM32F10x_StdPeriph_Driver/src/stm32f10x_tim.c **** void TIM_OC4PreloadConfig(TIM_TypeDef* TIMx, uint16_t TIM_OCPreload)
1583:../Libraries/STM32F10x_StdPeriph_Driver/src/stm32f10x_tim.c **** {
 23698              		.loc 1 1583 0
 23699              		.cfi_startproc
 23700              		@ args = 0, pretend = 0, frame = 16
 23701              		@ frame_needed = 1, uses_anonymous_args = 0
 23702              		@ link register save eliminated.
 23703 0000 80B4     		push	{r7}
 23704              	.LCFI120:
 23705              		.cfi_def_cfa_offset 4
 23706 0002 85B0     		sub	sp, sp, #20
 23707              	.LCFI121:
 23708              		.cfi_def_cfa_offset 24
 23709 0004 00AF     		add	r7, sp, #0
 23710              		.cfi_offset 7, -4
 23711              	.LCFI122:
 23712              		.cfi_def_cfa_register 7
 23713 0006 7860     		str	r0, [r7, #4]
 23714 0008 0B46     		mov	r3, r1
 23715 000a 7B80     		strh	r3, [r7, #2]	@ movhi
1584:../Libraries/STM32F10x_StdPeriph_Driver/src/stm32f10x_tim.c ****   uint16_t tmpccmr2 = 0;
 23716              		.loc 1 1584 0
 23717 000c 4FF00003 		mov	r3, #0
 23718 0010 FB81     		strh	r3, [r7, #14]	@ movhi
1585:../Libraries/STM32F10x_StdPeriph_Driver/src/stm32f10x_tim.c ****   /* Check the parameters */
1586:../Libraries/STM32F10x_StdPeriph_Driver/src/stm32f10x_tim.c ****   assert_param(IS_TIM_LIST3_PERIPH(TIMx));
1587:../Libraries/STM32F10x_StdPeriph_Driver/src/stm32f10x_tim.c ****   assert_param(IS_TIM_OCPRELOAD_STATE(TIM_OCPreload));
1588:../Libraries/STM32F10x_StdPeriph_Driver/src/stm32f10x_tim.c ****   tmpccmr2 = TIMx->CCMR2;
 23719              		.loc 1 1588 0
 23720 0012 7B68     		ldr	r3, [r7, #4]
 23721 0014 9B8B     		ldrh	r3, [r3, #28]	@ movhi
 23722 0016 FB81     		strh	r3, [r7, #14]	@ movhi
1589:../Libraries/STM32F10x_StdPeriph_Driver/src/stm32f10x_tim.c ****   /* Reset the OC4PE Bit */
1590:../Libraries/STM32F10x_StdPeriph_Driver/src/stm32f10x_tim.c ****   tmpccmr2 &= (uint16_t)~((uint16_t)TIM_CCMR2_OC4PE);
 23723              		.loc 1 1590 0
 23724 0018 FB89     		ldrh	r3, [r7, #14]	@ movhi
 23725 001a 23F40063 		bic	r3, r3, #2048
 23726 001e FB81     		strh	r3, [r7, #14]	@ movhi
1591:../Libraries/STM32F10x_StdPeriph_Driver/src/stm32f10x_tim.c ****   /* Enable or Disable the Output Compare Preload feature */
1592:../Libraries/STM32F10x_StdPeriph_Driver/src/stm32f10x_tim.c ****   tmpccmr2 |= (uint16_t)(TIM_OCPreload << 8);
 23727              		.loc 1 1592 0
 23728 0020 7B88     		ldrh	r3, [r7, #2]	@ movhi
 23729 0022 4FEA0323 		lsl	r3, r3, #8
 23730 0026 9AB2     		uxth	r2, r3
 23731 0028 FB89     		ldrh	r3, [r7, #14]	@ movhi
 23732 002a 42EA0303 		orr	r3, r2, r3
 23733 002e FB81     		strh	r3, [r7, #14]	@ movhi
1593:../Libraries/STM32F10x_StdPeriph_Driver/src/stm32f10x_tim.c ****   /* Write to TIMx CCMR2 register */
1594:../Libraries/STM32F10x_StdPeriph_Driver/src/stm32f10x_tim.c ****   TIMx->CCMR2 = tmpccmr2;
 23734              		.loc 1 1594 0
 23735 0030 7B68     		ldr	r3, [r7, #4]
 23736 0032 FA89     		ldrh	r2, [r7, #14]	@ movhi
 23737 0034 9A83     		strh	r2, [r3, #28]	@ movhi
1595:../Libraries/STM32F10x_StdPeriph_Driver/src/stm32f10x_tim.c **** }
 23738              		.loc 1 1595 0
 23739 0036 07F11407 		add	r7, r7, #20
 23740 003a BD46     		mov	sp, r7
 23741 003c 80BC     		pop	{r7}
 23742 003e 7047     		bx	lr
 23743              		.cfi_endproc
 23744              	.LFE69:
 23746              		.section	.text.TIM_OC1FastConfig,"ax",%progbits
 23747              		.align	2
 23748              		.global	TIM_OC1FastConfig
 23749              		.thumb
 23750              		.thumb_func
 23752              	TIM_OC1FastConfig:
 23753              	.LFB70:
1596:../Libraries/STM32F10x_StdPeriph_Driver/src/stm32f10x_tim.c **** 
1597:../Libraries/STM32F10x_StdPeriph_Driver/src/stm32f10x_tim.c **** /**
1598:../Libraries/STM32F10x_StdPeriph_Driver/src/stm32f10x_tim.c ****   * @brief  Configures the TIMx Output Compare 1 Fast feature.
1599:../Libraries/STM32F10x_StdPeriph_Driver/src/stm32f10x_tim.c ****   * @param  TIMx: where x can be  1 to 17 except 6 and 7 to select the TIM peripheral.
1600:../Libraries/STM32F10x_StdPeriph_Driver/src/stm32f10x_tim.c ****   * @param  TIM_OCFast: new state of the Output Compare Fast Enable Bit.
1601:../Libraries/STM32F10x_StdPeriph_Driver/src/stm32f10x_tim.c ****   *   This parameter can be one of the following values:
1602:../Libraries/STM32F10x_StdPeriph_Driver/src/stm32f10x_tim.c ****   *     @arg TIM_OCFast_Enable: TIM output compare fast enable
1603:../Libraries/STM32F10x_StdPeriph_Driver/src/stm32f10x_tim.c ****   *     @arg TIM_OCFast_Disable: TIM output compare fast disable
1604:../Libraries/STM32F10x_StdPeriph_Driver/src/stm32f10x_tim.c ****   * @retval None
1605:../Libraries/STM32F10x_StdPeriph_Driver/src/stm32f10x_tim.c ****   */
1606:../Libraries/STM32F10x_StdPeriph_Driver/src/stm32f10x_tim.c **** void TIM_OC1FastConfig(TIM_TypeDef* TIMx, uint16_t TIM_OCFast)
1607:../Libraries/STM32F10x_StdPeriph_Driver/src/stm32f10x_tim.c **** {
 23754              		.loc 1 1607 0
 23755              		.cfi_startproc
 23756              		@ args = 0, pretend = 0, frame = 16
 23757              		@ frame_needed = 1, uses_anonymous_args = 0
 23758              		@ link register save eliminated.
 23759 0000 80B4     		push	{r7}
 23760              	.LCFI123:
 23761              		.cfi_def_cfa_offset 4
 23762 0002 85B0     		sub	sp, sp, #20
 23763              	.LCFI124:
 23764              		.cfi_def_cfa_offset 24
 23765 0004 00AF     		add	r7, sp, #0
 23766              		.cfi_offset 7, -4
 23767              	.LCFI125:
 23768              		.cfi_def_cfa_register 7
 23769 0006 7860     		str	r0, [r7, #4]
 23770 0008 0B46     		mov	r3, r1
 23771 000a 7B80     		strh	r3, [r7, #2]	@ movhi
1608:../Libraries/STM32F10x_StdPeriph_Driver/src/stm32f10x_tim.c ****   uint16_t tmpccmr1 = 0;
 23772              		.loc 1 1608 0
 23773 000c 4FF00003 		mov	r3, #0
 23774 0010 FB81     		strh	r3, [r7, #14]	@ movhi
1609:../Libraries/STM32F10x_StdPeriph_Driver/src/stm32f10x_tim.c ****   /* Check the parameters */
1610:../Libraries/STM32F10x_StdPeriph_Driver/src/stm32f10x_tim.c ****   assert_param(IS_TIM_LIST8_PERIPH(TIMx));
1611:../Libraries/STM32F10x_StdPeriph_Driver/src/stm32f10x_tim.c ****   assert_param(IS_TIM_OCFAST_STATE(TIM_OCFast));
1612:../Libraries/STM32F10x_StdPeriph_Driver/src/stm32f10x_tim.c ****   /* Get the TIMx CCMR1 register value */
1613:../Libraries/STM32F10x_StdPeriph_Driver/src/stm32f10x_tim.c ****   tmpccmr1 = TIMx->CCMR1;
 23775              		.loc 1 1613 0
 23776 0012 7B68     		ldr	r3, [r7, #4]
 23777 0014 1B8B     		ldrh	r3, [r3, #24]	@ movhi
 23778 0016 FB81     		strh	r3, [r7, #14]	@ movhi
1614:../Libraries/STM32F10x_StdPeriph_Driver/src/stm32f10x_tim.c ****   /* Reset the OC1FE Bit */
1615:../Libraries/STM32F10x_StdPeriph_Driver/src/stm32f10x_tim.c ****   tmpccmr1 &= (uint16_t)~((uint16_t)TIM_CCMR1_OC1FE);
 23779              		.loc 1 1615 0
 23780 0018 FB89     		ldrh	r3, [r7, #14]	@ movhi
 23781 001a 23F00403 		bic	r3, r3, #4
 23782 001e FB81     		strh	r3, [r7, #14]	@ movhi
1616:../Libraries/STM32F10x_StdPeriph_Driver/src/stm32f10x_tim.c ****   /* Enable or Disable the Output Compare Fast Bit */
1617:../Libraries/STM32F10x_StdPeriph_Driver/src/stm32f10x_tim.c ****   tmpccmr1 |= TIM_OCFast;
 23783              		.loc 1 1617 0
 23784 0020 FA89     		ldrh	r2, [r7, #14]	@ movhi
 23785 0022 7B88     		ldrh	r3, [r7, #2]	@ movhi
 23786 0024 42EA0303 		orr	r3, r2, r3
 23787 0028 FB81     		strh	r3, [r7, #14]	@ movhi
1618:../Libraries/STM32F10x_StdPeriph_Driver/src/stm32f10x_tim.c ****   /* Write to TIMx CCMR1 */
1619:../Libraries/STM32F10x_StdPeriph_Driver/src/stm32f10x_tim.c ****   TIMx->CCMR1 = tmpccmr1;
 23788              		.loc 1 1619 0
 23789 002a 7B68     		ldr	r3, [r7, #4]
 23790 002c FA89     		ldrh	r2, [r7, #14]	@ movhi
 23791 002e 1A83     		strh	r2, [r3, #24]	@ movhi
1620:../Libraries/STM32F10x_StdPeriph_Driver/src/stm32f10x_tim.c **** }
 23792              		.loc 1 1620 0
 23793 0030 07F11407 		add	r7, r7, #20
 23794 0034 BD46     		mov	sp, r7
 23795 0036 80BC     		pop	{r7}
 23796 0038 7047     		bx	lr
 23797              		.cfi_endproc
 23798              	.LFE70:
 23800 003a 00BF     		.section	.text.TIM_OC2FastConfig,"ax",%progbits
 23801              		.align	2
 23802              		.global	TIM_OC2FastConfig
 23803              		.thumb
 23804              		.thumb_func
 23806              	TIM_OC2FastConfig:
 23807              	.LFB71:
1621:../Libraries/STM32F10x_StdPeriph_Driver/src/stm32f10x_tim.c **** 
1622:../Libraries/STM32F10x_StdPeriph_Driver/src/stm32f10x_tim.c **** /**
1623:../Libraries/STM32F10x_StdPeriph_Driver/src/stm32f10x_tim.c ****   * @brief  Configures the TIMx Output Compare 2 Fast feature.
1624:../Libraries/STM32F10x_StdPeriph_Driver/src/stm32f10x_tim.c ****   * @param  TIMx: where x can be  1, 2, 3, 4, 5, 8, 9, 12 or 15 to select 
1625:../Libraries/STM32F10x_StdPeriph_Driver/src/stm32f10x_tim.c ****   *         the TIM peripheral.
1626:../Libraries/STM32F10x_StdPeriph_Driver/src/stm32f10x_tim.c ****   * @param  TIM_OCFast: new state of the Output Compare Fast Enable Bit.
1627:../Libraries/STM32F10x_StdPeriph_Driver/src/stm32f10x_tim.c ****   *   This parameter can be one of the following values:
1628:../Libraries/STM32F10x_StdPeriph_Driver/src/stm32f10x_tim.c ****   *     @arg TIM_OCFast_Enable: TIM output compare fast enable
1629:../Libraries/STM32F10x_StdPeriph_Driver/src/stm32f10x_tim.c ****   *     @arg TIM_OCFast_Disable: TIM output compare fast disable
1630:../Libraries/STM32F10x_StdPeriph_Driver/src/stm32f10x_tim.c ****   * @retval None
1631:../Libraries/STM32F10x_StdPeriph_Driver/src/stm32f10x_tim.c ****   */
1632:../Libraries/STM32F10x_StdPeriph_Driver/src/stm32f10x_tim.c **** void TIM_OC2FastConfig(TIM_TypeDef* TIMx, uint16_t TIM_OCFast)
1633:../Libraries/STM32F10x_StdPeriph_Driver/src/stm32f10x_tim.c **** {
 23808              		.loc 1 1633 0
 23809              		.cfi_startproc
 23810              		@ args = 0, pretend = 0, frame = 16
 23811              		@ frame_needed = 1, uses_anonymous_args = 0
 23812              		@ link register save eliminated.
 23813 0000 80B4     		push	{r7}
 23814              	.LCFI126:
 23815              		.cfi_def_cfa_offset 4
 23816 0002 85B0     		sub	sp, sp, #20
 23817              	.LCFI127:
 23818              		.cfi_def_cfa_offset 24
 23819 0004 00AF     		add	r7, sp, #0
 23820              		.cfi_offset 7, -4
 23821              	.LCFI128:
 23822              		.cfi_def_cfa_register 7
 23823 0006 7860     		str	r0, [r7, #4]
 23824 0008 0B46     		mov	r3, r1
 23825 000a 7B80     		strh	r3, [r7, #2]	@ movhi
1634:../Libraries/STM32F10x_StdPeriph_Driver/src/stm32f10x_tim.c ****   uint16_t tmpccmr1 = 0;
 23826              		.loc 1 1634 0
 23827 000c 4FF00003 		mov	r3, #0
 23828 0010 FB81     		strh	r3, [r7, #14]	@ movhi
1635:../Libraries/STM32F10x_StdPeriph_Driver/src/stm32f10x_tim.c ****   /* Check the parameters */
1636:../Libraries/STM32F10x_StdPeriph_Driver/src/stm32f10x_tim.c ****   assert_param(IS_TIM_LIST6_PERIPH(TIMx));
1637:../Libraries/STM32F10x_StdPeriph_Driver/src/stm32f10x_tim.c ****   assert_param(IS_TIM_OCFAST_STATE(TIM_OCFast));
1638:../Libraries/STM32F10x_StdPeriph_Driver/src/stm32f10x_tim.c ****   /* Get the TIMx CCMR1 register value */
1639:../Libraries/STM32F10x_StdPeriph_Driver/src/stm32f10x_tim.c ****   tmpccmr1 = TIMx->CCMR1;
 23829              		.loc 1 1639 0
 23830 0012 7B68     		ldr	r3, [r7, #4]
 23831 0014 1B8B     		ldrh	r3, [r3, #24]	@ movhi
 23832 0016 FB81     		strh	r3, [r7, #14]	@ movhi
1640:../Libraries/STM32F10x_StdPeriph_Driver/src/stm32f10x_tim.c ****   /* Reset the OC2FE Bit */
1641:../Libraries/STM32F10x_StdPeriph_Driver/src/stm32f10x_tim.c ****   tmpccmr1 &= (uint16_t)~((uint16_t)TIM_CCMR1_OC2FE);
 23833              		.loc 1 1641 0
 23834 0018 FB89     		ldrh	r3, [r7, #14]	@ movhi
 23835 001a 23F48063 		bic	r3, r3, #1024
 23836 001e FB81     		strh	r3, [r7, #14]	@ movhi
1642:../Libraries/STM32F10x_StdPeriph_Driver/src/stm32f10x_tim.c ****   /* Enable or Disable the Output Compare Fast Bit */
1643:../Libraries/STM32F10x_StdPeriph_Driver/src/stm32f10x_tim.c ****   tmpccmr1 |= (uint16_t)(TIM_OCFast << 8);
 23837              		.loc 1 1643 0
 23838 0020 7B88     		ldrh	r3, [r7, #2]	@ movhi
 23839 0022 4FEA0323 		lsl	r3, r3, #8
 23840 0026 9AB2     		uxth	r2, r3
 23841 0028 FB89     		ldrh	r3, [r7, #14]	@ movhi
 23842 002a 42EA0303 		orr	r3, r2, r3
 23843 002e FB81     		strh	r3, [r7, #14]	@ movhi
1644:../Libraries/STM32F10x_StdPeriph_Driver/src/stm32f10x_tim.c ****   /* Write to TIMx CCMR1 */
1645:../Libraries/STM32F10x_StdPeriph_Driver/src/stm32f10x_tim.c ****   TIMx->CCMR1 = tmpccmr1;
 23844              		.loc 1 1645 0
 23845 0030 7B68     		ldr	r3, [r7, #4]
 23846 0032 FA89     		ldrh	r2, [r7, #14]	@ movhi
 23847 0034 1A83     		strh	r2, [r3, #24]	@ movhi
1646:../Libraries/STM32F10x_StdPeriph_Driver/src/stm32f10x_tim.c **** }
 23848              		.loc 1 1646 0
 23849 0036 07F11407 		add	r7, r7, #20
 23850 003a BD46     		mov	sp, r7
 23851 003c 80BC     		pop	{r7}
 23852 003e 7047     		bx	lr
 23853              		.cfi_endproc
 23854              	.LFE71:
 23856              		.section	.text.TIM_OC3FastConfig,"ax",%progbits
 23857              		.align	2
 23858              		.global	TIM_OC3FastConfig
 23859              		.thumb
 23860              		.thumb_func
 23862              	TIM_OC3FastConfig:
 23863              	.LFB72:
1647:../Libraries/STM32F10x_StdPeriph_Driver/src/stm32f10x_tim.c **** 
1648:../Libraries/STM32F10x_StdPeriph_Driver/src/stm32f10x_tim.c **** /**
1649:../Libraries/STM32F10x_StdPeriph_Driver/src/stm32f10x_tim.c ****   * @brief  Configures the TIMx Output Compare 3 Fast feature.
1650:../Libraries/STM32F10x_StdPeriph_Driver/src/stm32f10x_tim.c ****   * @param  TIMx: where x can be  1, 2, 3, 4, 5 or 8 to select the TIM peripheral.
1651:../Libraries/STM32F10x_StdPeriph_Driver/src/stm32f10x_tim.c ****   * @param  TIM_OCFast: new state of the Output Compare Fast Enable Bit.
1652:../Libraries/STM32F10x_StdPeriph_Driver/src/stm32f10x_tim.c ****   *   This parameter can be one of the following values:
1653:../Libraries/STM32F10x_StdPeriph_Driver/src/stm32f10x_tim.c ****   *     @arg TIM_OCFast_Enable: TIM output compare fast enable
1654:../Libraries/STM32F10x_StdPeriph_Driver/src/stm32f10x_tim.c ****   *     @arg TIM_OCFast_Disable: TIM output compare fast disable
1655:../Libraries/STM32F10x_StdPeriph_Driver/src/stm32f10x_tim.c ****   * @retval None
1656:../Libraries/STM32F10x_StdPeriph_Driver/src/stm32f10x_tim.c ****   */
1657:../Libraries/STM32F10x_StdPeriph_Driver/src/stm32f10x_tim.c **** void TIM_OC3FastConfig(TIM_TypeDef* TIMx, uint16_t TIM_OCFast)
1658:../Libraries/STM32F10x_StdPeriph_Driver/src/stm32f10x_tim.c **** {
 23864              		.loc 1 1658 0
 23865              		.cfi_startproc
 23866              		@ args = 0, pretend = 0, frame = 16
 23867              		@ frame_needed = 1, uses_anonymous_args = 0
 23868              		@ link register save eliminated.
 23869 0000 80B4     		push	{r7}
 23870              	.LCFI129:
 23871              		.cfi_def_cfa_offset 4
 23872 0002 85B0     		sub	sp, sp, #20
 23873              	.LCFI130:
 23874              		.cfi_def_cfa_offset 24
 23875 0004 00AF     		add	r7, sp, #0
 23876              		.cfi_offset 7, -4
 23877              	.LCFI131:
 23878              		.cfi_def_cfa_register 7
 23879 0006 7860     		str	r0, [r7, #4]
 23880 0008 0B46     		mov	r3, r1
 23881 000a 7B80     		strh	r3, [r7, #2]	@ movhi
1659:../Libraries/STM32F10x_StdPeriph_Driver/src/stm32f10x_tim.c ****   uint16_t tmpccmr2 = 0;
 23882              		.loc 1 1659 0
 23883 000c 4FF00003 		mov	r3, #0
 23884 0010 FB81     		strh	r3, [r7, #14]	@ movhi
1660:../Libraries/STM32F10x_StdPeriph_Driver/src/stm32f10x_tim.c ****   /* Check the parameters */
1661:../Libraries/STM32F10x_StdPeriph_Driver/src/stm32f10x_tim.c ****   assert_param(IS_TIM_LIST3_PERIPH(TIMx));
1662:../Libraries/STM32F10x_StdPeriph_Driver/src/stm32f10x_tim.c ****   assert_param(IS_TIM_OCFAST_STATE(TIM_OCFast));
1663:../Libraries/STM32F10x_StdPeriph_Driver/src/stm32f10x_tim.c ****   /* Get the TIMx CCMR2 register value */
1664:../Libraries/STM32F10x_StdPeriph_Driver/src/stm32f10x_tim.c ****   tmpccmr2 = TIMx->CCMR2;
 23885              		.loc 1 1664 0
 23886 0012 7B68     		ldr	r3, [r7, #4]
 23887 0014 9B8B     		ldrh	r3, [r3, #28]	@ movhi
 23888 0016 FB81     		strh	r3, [r7, #14]	@ movhi
1665:../Libraries/STM32F10x_StdPeriph_Driver/src/stm32f10x_tim.c ****   /* Reset the OC3FE Bit */
1666:../Libraries/STM32F10x_StdPeriph_Driver/src/stm32f10x_tim.c ****   tmpccmr2 &= (uint16_t)~((uint16_t)TIM_CCMR2_OC3FE);
 23889              		.loc 1 1666 0
 23890 0018 FB89     		ldrh	r3, [r7, #14]	@ movhi
 23891 001a 23F00403 		bic	r3, r3, #4
 23892 001e FB81     		strh	r3, [r7, #14]	@ movhi
1667:../Libraries/STM32F10x_StdPeriph_Driver/src/stm32f10x_tim.c ****   /* Enable or Disable the Output Compare Fast Bit */
1668:../Libraries/STM32F10x_StdPeriph_Driver/src/stm32f10x_tim.c ****   tmpccmr2 |= TIM_OCFast;
 23893              		.loc 1 1668 0
 23894 0020 FA89     		ldrh	r2, [r7, #14]	@ movhi
 23895 0022 7B88     		ldrh	r3, [r7, #2]	@ movhi
 23896 0024 42EA0303 		orr	r3, r2, r3
 23897 0028 FB81     		strh	r3, [r7, #14]	@ movhi
1669:../Libraries/STM32F10x_StdPeriph_Driver/src/stm32f10x_tim.c ****   /* Write to TIMx CCMR2 */
1670:../Libraries/STM32F10x_StdPeriph_Driver/src/stm32f10x_tim.c ****   TIMx->CCMR2 = tmpccmr2;
 23898              		.loc 1 1670 0
 23899 002a 7B68     		ldr	r3, [r7, #4]
 23900 002c FA89     		ldrh	r2, [r7, #14]	@ movhi
 23901 002e 9A83     		strh	r2, [r3, #28]	@ movhi
1671:../Libraries/STM32F10x_StdPeriph_Driver/src/stm32f10x_tim.c **** }
 23902              		.loc 1 1671 0
 23903 0030 07F11407 		add	r7, r7, #20
 23904 0034 BD46     		mov	sp, r7
 23905 0036 80BC     		pop	{r7}
 23906 0038 7047     		bx	lr
 23907              		.cfi_endproc
 23908              	.LFE72:
 23910 003a 00BF     		.section	.text.TIM_OC4FastConfig,"ax",%progbits
 23911              		.align	2
 23912              		.global	TIM_OC4FastConfig
 23913              		.thumb
 23914              		.thumb_func
 23916              	TIM_OC4FastConfig:
 23917              	.LFB73:
1672:../Libraries/STM32F10x_StdPeriph_Driver/src/stm32f10x_tim.c **** 
1673:../Libraries/STM32F10x_StdPeriph_Driver/src/stm32f10x_tim.c **** /**
1674:../Libraries/STM32F10x_StdPeriph_Driver/src/stm32f10x_tim.c ****   * @brief  Configures the TIMx Output Compare 4 Fast feature.
1675:../Libraries/STM32F10x_StdPeriph_Driver/src/stm32f10x_tim.c ****   * @param  TIMx: where x can be  1, 2, 3, 4, 5 or 8 to select the TIM peripheral.
1676:../Libraries/STM32F10x_StdPeriph_Driver/src/stm32f10x_tim.c ****   * @param  TIM_OCFast: new state of the Output Compare Fast Enable Bit.
1677:../Libraries/STM32F10x_StdPeriph_Driver/src/stm32f10x_tim.c ****   *   This parameter can be one of the following values:
1678:../Libraries/STM32F10x_StdPeriph_Driver/src/stm32f10x_tim.c ****   *     @arg TIM_OCFast_Enable: TIM output compare fast enable
1679:../Libraries/STM32F10x_StdPeriph_Driver/src/stm32f10x_tim.c ****   *     @arg TIM_OCFast_Disable: TIM output compare fast disable
1680:../Libraries/STM32F10x_StdPeriph_Driver/src/stm32f10x_tim.c ****   * @retval None
1681:../Libraries/STM32F10x_StdPeriph_Driver/src/stm32f10x_tim.c ****   */
1682:../Libraries/STM32F10x_StdPeriph_Driver/src/stm32f10x_tim.c **** void TIM_OC4FastConfig(TIM_TypeDef* TIMx, uint16_t TIM_OCFast)
1683:../Libraries/STM32F10x_StdPeriph_Driver/src/stm32f10x_tim.c **** {
 23918              		.loc 1 1683 0
 23919              		.cfi_startproc
 23920              		@ args = 0, pretend = 0, frame = 16
 23921              		@ frame_needed = 1, uses_anonymous_args = 0
 23922              		@ link register save eliminated.
 23923 0000 80B4     		push	{r7}
 23924              	.LCFI132:
 23925              		.cfi_def_cfa_offset 4
 23926 0002 85B0     		sub	sp, sp, #20
 23927              	.LCFI133:
 23928              		.cfi_def_cfa_offset 24
 23929 0004 00AF     		add	r7, sp, #0
 23930              		.cfi_offset 7, -4
 23931              	.LCFI134:
 23932              		.cfi_def_cfa_register 7
 23933 0006 7860     		str	r0, [r7, #4]
 23934 0008 0B46     		mov	r3, r1
 23935 000a 7B80     		strh	r3, [r7, #2]	@ movhi
1684:../Libraries/STM32F10x_StdPeriph_Driver/src/stm32f10x_tim.c ****   uint16_t tmpccmr2 = 0;
 23936              		.loc 1 1684 0
 23937 000c 4FF00003 		mov	r3, #0
 23938 0010 FB81     		strh	r3, [r7, #14]	@ movhi
1685:../Libraries/STM32F10x_StdPeriph_Driver/src/stm32f10x_tim.c ****   /* Check the parameters */
1686:../Libraries/STM32F10x_StdPeriph_Driver/src/stm32f10x_tim.c ****   assert_param(IS_TIM_LIST3_PERIPH(TIMx));
1687:../Libraries/STM32F10x_StdPeriph_Driver/src/stm32f10x_tim.c ****   assert_param(IS_TIM_OCFAST_STATE(TIM_OCFast));
1688:../Libraries/STM32F10x_StdPeriph_Driver/src/stm32f10x_tim.c ****   /* Get the TIMx CCMR2 register value */
1689:../Libraries/STM32F10x_StdPeriph_Driver/src/stm32f10x_tim.c ****   tmpccmr2 = TIMx->CCMR2;
 23939              		.loc 1 1689 0
 23940 0012 7B68     		ldr	r3, [r7, #4]
 23941 0014 9B8B     		ldrh	r3, [r3, #28]	@ movhi
 23942 0016 FB81     		strh	r3, [r7, #14]	@ movhi
1690:../Libraries/STM32F10x_StdPeriph_Driver/src/stm32f10x_tim.c ****   /* Reset the OC4FE Bit */
1691:../Libraries/STM32F10x_StdPeriph_Driver/src/stm32f10x_tim.c ****   tmpccmr2 &= (uint16_t)~((uint16_t)TIM_CCMR2_OC4FE);
 23943              		.loc 1 1691 0
 23944 0018 FB89     		ldrh	r3, [r7, #14]	@ movhi
 23945 001a 23F48063 		bic	r3, r3, #1024
 23946 001e FB81     		strh	r3, [r7, #14]	@ movhi
1692:../Libraries/STM32F10x_StdPeriph_Driver/src/stm32f10x_tim.c ****   /* Enable or Disable the Output Compare Fast Bit */
1693:../Libraries/STM32F10x_StdPeriph_Driver/src/stm32f10x_tim.c ****   tmpccmr2 |= (uint16_t)(TIM_OCFast << 8);
 23947              		.loc 1 1693 0
 23948 0020 7B88     		ldrh	r3, [r7, #2]	@ movhi
 23949 0022 4FEA0323 		lsl	r3, r3, #8
 23950 0026 9AB2     		uxth	r2, r3
 23951 0028 FB89     		ldrh	r3, [r7, #14]	@ movhi
 23952 002a 42EA0303 		orr	r3, r2, r3
 23953 002e FB81     		strh	r3, [r7, #14]	@ movhi
1694:../Libraries/STM32F10x_StdPeriph_Driver/src/stm32f10x_tim.c ****   /* Write to TIMx CCMR2 */
1695:../Libraries/STM32F10x_StdPeriph_Driver/src/stm32f10x_tim.c ****   TIMx->CCMR2 = tmpccmr2;
 23954              		.loc 1 1695 0
 23955 0030 7B68     		ldr	r3, [r7, #4]
 23956 0032 FA89     		ldrh	r2, [r7, #14]	@ movhi
 23957 0034 9A83     		strh	r2, [r3, #28]	@ movhi
1696:../Libraries/STM32F10x_StdPeriph_Driver/src/stm32f10x_tim.c **** }
 23958              		.loc 1 1696 0
 23959 0036 07F11407 		add	r7, r7, #20
 23960 003a BD46     		mov	sp, r7
 23961 003c 80BC     		pop	{r7}
 23962 003e 7047     		bx	lr
 23963              		.cfi_endproc
 23964              	.LFE73:
 23966              		.section	.text.TIM_ClearOC1Ref,"ax",%progbits
 23967              		.align	2
 23968              		.global	TIM_ClearOC1Ref
 23969              		.thumb
 23970              		.thumb_func
 23972              	TIM_ClearOC1Ref:
 23973              	.LFB74:
1697:../Libraries/STM32F10x_StdPeriph_Driver/src/stm32f10x_tim.c **** 
1698:../Libraries/STM32F10x_StdPeriph_Driver/src/stm32f10x_tim.c **** /**
1699:../Libraries/STM32F10x_StdPeriph_Driver/src/stm32f10x_tim.c ****   * @brief  Clears or safeguards the OCREF1 signal on an external event
1700:../Libraries/STM32F10x_StdPeriph_Driver/src/stm32f10x_tim.c ****   * @param  TIMx: where x can be  1, 2, 3, 4, 5 or 8 to select the TIM peripheral.
1701:../Libraries/STM32F10x_StdPeriph_Driver/src/stm32f10x_tim.c ****   * @param  TIM_OCClear: new state of the Output Compare Clear Enable Bit.
1702:../Libraries/STM32F10x_StdPeriph_Driver/src/stm32f10x_tim.c ****   *   This parameter can be one of the following values:
1703:../Libraries/STM32F10x_StdPeriph_Driver/src/stm32f10x_tim.c ****   *     @arg TIM_OCClear_Enable: TIM Output clear enable
1704:../Libraries/STM32F10x_StdPeriph_Driver/src/stm32f10x_tim.c ****   *     @arg TIM_OCClear_Disable: TIM Output clear disable
1705:../Libraries/STM32F10x_StdPeriph_Driver/src/stm32f10x_tim.c ****   * @retval None
1706:../Libraries/STM32F10x_StdPeriph_Driver/src/stm32f10x_tim.c ****   */
1707:../Libraries/STM32F10x_StdPeriph_Driver/src/stm32f10x_tim.c **** void TIM_ClearOC1Ref(TIM_TypeDef* TIMx, uint16_t TIM_OCClear)
1708:../Libraries/STM32F10x_StdPeriph_Driver/src/stm32f10x_tim.c **** {
 23974              		.loc 1 1708 0
 23975              		.cfi_startproc
 23976              		@ args = 0, pretend = 0, frame = 16
 23977              		@ frame_needed = 1, uses_anonymous_args = 0
 23978              		@ link register save eliminated.
 23979 0000 80B4     		push	{r7}
 23980              	.LCFI135:
 23981              		.cfi_def_cfa_offset 4
 23982 0002 85B0     		sub	sp, sp, #20
 23983              	.LCFI136:
 23984              		.cfi_def_cfa_offset 24
 23985 0004 00AF     		add	r7, sp, #0
 23986              		.cfi_offset 7, -4
 23987              	.LCFI137:
 23988              		.cfi_def_cfa_register 7
 23989 0006 7860     		str	r0, [r7, #4]
 23990 0008 0B46     		mov	r3, r1
 23991 000a 7B80     		strh	r3, [r7, #2]	@ movhi
1709:../Libraries/STM32F10x_StdPeriph_Driver/src/stm32f10x_tim.c ****   uint16_t tmpccmr1 = 0;
 23992              		.loc 1 1709 0
 23993 000c 4FF00003 		mov	r3, #0
 23994 0010 FB81     		strh	r3, [r7, #14]	@ movhi
1710:../Libraries/STM32F10x_StdPeriph_Driver/src/stm32f10x_tim.c ****   /* Check the parameters */
1711:../Libraries/STM32F10x_StdPeriph_Driver/src/stm32f10x_tim.c ****   assert_param(IS_TIM_LIST3_PERIPH(TIMx));
1712:../Libraries/STM32F10x_StdPeriph_Driver/src/stm32f10x_tim.c ****   assert_param(IS_TIM_OCCLEAR_STATE(TIM_OCClear));
1713:../Libraries/STM32F10x_StdPeriph_Driver/src/stm32f10x_tim.c **** 
1714:../Libraries/STM32F10x_StdPeriph_Driver/src/stm32f10x_tim.c ****   tmpccmr1 = TIMx->CCMR1;
 23995              		.loc 1 1714 0
 23996 0012 7B68     		ldr	r3, [r7, #4]
 23997 0014 1B8B     		ldrh	r3, [r3, #24]	@ movhi
 23998 0016 FB81     		strh	r3, [r7, #14]	@ movhi
1715:../Libraries/STM32F10x_StdPeriph_Driver/src/stm32f10x_tim.c **** 
1716:../Libraries/STM32F10x_StdPeriph_Driver/src/stm32f10x_tim.c ****   /* Reset the OC1CE Bit */
1717:../Libraries/STM32F10x_StdPeriph_Driver/src/stm32f10x_tim.c ****   tmpccmr1 &= (uint16_t)~((uint16_t)TIM_CCMR1_OC1CE);
 23999              		.loc 1 1717 0
 24000 0018 FB89     		ldrh	r3, [r7, #14]	@ movhi
 24001 001a 23F08003 		bic	r3, r3, #128
 24002 001e FB81     		strh	r3, [r7, #14]	@ movhi
1718:../Libraries/STM32F10x_StdPeriph_Driver/src/stm32f10x_tim.c ****   /* Enable or Disable the Output Compare Clear Bit */
1719:../Libraries/STM32F10x_StdPeriph_Driver/src/stm32f10x_tim.c ****   tmpccmr1 |= TIM_OCClear;
 24003              		.loc 1 1719 0
 24004 0020 FA89     		ldrh	r2, [r7, #14]	@ movhi
 24005 0022 7B88     		ldrh	r3, [r7, #2]	@ movhi
 24006 0024 42EA0303 		orr	r3, r2, r3
 24007 0028 FB81     		strh	r3, [r7, #14]	@ movhi
1720:../Libraries/STM32F10x_StdPeriph_Driver/src/stm32f10x_tim.c ****   /* Write to TIMx CCMR1 register */
1721:../Libraries/STM32F10x_StdPeriph_Driver/src/stm32f10x_tim.c ****   TIMx->CCMR1 = tmpccmr1;
 24008              		.loc 1 1721 0
 24009 002a 7B68     		ldr	r3, [r7, #4]
 24010 002c FA89     		ldrh	r2, [r7, #14]	@ movhi
 24011 002e 1A83     		strh	r2, [r3, #24]	@ movhi
1722:../Libraries/STM32F10x_StdPeriph_Driver/src/stm32f10x_tim.c **** }
 24012              		.loc 1 1722 0
 24013 0030 07F11407 		add	r7, r7, #20
 24014 0034 BD46     		mov	sp, r7
 24015 0036 80BC     		pop	{r7}
 24016 0038 7047     		bx	lr
 24017              		.cfi_endproc
 24018              	.LFE74:
 24020 003a 00BF     		.section	.text.TIM_ClearOC2Ref,"ax",%progbits
 24021              		.align	2
 24022              		.global	TIM_ClearOC2Ref
 24023              		.thumb
 24024              		.thumb_func
 24026              	TIM_ClearOC2Ref:
 24027              	.LFB75:
1723:../Libraries/STM32F10x_StdPeriph_Driver/src/stm32f10x_tim.c **** 
1724:../Libraries/STM32F10x_StdPeriph_Driver/src/stm32f10x_tim.c **** /**
1725:../Libraries/STM32F10x_StdPeriph_Driver/src/stm32f10x_tim.c ****   * @brief  Clears or safeguards the OCREF2 signal on an external event
1726:../Libraries/STM32F10x_StdPeriph_Driver/src/stm32f10x_tim.c ****   * @param  TIMx: where x can be  1, 2, 3, 4, 5 or 8 to select the TIM peripheral.
1727:../Libraries/STM32F10x_StdPeriph_Driver/src/stm32f10x_tim.c ****   * @param  TIM_OCClear: new state of the Output Compare Clear Enable Bit.
1728:../Libraries/STM32F10x_StdPeriph_Driver/src/stm32f10x_tim.c ****   *   This parameter can be one of the following values:
1729:../Libraries/STM32F10x_StdPeriph_Driver/src/stm32f10x_tim.c ****   *     @arg TIM_OCClear_Enable: TIM Output clear enable
1730:../Libraries/STM32F10x_StdPeriph_Driver/src/stm32f10x_tim.c ****   *     @arg TIM_OCClear_Disable: TIM Output clear disable
1731:../Libraries/STM32F10x_StdPeriph_Driver/src/stm32f10x_tim.c ****   * @retval None
1732:../Libraries/STM32F10x_StdPeriph_Driver/src/stm32f10x_tim.c ****   */
1733:../Libraries/STM32F10x_StdPeriph_Driver/src/stm32f10x_tim.c **** void TIM_ClearOC2Ref(TIM_TypeDef* TIMx, uint16_t TIM_OCClear)
1734:../Libraries/STM32F10x_StdPeriph_Driver/src/stm32f10x_tim.c **** {
 24028              		.loc 1 1734 0
 24029              		.cfi_startproc
 24030              		@ args = 0, pretend = 0, frame = 16
 24031              		@ frame_needed = 1, uses_anonymous_args = 0
 24032              		@ link register save eliminated.
 24033 0000 80B4     		push	{r7}
 24034              	.LCFI138:
 24035              		.cfi_def_cfa_offset 4
 24036 0002 85B0     		sub	sp, sp, #20
 24037              	.LCFI139:
 24038              		.cfi_def_cfa_offset 24
 24039 0004 00AF     		add	r7, sp, #0
 24040              		.cfi_offset 7, -4
 24041              	.LCFI140:
 24042              		.cfi_def_cfa_register 7
 24043 0006 7860     		str	r0, [r7, #4]
 24044 0008 0B46     		mov	r3, r1
 24045 000a 7B80     		strh	r3, [r7, #2]	@ movhi
1735:../Libraries/STM32F10x_StdPeriph_Driver/src/stm32f10x_tim.c ****   uint16_t tmpccmr1 = 0;
 24046              		.loc 1 1735 0
 24047 000c 4FF00003 		mov	r3, #0
 24048 0010 FB81     		strh	r3, [r7, #14]	@ movhi
1736:../Libraries/STM32F10x_StdPeriph_Driver/src/stm32f10x_tim.c ****   /* Check the parameters */
1737:../Libraries/STM32F10x_StdPeriph_Driver/src/stm32f10x_tim.c ****   assert_param(IS_TIM_LIST3_PERIPH(TIMx));
1738:../Libraries/STM32F10x_StdPeriph_Driver/src/stm32f10x_tim.c ****   assert_param(IS_TIM_OCCLEAR_STATE(TIM_OCClear));
1739:../Libraries/STM32F10x_StdPeriph_Driver/src/stm32f10x_tim.c ****   tmpccmr1 = TIMx->CCMR1;
 24049              		.loc 1 1739 0
 24050 0012 7B68     		ldr	r3, [r7, #4]
 24051 0014 1B8B     		ldrh	r3, [r3, #24]	@ movhi
 24052 0016 FB81     		strh	r3, [r7, #14]	@ movhi
1740:../Libraries/STM32F10x_StdPeriph_Driver/src/stm32f10x_tim.c ****   /* Reset the OC2CE Bit */
1741:../Libraries/STM32F10x_StdPeriph_Driver/src/stm32f10x_tim.c ****   tmpccmr1 &= (uint16_t)~((uint16_t)TIM_CCMR1_OC2CE);
 24053              		.loc 1 1741 0
 24054 0018 FB89     		ldrh	r3, [r7, #14]	@ movhi
 24055 001a 4FEA4343 		lsl	r3, r3, #17
 24056 001e 4FEA5343 		lsr	r3, r3, #17
 24057 0022 FB81     		strh	r3, [r7, #14]	@ movhi
1742:../Libraries/STM32F10x_StdPeriph_Driver/src/stm32f10x_tim.c ****   /* Enable or Disable the Output Compare Clear Bit */
1743:../Libraries/STM32F10x_StdPeriph_Driver/src/stm32f10x_tim.c ****   tmpccmr1 |= (uint16_t)(TIM_OCClear << 8);
 24058              		.loc 1 1743 0
 24059 0024 7B88     		ldrh	r3, [r7, #2]	@ movhi
 24060 0026 4FEA0323 		lsl	r3, r3, #8
 24061 002a 9AB2     		uxth	r2, r3
 24062 002c FB89     		ldrh	r3, [r7, #14]	@ movhi
 24063 002e 42EA0303 		orr	r3, r2, r3
 24064 0032 FB81     		strh	r3, [r7, #14]	@ movhi
1744:../Libraries/STM32F10x_StdPeriph_Driver/src/stm32f10x_tim.c ****   /* Write to TIMx CCMR1 register */
1745:../Libraries/STM32F10x_StdPeriph_Driver/src/stm32f10x_tim.c ****   TIMx->CCMR1 = tmpccmr1;
 24065              		.loc 1 1745 0
 24066 0034 7B68     		ldr	r3, [r7, #4]
 24067 0036 FA89     		ldrh	r2, [r7, #14]	@ movhi
 24068 0038 1A83     		strh	r2, [r3, #24]	@ movhi
1746:../Libraries/STM32F10x_StdPeriph_Driver/src/stm32f10x_tim.c **** }
 24069              		.loc 1 1746 0
 24070 003a 07F11407 		add	r7, r7, #20
 24071 003e BD46     		mov	sp, r7
 24072 0040 80BC     		pop	{r7}
 24073 0042 7047     		bx	lr
 24074              		.cfi_endproc
 24075              	.LFE75:
 24077              		.section	.text.TIM_ClearOC3Ref,"ax",%progbits
 24078              		.align	2
 24079              		.global	TIM_ClearOC3Ref
 24080              		.thumb
 24081              		.thumb_func
 24083              	TIM_ClearOC3Ref:
 24084              	.LFB76:
1747:../Libraries/STM32F10x_StdPeriph_Driver/src/stm32f10x_tim.c **** 
1748:../Libraries/STM32F10x_StdPeriph_Driver/src/stm32f10x_tim.c **** /**
1749:../Libraries/STM32F10x_StdPeriph_Driver/src/stm32f10x_tim.c ****   * @brief  Clears or safeguards the OCREF3 signal on an external event
1750:../Libraries/STM32F10x_StdPeriph_Driver/src/stm32f10x_tim.c ****   * @param  TIMx: where x can be  1, 2, 3, 4, 5 or 8 to select the TIM peripheral.
1751:../Libraries/STM32F10x_StdPeriph_Driver/src/stm32f10x_tim.c ****   * @param  TIM_OCClear: new state of the Output Compare Clear Enable Bit.
1752:../Libraries/STM32F10x_StdPeriph_Driver/src/stm32f10x_tim.c ****   *   This parameter can be one of the following values:
1753:../Libraries/STM32F10x_StdPeriph_Driver/src/stm32f10x_tim.c ****   *     @arg TIM_OCClear_Enable: TIM Output clear enable
1754:../Libraries/STM32F10x_StdPeriph_Driver/src/stm32f10x_tim.c ****   *     @arg TIM_OCClear_Disable: TIM Output clear disable
1755:../Libraries/STM32F10x_StdPeriph_Driver/src/stm32f10x_tim.c ****   * @retval None
1756:../Libraries/STM32F10x_StdPeriph_Driver/src/stm32f10x_tim.c ****   */
1757:../Libraries/STM32F10x_StdPeriph_Driver/src/stm32f10x_tim.c **** void TIM_ClearOC3Ref(TIM_TypeDef* TIMx, uint16_t TIM_OCClear)
1758:../Libraries/STM32F10x_StdPeriph_Driver/src/stm32f10x_tim.c **** {
 24085              		.loc 1 1758 0
 24086              		.cfi_startproc
 24087              		@ args = 0, pretend = 0, frame = 16
 24088              		@ frame_needed = 1, uses_anonymous_args = 0
 24089              		@ link register save eliminated.
 24090 0000 80B4     		push	{r7}
 24091              	.LCFI141:
 24092              		.cfi_def_cfa_offset 4
 24093 0002 85B0     		sub	sp, sp, #20
 24094              	.LCFI142:
 24095              		.cfi_def_cfa_offset 24
 24096 0004 00AF     		add	r7, sp, #0
 24097              		.cfi_offset 7, -4
 24098              	.LCFI143:
 24099              		.cfi_def_cfa_register 7
 24100 0006 7860     		str	r0, [r7, #4]
 24101 0008 0B46     		mov	r3, r1
 24102 000a 7B80     		strh	r3, [r7, #2]	@ movhi
1759:../Libraries/STM32F10x_StdPeriph_Driver/src/stm32f10x_tim.c ****   uint16_t tmpccmr2 = 0;
 24103              		.loc 1 1759 0
 24104 000c 4FF00003 		mov	r3, #0
 24105 0010 FB81     		strh	r3, [r7, #14]	@ movhi
1760:../Libraries/STM32F10x_StdPeriph_Driver/src/stm32f10x_tim.c ****   /* Check the parameters */
1761:../Libraries/STM32F10x_StdPeriph_Driver/src/stm32f10x_tim.c ****   assert_param(IS_TIM_LIST3_PERIPH(TIMx));
1762:../Libraries/STM32F10x_StdPeriph_Driver/src/stm32f10x_tim.c ****   assert_param(IS_TIM_OCCLEAR_STATE(TIM_OCClear));
1763:../Libraries/STM32F10x_StdPeriph_Driver/src/stm32f10x_tim.c ****   tmpccmr2 = TIMx->CCMR2;
 24106              		.loc 1 1763 0
 24107 0012 7B68     		ldr	r3, [r7, #4]
 24108 0014 9B8B     		ldrh	r3, [r3, #28]	@ movhi
 24109 0016 FB81     		strh	r3, [r7, #14]	@ movhi
1764:../Libraries/STM32F10x_StdPeriph_Driver/src/stm32f10x_tim.c ****   /* Reset the OC3CE Bit */
1765:../Libraries/STM32F10x_StdPeriph_Driver/src/stm32f10x_tim.c ****   tmpccmr2 &= (uint16_t)~((uint16_t)TIM_CCMR2_OC3CE);
 24110              		.loc 1 1765 0
 24111 0018 FB89     		ldrh	r3, [r7, #14]	@ movhi
 24112 001a 23F08003 		bic	r3, r3, #128
 24113 001e FB81     		strh	r3, [r7, #14]	@ movhi
1766:../Libraries/STM32F10x_StdPeriph_Driver/src/stm32f10x_tim.c ****   /* Enable or Disable the Output Compare Clear Bit */
1767:../Libraries/STM32F10x_StdPeriph_Driver/src/stm32f10x_tim.c ****   tmpccmr2 |= TIM_OCClear;
 24114              		.loc 1 1767 0
 24115 0020 FA89     		ldrh	r2, [r7, #14]	@ movhi
 24116 0022 7B88     		ldrh	r3, [r7, #2]	@ movhi
 24117 0024 42EA0303 		orr	r3, r2, r3
 24118 0028 FB81     		strh	r3, [r7, #14]	@ movhi
1768:../Libraries/STM32F10x_StdPeriph_Driver/src/stm32f10x_tim.c ****   /* Write to TIMx CCMR2 register */
1769:../Libraries/STM32F10x_StdPeriph_Driver/src/stm32f10x_tim.c ****   TIMx->CCMR2 = tmpccmr2;
 24119              		.loc 1 1769 0
 24120 002a 7B68     		ldr	r3, [r7, #4]
 24121 002c FA89     		ldrh	r2, [r7, #14]	@ movhi
 24122 002e 9A83     		strh	r2, [r3, #28]	@ movhi
1770:../Libraries/STM32F10x_StdPeriph_Driver/src/stm32f10x_tim.c **** }
 24123              		.loc 1 1770 0
 24124 0030 07F11407 		add	r7, r7, #20
 24125 0034 BD46     		mov	sp, r7
 24126 0036 80BC     		pop	{r7}
 24127 0038 7047     		bx	lr
 24128              		.cfi_endproc
 24129              	.LFE76:
 24131 003a 00BF     		.section	.text.TIM_ClearOC4Ref,"ax",%progbits
 24132              		.align	2
 24133              		.global	TIM_ClearOC4Ref
 24134              		.thumb
 24135              		.thumb_func
 24137              	TIM_ClearOC4Ref:
 24138              	.LFB77:
1771:../Libraries/STM32F10x_StdPeriph_Driver/src/stm32f10x_tim.c **** 
1772:../Libraries/STM32F10x_StdPeriph_Driver/src/stm32f10x_tim.c **** /**
1773:../Libraries/STM32F10x_StdPeriph_Driver/src/stm32f10x_tim.c ****   * @brief  Clears or safeguards the OCREF4 signal on an external event
1774:../Libraries/STM32F10x_StdPeriph_Driver/src/stm32f10x_tim.c ****   * @param  TIMx: where x can be  1, 2, 3, 4, 5 or 8 to select the TIM peripheral.
1775:../Libraries/STM32F10x_StdPeriph_Driver/src/stm32f10x_tim.c ****   * @param  TIM_OCClear: new state of the Output Compare Clear Enable Bit.
1776:../Libraries/STM32F10x_StdPeriph_Driver/src/stm32f10x_tim.c ****   *   This parameter can be one of the following values:
1777:../Libraries/STM32F10x_StdPeriph_Driver/src/stm32f10x_tim.c ****   *     @arg TIM_OCClear_Enable: TIM Output clear enable
1778:../Libraries/STM32F10x_StdPeriph_Driver/src/stm32f10x_tim.c ****   *     @arg TIM_OCClear_Disable: TIM Output clear disable
1779:../Libraries/STM32F10x_StdPeriph_Driver/src/stm32f10x_tim.c ****   * @retval None
1780:../Libraries/STM32F10x_StdPeriph_Driver/src/stm32f10x_tim.c ****   */
1781:../Libraries/STM32F10x_StdPeriph_Driver/src/stm32f10x_tim.c **** void TIM_ClearOC4Ref(TIM_TypeDef* TIMx, uint16_t TIM_OCClear)
1782:../Libraries/STM32F10x_StdPeriph_Driver/src/stm32f10x_tim.c **** {
 24139              		.loc 1 1782 0
 24140              		.cfi_startproc
 24141              		@ args = 0, pretend = 0, frame = 16
 24142              		@ frame_needed = 1, uses_anonymous_args = 0
 24143              		@ link register save eliminated.
 24144 0000 80B4     		push	{r7}
 24145              	.LCFI144:
 24146              		.cfi_def_cfa_offset 4
 24147 0002 85B0     		sub	sp, sp, #20
 24148              	.LCFI145:
 24149              		.cfi_def_cfa_offset 24
 24150 0004 00AF     		add	r7, sp, #0
 24151              		.cfi_offset 7, -4
 24152              	.LCFI146:
 24153              		.cfi_def_cfa_register 7
 24154 0006 7860     		str	r0, [r7, #4]
 24155 0008 0B46     		mov	r3, r1
 24156 000a 7B80     		strh	r3, [r7, #2]	@ movhi
1783:../Libraries/STM32F10x_StdPeriph_Driver/src/stm32f10x_tim.c ****   uint16_t tmpccmr2 = 0;
 24157              		.loc 1 1783 0
 24158 000c 4FF00003 		mov	r3, #0
 24159 0010 FB81     		strh	r3, [r7, #14]	@ movhi
1784:../Libraries/STM32F10x_StdPeriph_Driver/src/stm32f10x_tim.c ****   /* Check the parameters */
1785:../Libraries/STM32F10x_StdPeriph_Driver/src/stm32f10x_tim.c ****   assert_param(IS_TIM_LIST3_PERIPH(TIMx));
1786:../Libraries/STM32F10x_StdPeriph_Driver/src/stm32f10x_tim.c ****   assert_param(IS_TIM_OCCLEAR_STATE(TIM_OCClear));
1787:../Libraries/STM32F10x_StdPeriph_Driver/src/stm32f10x_tim.c ****   tmpccmr2 = TIMx->CCMR2;
 24160              		.loc 1 1787 0
 24161 0012 7B68     		ldr	r3, [r7, #4]
 24162 0014 9B8B     		ldrh	r3, [r3, #28]	@ movhi
 24163 0016 FB81     		strh	r3, [r7, #14]	@ movhi
1788:../Libraries/STM32F10x_StdPeriph_Driver/src/stm32f10x_tim.c ****   /* Reset the OC4CE Bit */
1789:../Libraries/STM32F10x_StdPeriph_Driver/src/stm32f10x_tim.c ****   tmpccmr2 &= (uint16_t)~((uint16_t)TIM_CCMR2_OC4CE);
 24164              		.loc 1 1789 0
 24165 0018 FB89     		ldrh	r3, [r7, #14]	@ movhi
 24166 001a 4FEA4343 		lsl	r3, r3, #17
 24167 001e 4FEA5343 		lsr	r3, r3, #17
 24168 0022 FB81     		strh	r3, [r7, #14]	@ movhi
1790:../Libraries/STM32F10x_StdPeriph_Driver/src/stm32f10x_tim.c ****   /* Enable or Disable the Output Compare Clear Bit */
1791:../Libraries/STM32F10x_StdPeriph_Driver/src/stm32f10x_tim.c ****   tmpccmr2 |= (uint16_t)(TIM_OCClear << 8);
 24169              		.loc 1 1791 0
 24170 0024 7B88     		ldrh	r3, [r7, #2]	@ movhi
 24171 0026 4FEA0323 		lsl	r3, r3, #8
 24172 002a 9AB2     		uxth	r2, r3
 24173 002c FB89     		ldrh	r3, [r7, #14]	@ movhi
 24174 002e 42EA0303 		orr	r3, r2, r3
 24175 0032 FB81     		strh	r3, [r7, #14]	@ movhi
1792:../Libraries/STM32F10x_StdPeriph_Driver/src/stm32f10x_tim.c ****   /* Write to TIMx CCMR2 register */
1793:../Libraries/STM32F10x_StdPeriph_Driver/src/stm32f10x_tim.c ****   TIMx->CCMR2 = tmpccmr2;
 24176              		.loc 1 1793 0
 24177 0034 7B68     		ldr	r3, [r7, #4]
 24178 0036 FA89     		ldrh	r2, [r7, #14]	@ movhi
 24179 0038 9A83     		strh	r2, [r3, #28]	@ movhi
1794:../Libraries/STM32F10x_StdPeriph_Driver/src/stm32f10x_tim.c **** }
 24180              		.loc 1 1794 0
 24181 003a 07F11407 		add	r7, r7, #20
 24182 003e BD46     		mov	sp, r7
 24183 0040 80BC     		pop	{r7}
 24184 0042 7047     		bx	lr
 24185              		.cfi_endproc
 24186              	.LFE77:
 24188              		.section	.text.TIM_OC1PolarityConfig,"ax",%progbits
 24189              		.align	2
 24190              		.global	TIM_OC1PolarityConfig
 24191              		.thumb
 24192              		.thumb_func
 24194              	TIM_OC1PolarityConfig:
 24195              	.LFB78:
1795:../Libraries/STM32F10x_StdPeriph_Driver/src/stm32f10x_tim.c **** 
1796:../Libraries/STM32F10x_StdPeriph_Driver/src/stm32f10x_tim.c **** /**
1797:../Libraries/STM32F10x_StdPeriph_Driver/src/stm32f10x_tim.c ****   * @brief  Configures the TIMx channel 1 polarity.
1798:../Libraries/STM32F10x_StdPeriph_Driver/src/stm32f10x_tim.c ****   * @param  TIMx: where x can be 1 to 17 except 6 and 7 to select the TIM peripheral.
1799:../Libraries/STM32F10x_StdPeriph_Driver/src/stm32f10x_tim.c ****   * @param  TIM_OCPolarity: specifies the OC1 Polarity
1800:../Libraries/STM32F10x_StdPeriph_Driver/src/stm32f10x_tim.c ****   *   This parameter can be one of the following values:
1801:../Libraries/STM32F10x_StdPeriph_Driver/src/stm32f10x_tim.c ****   *     @arg TIM_OCPolarity_High: Output Compare active high
1802:../Libraries/STM32F10x_StdPeriph_Driver/src/stm32f10x_tim.c ****   *     @arg TIM_OCPolarity_Low: Output Compare active low
1803:../Libraries/STM32F10x_StdPeriph_Driver/src/stm32f10x_tim.c ****   * @retval None
1804:../Libraries/STM32F10x_StdPeriph_Driver/src/stm32f10x_tim.c ****   */
1805:../Libraries/STM32F10x_StdPeriph_Driver/src/stm32f10x_tim.c **** void TIM_OC1PolarityConfig(TIM_TypeDef* TIMx, uint16_t TIM_OCPolarity)
1806:../Libraries/STM32F10x_StdPeriph_Driver/src/stm32f10x_tim.c **** {
 24196              		.loc 1 1806 0
 24197              		.cfi_startproc
 24198              		@ args = 0, pretend = 0, frame = 16
 24199              		@ frame_needed = 1, uses_anonymous_args = 0
 24200              		@ link register save eliminated.
 24201 0000 80B4     		push	{r7}
 24202              	.LCFI147:
 24203              		.cfi_def_cfa_offset 4
 24204 0002 85B0     		sub	sp, sp, #20
 24205              	.LCFI148:
 24206              		.cfi_def_cfa_offset 24
 24207 0004 00AF     		add	r7, sp, #0
 24208              		.cfi_offset 7, -4
 24209              	.LCFI149:
 24210              		.cfi_def_cfa_register 7
 24211 0006 7860     		str	r0, [r7, #4]
 24212 0008 0B46     		mov	r3, r1
 24213 000a 7B80     		strh	r3, [r7, #2]	@ movhi
1807:../Libraries/STM32F10x_StdPeriph_Driver/src/stm32f10x_tim.c ****   uint16_t tmpccer = 0;
 24214              		.loc 1 1807 0
 24215 000c 4FF00003 		mov	r3, #0
 24216 0010 FB81     		strh	r3, [r7, #14]	@ movhi
1808:../Libraries/STM32F10x_StdPeriph_Driver/src/stm32f10x_tim.c ****   /* Check the parameters */
1809:../Libraries/STM32F10x_StdPeriph_Driver/src/stm32f10x_tim.c ****   assert_param(IS_TIM_LIST8_PERIPH(TIMx));
1810:../Libraries/STM32F10x_StdPeriph_Driver/src/stm32f10x_tim.c ****   assert_param(IS_TIM_OC_POLARITY(TIM_OCPolarity));
1811:../Libraries/STM32F10x_StdPeriph_Driver/src/stm32f10x_tim.c ****   tmpccer = TIMx->CCER;
 24217              		.loc 1 1811 0
 24218 0012 7B68     		ldr	r3, [r7, #4]
 24219 0014 1B8C     		ldrh	r3, [r3, #32]	@ movhi
 24220 0016 FB81     		strh	r3, [r7, #14]	@ movhi
1812:../Libraries/STM32F10x_StdPeriph_Driver/src/stm32f10x_tim.c ****   /* Set or Reset the CC1P Bit */
1813:../Libraries/STM32F10x_StdPeriph_Driver/src/stm32f10x_tim.c ****   tmpccer &= (uint16_t)~((uint16_t)TIM_CCER_CC1P);
 24221              		.loc 1 1813 0
 24222 0018 FB89     		ldrh	r3, [r7, #14]	@ movhi
 24223 001a 23F00203 		bic	r3, r3, #2
 24224 001e FB81     		strh	r3, [r7, #14]	@ movhi
1814:../Libraries/STM32F10x_StdPeriph_Driver/src/stm32f10x_tim.c ****   tmpccer |= TIM_OCPolarity;
 24225              		.loc 1 1814 0
 24226 0020 FA89     		ldrh	r2, [r7, #14]	@ movhi
 24227 0022 7B88     		ldrh	r3, [r7, #2]	@ movhi
 24228 0024 42EA0303 		orr	r3, r2, r3
 24229 0028 FB81     		strh	r3, [r7, #14]	@ movhi
1815:../Libraries/STM32F10x_StdPeriph_Driver/src/stm32f10x_tim.c ****   /* Write to TIMx CCER register */
1816:../Libraries/STM32F10x_StdPeriph_Driver/src/stm32f10x_tim.c ****   TIMx->CCER = tmpccer;
 24230              		.loc 1 1816 0
 24231 002a 7B68     		ldr	r3, [r7, #4]
 24232 002c FA89     		ldrh	r2, [r7, #14]	@ movhi
 24233 002e 1A84     		strh	r2, [r3, #32]	@ movhi
1817:../Libraries/STM32F10x_StdPeriph_Driver/src/stm32f10x_tim.c **** }
 24234              		.loc 1 1817 0
 24235 0030 07F11407 		add	r7, r7, #20
 24236 0034 BD46     		mov	sp, r7
 24237 0036 80BC     		pop	{r7}
 24238 0038 7047     		bx	lr
 24239              		.cfi_endproc
 24240              	.LFE78:
 24242 003a 00BF     		.section	.text.TIM_OC1NPolarityConfig,"ax",%progbits
 24243              		.align	2
 24244              		.global	TIM_OC1NPolarityConfig
 24245              		.thumb
 24246              		.thumb_func
 24248              	TIM_OC1NPolarityConfig:
 24249              	.LFB79:
1818:../Libraries/STM32F10x_StdPeriph_Driver/src/stm32f10x_tim.c **** 
1819:../Libraries/STM32F10x_StdPeriph_Driver/src/stm32f10x_tim.c **** /**
1820:../Libraries/STM32F10x_StdPeriph_Driver/src/stm32f10x_tim.c ****   * @brief  Configures the TIMx Channel 1N polarity.
1821:../Libraries/STM32F10x_StdPeriph_Driver/src/stm32f10x_tim.c ****   * @param  TIMx: where x can be 1, 8, 15, 16 or 17 to select the TIM peripheral.
1822:../Libraries/STM32F10x_StdPeriph_Driver/src/stm32f10x_tim.c ****   * @param  TIM_OCNPolarity: specifies the OC1N Polarity
1823:../Libraries/STM32F10x_StdPeriph_Driver/src/stm32f10x_tim.c ****   *   This parameter can be one of the following values:
1824:../Libraries/STM32F10x_StdPeriph_Driver/src/stm32f10x_tim.c ****   *     @arg TIM_OCNPolarity_High: Output Compare active high
1825:../Libraries/STM32F10x_StdPeriph_Driver/src/stm32f10x_tim.c ****   *     @arg TIM_OCNPolarity_Low: Output Compare active low
1826:../Libraries/STM32F10x_StdPeriph_Driver/src/stm32f10x_tim.c ****   * @retval None
1827:../Libraries/STM32F10x_StdPeriph_Driver/src/stm32f10x_tim.c ****   */
1828:../Libraries/STM32F10x_StdPeriph_Driver/src/stm32f10x_tim.c **** void TIM_OC1NPolarityConfig(TIM_TypeDef* TIMx, uint16_t TIM_OCNPolarity)
1829:../Libraries/STM32F10x_StdPeriph_Driver/src/stm32f10x_tim.c **** {
 24250              		.loc 1 1829 0
 24251              		.cfi_startproc
 24252              		@ args = 0, pretend = 0, frame = 16
 24253              		@ frame_needed = 1, uses_anonymous_args = 0
 24254              		@ link register save eliminated.
 24255 0000 80B4     		push	{r7}
 24256              	.LCFI150:
 24257              		.cfi_def_cfa_offset 4
 24258 0002 85B0     		sub	sp, sp, #20
 24259              	.LCFI151:
 24260              		.cfi_def_cfa_offset 24
 24261 0004 00AF     		add	r7, sp, #0
 24262              		.cfi_offset 7, -4
 24263              	.LCFI152:
 24264              		.cfi_def_cfa_register 7
 24265 0006 7860     		str	r0, [r7, #4]
 24266 0008 0B46     		mov	r3, r1
 24267 000a 7B80     		strh	r3, [r7, #2]	@ movhi
1830:../Libraries/STM32F10x_StdPeriph_Driver/src/stm32f10x_tim.c ****   uint16_t tmpccer = 0;
 24268              		.loc 1 1830 0
 24269 000c 4FF00003 		mov	r3, #0
 24270 0010 FB81     		strh	r3, [r7, #14]	@ movhi
1831:../Libraries/STM32F10x_StdPeriph_Driver/src/stm32f10x_tim.c ****   /* Check the parameters */
1832:../Libraries/STM32F10x_StdPeriph_Driver/src/stm32f10x_tim.c ****   assert_param(IS_TIM_LIST2_PERIPH(TIMx));
1833:../Libraries/STM32F10x_StdPeriph_Driver/src/stm32f10x_tim.c ****   assert_param(IS_TIM_OCN_POLARITY(TIM_OCNPolarity));
1834:../Libraries/STM32F10x_StdPeriph_Driver/src/stm32f10x_tim.c ****    
1835:../Libraries/STM32F10x_StdPeriph_Driver/src/stm32f10x_tim.c ****   tmpccer = TIMx->CCER;
 24271              		.loc 1 1835 0
 24272 0012 7B68     		ldr	r3, [r7, #4]
 24273 0014 1B8C     		ldrh	r3, [r3, #32]	@ movhi
 24274 0016 FB81     		strh	r3, [r7, #14]	@ movhi
1836:../Libraries/STM32F10x_StdPeriph_Driver/src/stm32f10x_tim.c ****   /* Set or Reset the CC1NP Bit */
1837:../Libraries/STM32F10x_StdPeriph_Driver/src/stm32f10x_tim.c ****   tmpccer &= (uint16_t)~((uint16_t)TIM_CCER_CC1NP);
 24275              		.loc 1 1837 0
 24276 0018 FB89     		ldrh	r3, [r7, #14]	@ movhi
 24277 001a 23F00803 		bic	r3, r3, #8
 24278 001e FB81     		strh	r3, [r7, #14]	@ movhi
1838:../Libraries/STM32F10x_StdPeriph_Driver/src/stm32f10x_tim.c ****   tmpccer |= TIM_OCNPolarity;
 24279              		.loc 1 1838 0
 24280 0020 FA89     		ldrh	r2, [r7, #14]	@ movhi
 24281 0022 7B88     		ldrh	r3, [r7, #2]	@ movhi
 24282 0024 42EA0303 		orr	r3, r2, r3
 24283 0028 FB81     		strh	r3, [r7, #14]	@ movhi
1839:../Libraries/STM32F10x_StdPeriph_Driver/src/stm32f10x_tim.c ****   /* Write to TIMx CCER register */
1840:../Libraries/STM32F10x_StdPeriph_Driver/src/stm32f10x_tim.c ****   TIMx->CCER = tmpccer;
 24284              		.loc 1 1840 0
 24285 002a 7B68     		ldr	r3, [r7, #4]
 24286 002c FA89     		ldrh	r2, [r7, #14]	@ movhi
 24287 002e 1A84     		strh	r2, [r3, #32]	@ movhi
1841:../Libraries/STM32F10x_StdPeriph_Driver/src/stm32f10x_tim.c **** }
 24288              		.loc 1 1841 0
 24289 0030 07F11407 		add	r7, r7, #20
 24290 0034 BD46     		mov	sp, r7
 24291 0036 80BC     		pop	{r7}
 24292 0038 7047     		bx	lr
 24293              		.cfi_endproc
 24294              	.LFE79:
 24296 003a 00BF     		.section	.text.TIM_OC2PolarityConfig,"ax",%progbits
 24297              		.align	2
 24298              		.global	TIM_OC2PolarityConfig
 24299              		.thumb
 24300              		.thumb_func
 24302              	TIM_OC2PolarityConfig:
 24303              	.LFB80:
1842:../Libraries/STM32F10x_StdPeriph_Driver/src/stm32f10x_tim.c **** 
1843:../Libraries/STM32F10x_StdPeriph_Driver/src/stm32f10x_tim.c **** /**
1844:../Libraries/STM32F10x_StdPeriph_Driver/src/stm32f10x_tim.c ****   * @brief  Configures the TIMx channel 2 polarity.
1845:../Libraries/STM32F10x_StdPeriph_Driver/src/stm32f10x_tim.c ****   * @param  TIMx: where x can be 1, 2, 3, 4, 5, 8, 9, 12 or 15 to select the TIM peripheral.
1846:../Libraries/STM32F10x_StdPeriph_Driver/src/stm32f10x_tim.c ****   * @param  TIM_OCPolarity: specifies the OC2 Polarity
1847:../Libraries/STM32F10x_StdPeriph_Driver/src/stm32f10x_tim.c ****   *   This parameter can be one of the following values:
1848:../Libraries/STM32F10x_StdPeriph_Driver/src/stm32f10x_tim.c ****   *     @arg TIM_OCPolarity_High: Output Compare active high
1849:../Libraries/STM32F10x_StdPeriph_Driver/src/stm32f10x_tim.c ****   *     @arg TIM_OCPolarity_Low: Output Compare active low
1850:../Libraries/STM32F10x_StdPeriph_Driver/src/stm32f10x_tim.c ****   * @retval None
1851:../Libraries/STM32F10x_StdPeriph_Driver/src/stm32f10x_tim.c ****   */
1852:../Libraries/STM32F10x_StdPeriph_Driver/src/stm32f10x_tim.c **** void TIM_OC2PolarityConfig(TIM_TypeDef* TIMx, uint16_t TIM_OCPolarity)
1853:../Libraries/STM32F10x_StdPeriph_Driver/src/stm32f10x_tim.c **** {
 24304              		.loc 1 1853 0
 24305              		.cfi_startproc
 24306              		@ args = 0, pretend = 0, frame = 16
 24307              		@ frame_needed = 1, uses_anonymous_args = 0
 24308              		@ link register save eliminated.
 24309 0000 80B4     		push	{r7}
 24310              	.LCFI153:
 24311              		.cfi_def_cfa_offset 4
 24312 0002 85B0     		sub	sp, sp, #20
 24313              	.LCFI154:
 24314              		.cfi_def_cfa_offset 24
 24315 0004 00AF     		add	r7, sp, #0
 24316              		.cfi_offset 7, -4
 24317              	.LCFI155:
 24318              		.cfi_def_cfa_register 7
 24319 0006 7860     		str	r0, [r7, #4]
 24320 0008 0B46     		mov	r3, r1
 24321 000a 7B80     		strh	r3, [r7, #2]	@ movhi
1854:../Libraries/STM32F10x_StdPeriph_Driver/src/stm32f10x_tim.c ****   uint16_t tmpccer = 0;
 24322              		.loc 1 1854 0
 24323 000c 4FF00003 		mov	r3, #0
 24324 0010 FB81     		strh	r3, [r7, #14]	@ movhi
1855:../Libraries/STM32F10x_StdPeriph_Driver/src/stm32f10x_tim.c ****   /* Check the parameters */
1856:../Libraries/STM32F10x_StdPeriph_Driver/src/stm32f10x_tim.c ****   assert_param(IS_TIM_LIST6_PERIPH(TIMx));
1857:../Libraries/STM32F10x_StdPeriph_Driver/src/stm32f10x_tim.c ****   assert_param(IS_TIM_OC_POLARITY(TIM_OCPolarity));
1858:../Libraries/STM32F10x_StdPeriph_Driver/src/stm32f10x_tim.c ****   tmpccer = TIMx->CCER;
 24325              		.loc 1 1858 0
 24326 0012 7B68     		ldr	r3, [r7, #4]
 24327 0014 1B8C     		ldrh	r3, [r3, #32]	@ movhi
 24328 0016 FB81     		strh	r3, [r7, #14]	@ movhi
1859:../Libraries/STM32F10x_StdPeriph_Driver/src/stm32f10x_tim.c ****   /* Set or Reset the CC2P Bit */
1860:../Libraries/STM32F10x_StdPeriph_Driver/src/stm32f10x_tim.c ****   tmpccer &= (uint16_t)~((uint16_t)TIM_CCER_CC2P);
 24329              		.loc 1 1860 0
 24330 0018 FB89     		ldrh	r3, [r7, #14]	@ movhi
 24331 001a 23F02003 		bic	r3, r3, #32
 24332 001e FB81     		strh	r3, [r7, #14]	@ movhi
1861:../Libraries/STM32F10x_StdPeriph_Driver/src/stm32f10x_tim.c ****   tmpccer |= (uint16_t)(TIM_OCPolarity << 4);
 24333              		.loc 1 1861 0
 24334 0020 7B88     		ldrh	r3, [r7, #2]	@ movhi
 24335 0022 4FEA0313 		lsl	r3, r3, #4
 24336 0026 9AB2     		uxth	r2, r3
 24337 0028 FB89     		ldrh	r3, [r7, #14]	@ movhi
 24338 002a 42EA0303 		orr	r3, r2, r3
 24339 002e FB81     		strh	r3, [r7, #14]	@ movhi
1862:../Libraries/STM32F10x_StdPeriph_Driver/src/stm32f10x_tim.c ****   /* Write to TIMx CCER register */
1863:../Libraries/STM32F10x_StdPeriph_Driver/src/stm32f10x_tim.c ****   TIMx->CCER = tmpccer;
 24340              		.loc 1 1863 0
 24341 0030 7B68     		ldr	r3, [r7, #4]
 24342 0032 FA89     		ldrh	r2, [r7, #14]	@ movhi
 24343 0034 1A84     		strh	r2, [r3, #32]	@ movhi
1864:../Libraries/STM32F10x_StdPeriph_Driver/src/stm32f10x_tim.c **** }
 24344              		.loc 1 1864 0
 24345 0036 07F11407 		add	r7, r7, #20
 24346 003a BD46     		mov	sp, r7
 24347 003c 80BC     		pop	{r7}
 24348 003e 7047     		bx	lr
 24349              		.cfi_endproc
 24350              	.LFE80:
 24352              		.section	.text.TIM_OC2NPolarityConfig,"ax",%progbits
 24353              		.align	2
 24354              		.global	TIM_OC2NPolarityConfig
 24355              		.thumb
 24356              		.thumb_func
 24358              	TIM_OC2NPolarityConfig:
 24359              	.LFB81:
1865:../Libraries/STM32F10x_StdPeriph_Driver/src/stm32f10x_tim.c **** 
1866:../Libraries/STM32F10x_StdPeriph_Driver/src/stm32f10x_tim.c **** /**
1867:../Libraries/STM32F10x_StdPeriph_Driver/src/stm32f10x_tim.c ****   * @brief  Configures the TIMx Channel 2N polarity.
1868:../Libraries/STM32F10x_StdPeriph_Driver/src/stm32f10x_tim.c ****   * @param  TIMx: where x can be 1 or 8 to select the TIM peripheral.
1869:../Libraries/STM32F10x_StdPeriph_Driver/src/stm32f10x_tim.c ****   * @param  TIM_OCNPolarity: specifies the OC2N Polarity
1870:../Libraries/STM32F10x_StdPeriph_Driver/src/stm32f10x_tim.c ****   *   This parameter can be one of the following values:
1871:../Libraries/STM32F10x_StdPeriph_Driver/src/stm32f10x_tim.c ****   *     @arg TIM_OCNPolarity_High: Output Compare active high
1872:../Libraries/STM32F10x_StdPeriph_Driver/src/stm32f10x_tim.c ****   *     @arg TIM_OCNPolarity_Low: Output Compare active low
1873:../Libraries/STM32F10x_StdPeriph_Driver/src/stm32f10x_tim.c ****   * @retval None
1874:../Libraries/STM32F10x_StdPeriph_Driver/src/stm32f10x_tim.c ****   */
1875:../Libraries/STM32F10x_StdPeriph_Driver/src/stm32f10x_tim.c **** void TIM_OC2NPolarityConfig(TIM_TypeDef* TIMx, uint16_t TIM_OCNPolarity)
1876:../Libraries/STM32F10x_StdPeriph_Driver/src/stm32f10x_tim.c **** {
 24360              		.loc 1 1876 0
 24361              		.cfi_startproc
 24362              		@ args = 0, pretend = 0, frame = 16
 24363              		@ frame_needed = 1, uses_anonymous_args = 0
 24364              		@ link register save eliminated.
 24365 0000 80B4     		push	{r7}
 24366              	.LCFI156:
 24367              		.cfi_def_cfa_offset 4
 24368 0002 85B0     		sub	sp, sp, #20
 24369              	.LCFI157:
 24370              		.cfi_def_cfa_offset 24
 24371 0004 00AF     		add	r7, sp, #0
 24372              		.cfi_offset 7, -4
 24373              	.LCFI158:
 24374              		.cfi_def_cfa_register 7
 24375 0006 7860     		str	r0, [r7, #4]
 24376 0008 0B46     		mov	r3, r1
 24377 000a 7B80     		strh	r3, [r7, #2]	@ movhi
1877:../Libraries/STM32F10x_StdPeriph_Driver/src/stm32f10x_tim.c ****   uint16_t tmpccer = 0;
 24378              		.loc 1 1877 0
 24379 000c 4FF00003 		mov	r3, #0
 24380 0010 FB81     		strh	r3, [r7, #14]	@ movhi
1878:../Libraries/STM32F10x_StdPeriph_Driver/src/stm32f10x_tim.c ****   /* Check the parameters */
1879:../Libraries/STM32F10x_StdPeriph_Driver/src/stm32f10x_tim.c ****   assert_param(IS_TIM_LIST1_PERIPH(TIMx));
1880:../Libraries/STM32F10x_StdPeriph_Driver/src/stm32f10x_tim.c ****   assert_param(IS_TIM_OCN_POLARITY(TIM_OCNPolarity));
1881:../Libraries/STM32F10x_StdPeriph_Driver/src/stm32f10x_tim.c ****   
1882:../Libraries/STM32F10x_StdPeriph_Driver/src/stm32f10x_tim.c ****   tmpccer = TIMx->CCER;
 24381              		.loc 1 1882 0
 24382 0012 7B68     		ldr	r3, [r7, #4]
 24383 0014 1B8C     		ldrh	r3, [r3, #32]	@ movhi
 24384 0016 FB81     		strh	r3, [r7, #14]	@ movhi
1883:../Libraries/STM32F10x_StdPeriph_Driver/src/stm32f10x_tim.c ****   /* Set or Reset the CC2NP Bit */
1884:../Libraries/STM32F10x_StdPeriph_Driver/src/stm32f10x_tim.c ****   tmpccer &= (uint16_t)~((uint16_t)TIM_CCER_CC2NP);
 24385              		.loc 1 1884 0
 24386 0018 FB89     		ldrh	r3, [r7, #14]	@ movhi
 24387 001a 23F08003 		bic	r3, r3, #128
 24388 001e FB81     		strh	r3, [r7, #14]	@ movhi
1885:../Libraries/STM32F10x_StdPeriph_Driver/src/stm32f10x_tim.c ****   tmpccer |= (uint16_t)(TIM_OCNPolarity << 4);
 24389              		.loc 1 1885 0
 24390 0020 7B88     		ldrh	r3, [r7, #2]	@ movhi
 24391 0022 4FEA0313 		lsl	r3, r3, #4
 24392 0026 9AB2     		uxth	r2, r3
 24393 0028 FB89     		ldrh	r3, [r7, #14]	@ movhi
 24394 002a 42EA0303 		orr	r3, r2, r3
 24395 002e FB81     		strh	r3, [r7, #14]	@ movhi
1886:../Libraries/STM32F10x_StdPeriph_Driver/src/stm32f10x_tim.c ****   /* Write to TIMx CCER register */
1887:../Libraries/STM32F10x_StdPeriph_Driver/src/stm32f10x_tim.c ****   TIMx->CCER = tmpccer;
 24396              		.loc 1 1887 0
 24397 0030 7B68     		ldr	r3, [r7, #4]
 24398 0032 FA89     		ldrh	r2, [r7, #14]	@ movhi
 24399 0034 1A84     		strh	r2, [r3, #32]	@ movhi
1888:../Libraries/STM32F10x_StdPeriph_Driver/src/stm32f10x_tim.c **** }
 24400              		.loc 1 1888 0
 24401 0036 07F11407 		add	r7, r7, #20
 24402 003a BD46     		mov	sp, r7
 24403 003c 80BC     		pop	{r7}
 24404 003e 7047     		bx	lr
 24405              		.cfi_endproc
 24406              	.LFE81:
 24408              		.section	.text.TIM_OC3PolarityConfig,"ax",%progbits
 24409              		.align	2
 24410              		.global	TIM_OC3PolarityConfig
 24411              		.thumb
 24412              		.thumb_func
 24414              	TIM_OC3PolarityConfig:
 24415              	.LFB82:
1889:../Libraries/STM32F10x_StdPeriph_Driver/src/stm32f10x_tim.c **** 
1890:../Libraries/STM32F10x_StdPeriph_Driver/src/stm32f10x_tim.c **** /**
1891:../Libraries/STM32F10x_StdPeriph_Driver/src/stm32f10x_tim.c ****   * @brief  Configures the TIMx channel 3 polarity.
1892:../Libraries/STM32F10x_StdPeriph_Driver/src/stm32f10x_tim.c ****   * @param  TIMx: where x can be 1, 2, 3, 4, 5 or 8 to select the TIM peripheral.
1893:../Libraries/STM32F10x_StdPeriph_Driver/src/stm32f10x_tim.c ****   * @param  TIM_OCPolarity: specifies the OC3 Polarity
1894:../Libraries/STM32F10x_StdPeriph_Driver/src/stm32f10x_tim.c ****   *   This parameter can be one of the following values:
1895:../Libraries/STM32F10x_StdPeriph_Driver/src/stm32f10x_tim.c ****   *     @arg TIM_OCPolarity_High: Output Compare active high
1896:../Libraries/STM32F10x_StdPeriph_Driver/src/stm32f10x_tim.c ****   *     @arg TIM_OCPolarity_Low: Output Compare active low
1897:../Libraries/STM32F10x_StdPeriph_Driver/src/stm32f10x_tim.c ****   * @retval None
1898:../Libraries/STM32F10x_StdPeriph_Driver/src/stm32f10x_tim.c ****   */
1899:../Libraries/STM32F10x_StdPeriph_Driver/src/stm32f10x_tim.c **** void TIM_OC3PolarityConfig(TIM_TypeDef* TIMx, uint16_t TIM_OCPolarity)
1900:../Libraries/STM32F10x_StdPeriph_Driver/src/stm32f10x_tim.c **** {
 24416              		.loc 1 1900 0
 24417              		.cfi_startproc
 24418              		@ args = 0, pretend = 0, frame = 16
 24419              		@ frame_needed = 1, uses_anonymous_args = 0
 24420              		@ link register save eliminated.
 24421 0000 80B4     		push	{r7}
 24422              	.LCFI159:
 24423              		.cfi_def_cfa_offset 4
 24424 0002 85B0     		sub	sp, sp, #20
 24425              	.LCFI160:
 24426              		.cfi_def_cfa_offset 24
 24427 0004 00AF     		add	r7, sp, #0
 24428              		.cfi_offset 7, -4
 24429              	.LCFI161:
 24430              		.cfi_def_cfa_register 7
 24431 0006 7860     		str	r0, [r7, #4]
 24432 0008 0B46     		mov	r3, r1
 24433 000a 7B80     		strh	r3, [r7, #2]	@ movhi
1901:../Libraries/STM32F10x_StdPeriph_Driver/src/stm32f10x_tim.c ****   uint16_t tmpccer = 0;
 24434              		.loc 1 1901 0
 24435 000c 4FF00003 		mov	r3, #0
 24436 0010 FB81     		strh	r3, [r7, #14]	@ movhi
1902:../Libraries/STM32F10x_StdPeriph_Driver/src/stm32f10x_tim.c ****   /* Check the parameters */
1903:../Libraries/STM32F10x_StdPeriph_Driver/src/stm32f10x_tim.c ****   assert_param(IS_TIM_LIST3_PERIPH(TIMx));
1904:../Libraries/STM32F10x_StdPeriph_Driver/src/stm32f10x_tim.c ****   assert_param(IS_TIM_OC_POLARITY(TIM_OCPolarity));
1905:../Libraries/STM32F10x_StdPeriph_Driver/src/stm32f10x_tim.c ****   tmpccer = TIMx->CCER;
 24437              		.loc 1 1905 0
 24438 0012 7B68     		ldr	r3, [r7, #4]
 24439 0014 1B8C     		ldrh	r3, [r3, #32]	@ movhi
 24440 0016 FB81     		strh	r3, [r7, #14]	@ movhi
1906:../Libraries/STM32F10x_StdPeriph_Driver/src/stm32f10x_tim.c ****   /* Set or Reset the CC3P Bit */
1907:../Libraries/STM32F10x_StdPeriph_Driver/src/stm32f10x_tim.c ****   tmpccer &= (uint16_t)~((uint16_t)TIM_CCER_CC3P);
 24441              		.loc 1 1907 0
 24442 0018 FB89     		ldrh	r3, [r7, #14]	@ movhi
 24443 001a 23F40073 		bic	r3, r3, #512
 24444 001e FB81     		strh	r3, [r7, #14]	@ movhi
1908:../Libraries/STM32F10x_StdPeriph_Driver/src/stm32f10x_tim.c ****   tmpccer |= (uint16_t)(TIM_OCPolarity << 8);
 24445              		.loc 1 1908 0
 24446 0020 7B88     		ldrh	r3, [r7, #2]	@ movhi
 24447 0022 4FEA0323 		lsl	r3, r3, #8
 24448 0026 9AB2     		uxth	r2, r3
 24449 0028 FB89     		ldrh	r3, [r7, #14]	@ movhi
 24450 002a 42EA0303 		orr	r3, r2, r3
 24451 002e FB81     		strh	r3, [r7, #14]	@ movhi
1909:../Libraries/STM32F10x_StdPeriph_Driver/src/stm32f10x_tim.c ****   /* Write to TIMx CCER register */
1910:../Libraries/STM32F10x_StdPeriph_Driver/src/stm32f10x_tim.c ****   TIMx->CCER = tmpccer;
 24452              		.loc 1 1910 0
 24453 0030 7B68     		ldr	r3, [r7, #4]
 24454 0032 FA89     		ldrh	r2, [r7, #14]	@ movhi
 24455 0034 1A84     		strh	r2, [r3, #32]	@ movhi
1911:../Libraries/STM32F10x_StdPeriph_Driver/src/stm32f10x_tim.c **** }
 24456              		.loc 1 1911 0
 24457 0036 07F11407 		add	r7, r7, #20
 24458 003a BD46     		mov	sp, r7
 24459 003c 80BC     		pop	{r7}
 24460 003e 7047     		bx	lr
 24461              		.cfi_endproc
 24462              	.LFE82:
 24464              		.section	.text.TIM_OC3NPolarityConfig,"ax",%progbits
 24465              		.align	2
 24466              		.global	TIM_OC3NPolarityConfig
 24467              		.thumb
 24468              		.thumb_func
 24470              	TIM_OC3NPolarityConfig:
 24471              	.LFB83:
1912:../Libraries/STM32F10x_StdPeriph_Driver/src/stm32f10x_tim.c **** 
1913:../Libraries/STM32F10x_StdPeriph_Driver/src/stm32f10x_tim.c **** /**
1914:../Libraries/STM32F10x_StdPeriph_Driver/src/stm32f10x_tim.c ****   * @brief  Configures the TIMx Channel 3N polarity.
1915:../Libraries/STM32F10x_StdPeriph_Driver/src/stm32f10x_tim.c ****   * @param  TIMx: where x can be 1 or 8 to select the TIM peripheral.
1916:../Libraries/STM32F10x_StdPeriph_Driver/src/stm32f10x_tim.c ****   * @param  TIM_OCNPolarity: specifies the OC3N Polarity
1917:../Libraries/STM32F10x_StdPeriph_Driver/src/stm32f10x_tim.c ****   *   This parameter can be one of the following values:
1918:../Libraries/STM32F10x_StdPeriph_Driver/src/stm32f10x_tim.c ****   *     @arg TIM_OCNPolarity_High: Output Compare active high
1919:../Libraries/STM32F10x_StdPeriph_Driver/src/stm32f10x_tim.c ****   *     @arg TIM_OCNPolarity_Low: Output Compare active low
1920:../Libraries/STM32F10x_StdPeriph_Driver/src/stm32f10x_tim.c ****   * @retval None
1921:../Libraries/STM32F10x_StdPeriph_Driver/src/stm32f10x_tim.c ****   */
1922:../Libraries/STM32F10x_StdPeriph_Driver/src/stm32f10x_tim.c **** void TIM_OC3NPolarityConfig(TIM_TypeDef* TIMx, uint16_t TIM_OCNPolarity)
1923:../Libraries/STM32F10x_StdPeriph_Driver/src/stm32f10x_tim.c **** {
 24472              		.loc 1 1923 0
 24473              		.cfi_startproc
 24474              		@ args = 0, pretend = 0, frame = 16
 24475              		@ frame_needed = 1, uses_anonymous_args = 0
 24476              		@ link register save eliminated.
 24477 0000 80B4     		push	{r7}
 24478              	.LCFI162:
 24479              		.cfi_def_cfa_offset 4
 24480 0002 85B0     		sub	sp, sp, #20
 24481              	.LCFI163:
 24482              		.cfi_def_cfa_offset 24
 24483 0004 00AF     		add	r7, sp, #0
 24484              		.cfi_offset 7, -4
 24485              	.LCFI164:
 24486              		.cfi_def_cfa_register 7
 24487 0006 7860     		str	r0, [r7, #4]
 24488 0008 0B46     		mov	r3, r1
 24489 000a 7B80     		strh	r3, [r7, #2]	@ movhi
1924:../Libraries/STM32F10x_StdPeriph_Driver/src/stm32f10x_tim.c ****   uint16_t tmpccer = 0;
 24490              		.loc 1 1924 0
 24491 000c 4FF00003 		mov	r3, #0
 24492 0010 FB81     		strh	r3, [r7, #14]	@ movhi
1925:../Libraries/STM32F10x_StdPeriph_Driver/src/stm32f10x_tim.c ****  
1926:../Libraries/STM32F10x_StdPeriph_Driver/src/stm32f10x_tim.c ****   /* Check the parameters */
1927:../Libraries/STM32F10x_StdPeriph_Driver/src/stm32f10x_tim.c ****   assert_param(IS_TIM_LIST1_PERIPH(TIMx));
1928:../Libraries/STM32F10x_StdPeriph_Driver/src/stm32f10x_tim.c ****   assert_param(IS_TIM_OCN_POLARITY(TIM_OCNPolarity));
1929:../Libraries/STM32F10x_StdPeriph_Driver/src/stm32f10x_tim.c ****     
1930:../Libraries/STM32F10x_StdPeriph_Driver/src/stm32f10x_tim.c ****   tmpccer = TIMx->CCER;
 24493              		.loc 1 1930 0
 24494 0012 7B68     		ldr	r3, [r7, #4]
 24495 0014 1B8C     		ldrh	r3, [r3, #32]	@ movhi
 24496 0016 FB81     		strh	r3, [r7, #14]	@ movhi
1931:../Libraries/STM32F10x_StdPeriph_Driver/src/stm32f10x_tim.c ****   /* Set or Reset the CC3NP Bit */
1932:../Libraries/STM32F10x_StdPeriph_Driver/src/stm32f10x_tim.c ****   tmpccer &= (uint16_t)~((uint16_t)TIM_CCER_CC3NP);
 24497              		.loc 1 1932 0
 24498 0018 FB89     		ldrh	r3, [r7, #14]	@ movhi
 24499 001a 23F40063 		bic	r3, r3, #2048
 24500 001e FB81     		strh	r3, [r7, #14]	@ movhi
1933:../Libraries/STM32F10x_StdPeriph_Driver/src/stm32f10x_tim.c ****   tmpccer |= (uint16_t)(TIM_OCNPolarity << 8);
 24501              		.loc 1 1933 0
 24502 0020 7B88     		ldrh	r3, [r7, #2]	@ movhi
 24503 0022 4FEA0323 		lsl	r3, r3, #8
 24504 0026 9AB2     		uxth	r2, r3
 24505 0028 FB89     		ldrh	r3, [r7, #14]	@ movhi
 24506 002a 42EA0303 		orr	r3, r2, r3
 24507 002e FB81     		strh	r3, [r7, #14]	@ movhi
1934:../Libraries/STM32F10x_StdPeriph_Driver/src/stm32f10x_tim.c ****   /* Write to TIMx CCER register */
1935:../Libraries/STM32F10x_StdPeriph_Driver/src/stm32f10x_tim.c ****   TIMx->CCER = tmpccer;
 24508              		.loc 1 1935 0
 24509 0030 7B68     		ldr	r3, [r7, #4]
 24510 0032 FA89     		ldrh	r2, [r7, #14]	@ movhi
 24511 0034 1A84     		strh	r2, [r3, #32]	@ movhi
1936:../Libraries/STM32F10x_StdPeriph_Driver/src/stm32f10x_tim.c **** }
 24512              		.loc 1 1936 0
 24513 0036 07F11407 		add	r7, r7, #20
 24514 003a BD46     		mov	sp, r7
 24515 003c 80BC     		pop	{r7}
 24516 003e 7047     		bx	lr
 24517              		.cfi_endproc
 24518              	.LFE83:
 24520              		.section	.text.TIM_OC4PolarityConfig,"ax",%progbits
 24521              		.align	2
 24522              		.global	TIM_OC4PolarityConfig
 24523              		.thumb
 24524              		.thumb_func
 24526              	TIM_OC4PolarityConfig:
 24527              	.LFB84:
1937:../Libraries/STM32F10x_StdPeriph_Driver/src/stm32f10x_tim.c **** 
1938:../Libraries/STM32F10x_StdPeriph_Driver/src/stm32f10x_tim.c **** /**
1939:../Libraries/STM32F10x_StdPeriph_Driver/src/stm32f10x_tim.c ****   * @brief  Configures the TIMx channel 4 polarity.
1940:../Libraries/STM32F10x_StdPeriph_Driver/src/stm32f10x_tim.c ****   * @param  TIMx: where x can be 1, 2, 3, 4, 5 or 8 to select the TIM peripheral.
1941:../Libraries/STM32F10x_StdPeriph_Driver/src/stm32f10x_tim.c ****   * @param  TIM_OCPolarity: specifies the OC4 Polarity
1942:../Libraries/STM32F10x_StdPeriph_Driver/src/stm32f10x_tim.c ****   *   This parameter can be one of the following values:
1943:../Libraries/STM32F10x_StdPeriph_Driver/src/stm32f10x_tim.c ****   *     @arg TIM_OCPolarity_High: Output Compare active high
1944:../Libraries/STM32F10x_StdPeriph_Driver/src/stm32f10x_tim.c ****   *     @arg TIM_OCPolarity_Low: Output Compare active low
1945:../Libraries/STM32F10x_StdPeriph_Driver/src/stm32f10x_tim.c ****   * @retval None
1946:../Libraries/STM32F10x_StdPeriph_Driver/src/stm32f10x_tim.c ****   */
1947:../Libraries/STM32F10x_StdPeriph_Driver/src/stm32f10x_tim.c **** void TIM_OC4PolarityConfig(TIM_TypeDef* TIMx, uint16_t TIM_OCPolarity)
1948:../Libraries/STM32F10x_StdPeriph_Driver/src/stm32f10x_tim.c **** {
 24528              		.loc 1 1948 0
 24529              		.cfi_startproc
 24530              		@ args = 0, pretend = 0, frame = 16
 24531              		@ frame_needed = 1, uses_anonymous_args = 0
 24532              		@ link register save eliminated.
 24533 0000 80B4     		push	{r7}
 24534              	.LCFI165:
 24535              		.cfi_def_cfa_offset 4
 24536 0002 85B0     		sub	sp, sp, #20
 24537              	.LCFI166:
 24538              		.cfi_def_cfa_offset 24
 24539 0004 00AF     		add	r7, sp, #0
 24540              		.cfi_offset 7, -4
 24541              	.LCFI167:
 24542              		.cfi_def_cfa_register 7
 24543 0006 7860     		str	r0, [r7, #4]
 24544 0008 0B46     		mov	r3, r1
 24545 000a 7B80     		strh	r3, [r7, #2]	@ movhi
1949:../Libraries/STM32F10x_StdPeriph_Driver/src/stm32f10x_tim.c ****   uint16_t tmpccer = 0;
 24546              		.loc 1 1949 0
 24547 000c 4FF00003 		mov	r3, #0
 24548 0010 FB81     		strh	r3, [r7, #14]	@ movhi
1950:../Libraries/STM32F10x_StdPeriph_Driver/src/stm32f10x_tim.c ****   /* Check the parameters */
1951:../Libraries/STM32F10x_StdPeriph_Driver/src/stm32f10x_tim.c ****   assert_param(IS_TIM_LIST3_PERIPH(TIMx));
1952:../Libraries/STM32F10x_StdPeriph_Driver/src/stm32f10x_tim.c ****   assert_param(IS_TIM_OC_POLARITY(TIM_OCPolarity));
1953:../Libraries/STM32F10x_StdPeriph_Driver/src/stm32f10x_tim.c ****   tmpccer = TIMx->CCER;
 24549              		.loc 1 1953 0
 24550 0012 7B68     		ldr	r3, [r7, #4]
 24551 0014 1B8C     		ldrh	r3, [r3, #32]	@ movhi
 24552 0016 FB81     		strh	r3, [r7, #14]	@ movhi
1954:../Libraries/STM32F10x_StdPeriph_Driver/src/stm32f10x_tim.c ****   /* Set or Reset the CC4P Bit */
1955:../Libraries/STM32F10x_StdPeriph_Driver/src/stm32f10x_tim.c ****   tmpccer &= (uint16_t)~((uint16_t)TIM_CCER_CC4P);
 24553              		.loc 1 1955 0
 24554 0018 FB89     		ldrh	r3, [r7, #14]	@ movhi
 24555 001a 23F40053 		bic	r3, r3, #8192
 24556 001e FB81     		strh	r3, [r7, #14]	@ movhi
1956:../Libraries/STM32F10x_StdPeriph_Driver/src/stm32f10x_tim.c ****   tmpccer |= (uint16_t)(TIM_OCPolarity << 12);
 24557              		.loc 1 1956 0
 24558 0020 7B88     		ldrh	r3, [r7, #2]	@ movhi
 24559 0022 4FEA0333 		lsl	r3, r3, #12
 24560 0026 9AB2     		uxth	r2, r3
 24561 0028 FB89     		ldrh	r3, [r7, #14]	@ movhi
 24562 002a 42EA0303 		orr	r3, r2, r3
 24563 002e FB81     		strh	r3, [r7, #14]	@ movhi
1957:../Libraries/STM32F10x_StdPeriph_Driver/src/stm32f10x_tim.c ****   /* Write to TIMx CCER register */
1958:../Libraries/STM32F10x_StdPeriph_Driver/src/stm32f10x_tim.c ****   TIMx->CCER = tmpccer;
 24564              		.loc 1 1958 0
 24565 0030 7B68     		ldr	r3, [r7, #4]
 24566 0032 FA89     		ldrh	r2, [r7, #14]	@ movhi
 24567 0034 1A84     		strh	r2, [r3, #32]	@ movhi
1959:../Libraries/STM32F10x_StdPeriph_Driver/src/stm32f10x_tim.c **** }
 24568              		.loc 1 1959 0
 24569 0036 07F11407 		add	r7, r7, #20
 24570 003a BD46     		mov	sp, r7
 24571 003c 80BC     		pop	{r7}
 24572 003e 7047     		bx	lr
 24573              		.cfi_endproc
 24574              	.LFE84:
 24576              		.section	.text.TIM_CCxCmd,"ax",%progbits
 24577              		.align	2
 24578              		.global	TIM_CCxCmd
 24579              		.thumb
 24580              		.thumb_func
 24582              	TIM_CCxCmd:
 24583              	.LFB85:
1960:../Libraries/STM32F10x_StdPeriph_Driver/src/stm32f10x_tim.c **** 
1961:../Libraries/STM32F10x_StdPeriph_Driver/src/stm32f10x_tim.c **** /**
1962:../Libraries/STM32F10x_StdPeriph_Driver/src/stm32f10x_tim.c ****   * @brief  Enables or disables the TIM Capture Compare Channel x.
1963:../Libraries/STM32F10x_StdPeriph_Driver/src/stm32f10x_tim.c ****   * @param  TIMx: where x can be 1 to 17 except 6 and 7 to select the TIM peripheral.
1964:../Libraries/STM32F10x_StdPeriph_Driver/src/stm32f10x_tim.c ****   * @param  TIM_Channel: specifies the TIM Channel
1965:../Libraries/STM32F10x_StdPeriph_Driver/src/stm32f10x_tim.c ****   *   This parameter can be one of the following values:
1966:../Libraries/STM32F10x_StdPeriph_Driver/src/stm32f10x_tim.c ****   *     @arg TIM_Channel_1: TIM Channel 1
1967:../Libraries/STM32F10x_StdPeriph_Driver/src/stm32f10x_tim.c ****   *     @arg TIM_Channel_2: TIM Channel 2
1968:../Libraries/STM32F10x_StdPeriph_Driver/src/stm32f10x_tim.c ****   *     @arg TIM_Channel_3: TIM Channel 3
1969:../Libraries/STM32F10x_StdPeriph_Driver/src/stm32f10x_tim.c ****   *     @arg TIM_Channel_4: TIM Channel 4
1970:../Libraries/STM32F10x_StdPeriph_Driver/src/stm32f10x_tim.c ****   * @param  TIM_CCx: specifies the TIM Channel CCxE bit new state.
1971:../Libraries/STM32F10x_StdPeriph_Driver/src/stm32f10x_tim.c ****   *   This parameter can be: TIM_CCx_Enable or TIM_CCx_Disable. 
1972:../Libraries/STM32F10x_StdPeriph_Driver/src/stm32f10x_tim.c ****   * @retval None
1973:../Libraries/STM32F10x_StdPeriph_Driver/src/stm32f10x_tim.c ****   */
1974:../Libraries/STM32F10x_StdPeriph_Driver/src/stm32f10x_tim.c **** void TIM_CCxCmd(TIM_TypeDef* TIMx, uint16_t TIM_Channel, uint16_t TIM_CCx)
1975:../Libraries/STM32F10x_StdPeriph_Driver/src/stm32f10x_tim.c **** {
 24584              		.loc 1 1975 0
 24585              		.cfi_startproc
 24586              		@ args = 0, pretend = 0, frame = 16
 24587              		@ frame_needed = 1, uses_anonymous_args = 0
 24588              		@ link register save eliminated.
 24589 0000 80B4     		push	{r7}
 24590              	.LCFI168:
 24591              		.cfi_def_cfa_offset 4
 24592 0002 85B0     		sub	sp, sp, #20
 24593              	.LCFI169:
 24594              		.cfi_def_cfa_offset 24
 24595 0004 00AF     		add	r7, sp, #0
 24596              		.cfi_offset 7, -4
 24597              	.LCFI170:
 24598              		.cfi_def_cfa_register 7
 24599 0006 7860     		str	r0, [r7, #4]
 24600 0008 1346     		mov	r3, r2
 24601 000a 0A46     		mov	r2, r1	@ movhi
 24602 000c 7A80     		strh	r2, [r7, #2]	@ movhi
 24603 000e 3B80     		strh	r3, [r7, #0]	@ movhi
1976:../Libraries/STM32F10x_StdPeriph_Driver/src/stm32f10x_tim.c ****   uint16_t tmp = 0;
 24604              		.loc 1 1976 0
 24605 0010 4FF00003 		mov	r3, #0
 24606 0014 FB81     		strh	r3, [r7, #14]	@ movhi
1977:../Libraries/STM32F10x_StdPeriph_Driver/src/stm32f10x_tim.c **** 
1978:../Libraries/STM32F10x_StdPeriph_Driver/src/stm32f10x_tim.c ****   /* Check the parameters */
1979:../Libraries/STM32F10x_StdPeriph_Driver/src/stm32f10x_tim.c ****   assert_param(IS_TIM_LIST8_PERIPH(TIMx));
1980:../Libraries/STM32F10x_StdPeriph_Driver/src/stm32f10x_tim.c ****   assert_param(IS_TIM_CHANNEL(TIM_Channel));
1981:../Libraries/STM32F10x_StdPeriph_Driver/src/stm32f10x_tim.c ****   assert_param(IS_TIM_CCX(TIM_CCx));
1982:../Libraries/STM32F10x_StdPeriph_Driver/src/stm32f10x_tim.c **** 
1983:../Libraries/STM32F10x_StdPeriph_Driver/src/stm32f10x_tim.c ****   tmp = CCER_CCE_Set << TIM_Channel;
 24607              		.loc 1 1983 0
 24608 0016 7B88     		ldrh	r3, [r7, #2]
 24609 0018 4FF00102 		mov	r2, #1
 24610 001c 02FA03F3 		lsl	r3, r2, r3
 24611 0020 FB81     		strh	r3, [r7, #14]	@ movhi
1984:../Libraries/STM32F10x_StdPeriph_Driver/src/stm32f10x_tim.c **** 
1985:../Libraries/STM32F10x_StdPeriph_Driver/src/stm32f10x_tim.c ****   /* Reset the CCxE Bit */
1986:../Libraries/STM32F10x_StdPeriph_Driver/src/stm32f10x_tim.c ****   TIMx->CCER &= (uint16_t)~ tmp;
 24612              		.loc 1 1986 0
 24613 0022 7B68     		ldr	r3, [r7, #4]
 24614 0024 1B8C     		ldrh	r3, [r3, #32]	@ movhi
 24615 0026 9AB2     		uxth	r2, r3
 24616 0028 FB89     		ldrh	r3, [r7, #14]	@ movhi
 24617 002a 6FEA0303 		mvn	r3, r3
 24618 002e 9BB2     		uxth	r3, r3
 24619 0030 02EA0303 		and	r3, r2, r3
 24620 0034 9AB2     		uxth	r2, r3
 24621 0036 7B68     		ldr	r3, [r7, #4]
 24622 0038 1A84     		strh	r2, [r3, #32]	@ movhi
1987:../Libraries/STM32F10x_StdPeriph_Driver/src/stm32f10x_tim.c **** 
1988:../Libraries/STM32F10x_StdPeriph_Driver/src/stm32f10x_tim.c ****   /* Set or reset the CCxE Bit */ 
1989:../Libraries/STM32F10x_StdPeriph_Driver/src/stm32f10x_tim.c ****   TIMx->CCER |=  (uint16_t)(TIM_CCx << TIM_Channel);
 24623              		.loc 1 1989 0
 24624 003a 7B68     		ldr	r3, [r7, #4]
 24625 003c 1B8C     		ldrh	r3, [r3, #32]	@ movhi
 24626 003e 9AB2     		uxth	r2, r3
 24627 0040 3988     		ldrh	r1, [r7, #0]
 24628 0042 7B88     		ldrh	r3, [r7, #2]
 24629 0044 01FA03F3 		lsl	r3, r1, r3
 24630 0048 9BB2     		uxth	r3, r3
 24631 004a 42EA0303 		orr	r3, r2, r3
 24632 004e 9AB2     		uxth	r2, r3
 24633 0050 7B68     		ldr	r3, [r7, #4]
 24634 0052 1A84     		strh	r2, [r3, #32]	@ movhi
1990:../Libraries/STM32F10x_StdPeriph_Driver/src/stm32f10x_tim.c **** }
 24635              		.loc 1 1990 0
 24636 0054 07F11407 		add	r7, r7, #20
 24637 0058 BD46     		mov	sp, r7
 24638 005a 80BC     		pop	{r7}
 24639 005c 7047     		bx	lr
 24640              		.cfi_endproc
 24641              	.LFE85:
 24643 005e 00BF     		.section	.text.TIM_CCxNCmd,"ax",%progbits
 24644              		.align	2
 24645              		.global	TIM_CCxNCmd
 24646              		.thumb
 24647              		.thumb_func
 24649              	TIM_CCxNCmd:
 24650              	.LFB86:
1991:../Libraries/STM32F10x_StdPeriph_Driver/src/stm32f10x_tim.c **** 
1992:../Libraries/STM32F10x_StdPeriph_Driver/src/stm32f10x_tim.c **** /**
1993:../Libraries/STM32F10x_StdPeriph_Driver/src/stm32f10x_tim.c ****   * @brief  Enables or disables the TIM Capture Compare Channel xN.
1994:../Libraries/STM32F10x_StdPeriph_Driver/src/stm32f10x_tim.c ****   * @param  TIMx: where x can be 1, 8, 15, 16 or 17 to select the TIM peripheral.
1995:../Libraries/STM32F10x_StdPeriph_Driver/src/stm32f10x_tim.c ****   * @param  TIM_Channel: specifies the TIM Channel
1996:../Libraries/STM32F10x_StdPeriph_Driver/src/stm32f10x_tim.c ****   *   This parameter can be one of the following values:
1997:../Libraries/STM32F10x_StdPeriph_Driver/src/stm32f10x_tim.c ****   *     @arg TIM_Channel_1: TIM Channel 1
1998:../Libraries/STM32F10x_StdPeriph_Driver/src/stm32f10x_tim.c ****   *     @arg TIM_Channel_2: TIM Channel 2
1999:../Libraries/STM32F10x_StdPeriph_Driver/src/stm32f10x_tim.c ****   *     @arg TIM_Channel_3: TIM Channel 3
2000:../Libraries/STM32F10x_StdPeriph_Driver/src/stm32f10x_tim.c ****   * @param  TIM_CCxN: specifies the TIM Channel CCxNE bit new state.
2001:../Libraries/STM32F10x_StdPeriph_Driver/src/stm32f10x_tim.c ****   *   This parameter can be: TIM_CCxN_Enable or TIM_CCxN_Disable. 
2002:../Libraries/STM32F10x_StdPeriph_Driver/src/stm32f10x_tim.c ****   * @retval None
2003:../Libraries/STM32F10x_StdPeriph_Driver/src/stm32f10x_tim.c ****   */
2004:../Libraries/STM32F10x_StdPeriph_Driver/src/stm32f10x_tim.c **** void TIM_CCxNCmd(TIM_TypeDef* TIMx, uint16_t TIM_Channel, uint16_t TIM_CCxN)
2005:../Libraries/STM32F10x_StdPeriph_Driver/src/stm32f10x_tim.c **** {
 24651              		.loc 1 2005 0
 24652              		.cfi_startproc
 24653              		@ args = 0, pretend = 0, frame = 16
 24654              		@ frame_needed = 1, uses_anonymous_args = 0
 24655              		@ link register save eliminated.
 24656 0000 80B4     		push	{r7}
 24657              	.LCFI171:
 24658              		.cfi_def_cfa_offset 4
 24659 0002 85B0     		sub	sp, sp, #20
 24660              	.LCFI172:
 24661              		.cfi_def_cfa_offset 24
 24662 0004 00AF     		add	r7, sp, #0
 24663              		.cfi_offset 7, -4
 24664              	.LCFI173:
 24665              		.cfi_def_cfa_register 7
 24666 0006 7860     		str	r0, [r7, #4]
 24667 0008 1346     		mov	r3, r2
 24668 000a 0A46     		mov	r2, r1	@ movhi
 24669 000c 7A80     		strh	r2, [r7, #2]	@ movhi
 24670 000e 3B80     		strh	r3, [r7, #0]	@ movhi
2006:../Libraries/STM32F10x_StdPeriph_Driver/src/stm32f10x_tim.c ****   uint16_t tmp = 0;
 24671              		.loc 1 2006 0
 24672 0010 4FF00003 		mov	r3, #0
 24673 0014 FB81     		strh	r3, [r7, #14]	@ movhi
2007:../Libraries/STM32F10x_StdPeriph_Driver/src/stm32f10x_tim.c **** 
2008:../Libraries/STM32F10x_StdPeriph_Driver/src/stm32f10x_tim.c ****   /* Check the parameters */
2009:../Libraries/STM32F10x_StdPeriph_Driver/src/stm32f10x_tim.c ****   assert_param(IS_TIM_LIST2_PERIPH(TIMx));
2010:../Libraries/STM32F10x_StdPeriph_Driver/src/stm32f10x_tim.c ****   assert_param(IS_TIM_COMPLEMENTARY_CHANNEL(TIM_Channel));
2011:../Libraries/STM32F10x_StdPeriph_Driver/src/stm32f10x_tim.c ****   assert_param(IS_TIM_CCXN(TIM_CCxN));
2012:../Libraries/STM32F10x_StdPeriph_Driver/src/stm32f10x_tim.c **** 
2013:../Libraries/STM32F10x_StdPeriph_Driver/src/stm32f10x_tim.c ****   tmp = CCER_CCNE_Set << TIM_Channel;
 24674              		.loc 1 2013 0
 24675 0016 7B88     		ldrh	r3, [r7, #2]
 24676 0018 4FF00402 		mov	r2, #4
 24677 001c 02FA03F3 		lsl	r3, r2, r3
 24678 0020 FB81     		strh	r3, [r7, #14]	@ movhi
2014:../Libraries/STM32F10x_StdPeriph_Driver/src/stm32f10x_tim.c **** 
2015:../Libraries/STM32F10x_StdPeriph_Driver/src/stm32f10x_tim.c ****   /* Reset the CCxNE Bit */
2016:../Libraries/STM32F10x_StdPeriph_Driver/src/stm32f10x_tim.c ****   TIMx->CCER &= (uint16_t) ~tmp;
 24679              		.loc 1 2016 0
 24680 0022 7B68     		ldr	r3, [r7, #4]
 24681 0024 1B8C     		ldrh	r3, [r3, #32]	@ movhi
 24682 0026 9AB2     		uxth	r2, r3
 24683 0028 FB89     		ldrh	r3, [r7, #14]	@ movhi
 24684 002a 6FEA0303 		mvn	r3, r3
 24685 002e 9BB2     		uxth	r3, r3
 24686 0030 02EA0303 		and	r3, r2, r3
 24687 0034 9AB2     		uxth	r2, r3
 24688 0036 7B68     		ldr	r3, [r7, #4]
 24689 0038 1A84     		strh	r2, [r3, #32]	@ movhi
2017:../Libraries/STM32F10x_StdPeriph_Driver/src/stm32f10x_tim.c **** 
2018:../Libraries/STM32F10x_StdPeriph_Driver/src/stm32f10x_tim.c ****   /* Set or reset the CCxNE Bit */ 
2019:../Libraries/STM32F10x_StdPeriph_Driver/src/stm32f10x_tim.c ****   TIMx->CCER |=  (uint16_t)(TIM_CCxN << TIM_Channel);
 24690              		.loc 1 2019 0
 24691 003a 7B68     		ldr	r3, [r7, #4]
 24692 003c 1B8C     		ldrh	r3, [r3, #32]	@ movhi
 24693 003e 9AB2     		uxth	r2, r3
 24694 0040 3988     		ldrh	r1, [r7, #0]
 24695 0042 7B88     		ldrh	r3, [r7, #2]
 24696 0044 01FA03F3 		lsl	r3, r1, r3
 24697 0048 9BB2     		uxth	r3, r3
 24698 004a 42EA0303 		orr	r3, r2, r3
 24699 004e 9AB2     		uxth	r2, r3
 24700 0050 7B68     		ldr	r3, [r7, #4]
 24701 0052 1A84     		strh	r2, [r3, #32]	@ movhi
2020:../Libraries/STM32F10x_StdPeriph_Driver/src/stm32f10x_tim.c **** }
 24702              		.loc 1 2020 0
 24703 0054 07F11407 		add	r7, r7, #20
 24704 0058 BD46     		mov	sp, r7
 24705 005a 80BC     		pop	{r7}
 24706 005c 7047     		bx	lr
 24707              		.cfi_endproc
 24708              	.LFE86:
 24710 005e 00BF     		.section	.text.TIM_SelectOCxM,"ax",%progbits
 24711              		.align	2
 24712              		.global	TIM_SelectOCxM
 24713              		.thumb
 24714              		.thumb_func
 24716              	TIM_SelectOCxM:
 24717              	.LFB87:
2021:../Libraries/STM32F10x_StdPeriph_Driver/src/stm32f10x_tim.c **** 
2022:../Libraries/STM32F10x_StdPeriph_Driver/src/stm32f10x_tim.c **** /**
2023:../Libraries/STM32F10x_StdPeriph_Driver/src/stm32f10x_tim.c ****   * @brief  Selects the TIM Output Compare Mode.
2024:../Libraries/STM32F10x_StdPeriph_Driver/src/stm32f10x_tim.c ****   * @note   This function disables the selected channel before changing the Output
2025:../Libraries/STM32F10x_StdPeriph_Driver/src/stm32f10x_tim.c ****   *         Compare Mode.
2026:../Libraries/STM32F10x_StdPeriph_Driver/src/stm32f10x_tim.c ****   *         User has to enable this channel using TIM_CCxCmd and TIM_CCxNCmd functions.
2027:../Libraries/STM32F10x_StdPeriph_Driver/src/stm32f10x_tim.c ****   * @param  TIMx: where x can be 1 to 17 except 6 and 7 to select the TIM peripheral.
2028:../Libraries/STM32F10x_StdPeriph_Driver/src/stm32f10x_tim.c ****   * @param  TIM_Channel: specifies the TIM Channel
2029:../Libraries/STM32F10x_StdPeriph_Driver/src/stm32f10x_tim.c ****   *   This parameter can be one of the following values:
2030:../Libraries/STM32F10x_StdPeriph_Driver/src/stm32f10x_tim.c ****   *     @arg TIM_Channel_1: TIM Channel 1
2031:../Libraries/STM32F10x_StdPeriph_Driver/src/stm32f10x_tim.c ****   *     @arg TIM_Channel_2: TIM Channel 2
2032:../Libraries/STM32F10x_StdPeriph_Driver/src/stm32f10x_tim.c ****   *     @arg TIM_Channel_3: TIM Channel 3
2033:../Libraries/STM32F10x_StdPeriph_Driver/src/stm32f10x_tim.c ****   *     @arg TIM_Channel_4: TIM Channel 4
2034:../Libraries/STM32F10x_StdPeriph_Driver/src/stm32f10x_tim.c ****   * @param  TIM_OCMode: specifies the TIM Output Compare Mode.
2035:../Libraries/STM32F10x_StdPeriph_Driver/src/stm32f10x_tim.c ****   *   This parameter can be one of the following values:
2036:../Libraries/STM32F10x_StdPeriph_Driver/src/stm32f10x_tim.c ****   *     @arg TIM_OCMode_Timing
2037:../Libraries/STM32F10x_StdPeriph_Driver/src/stm32f10x_tim.c ****   *     @arg TIM_OCMode_Active
2038:../Libraries/STM32F10x_StdPeriph_Driver/src/stm32f10x_tim.c ****   *     @arg TIM_OCMode_Toggle
2039:../Libraries/STM32F10x_StdPeriph_Driver/src/stm32f10x_tim.c ****   *     @arg TIM_OCMode_PWM1
2040:../Libraries/STM32F10x_StdPeriph_Driver/src/stm32f10x_tim.c ****   *     @arg TIM_OCMode_PWM2
2041:../Libraries/STM32F10x_StdPeriph_Driver/src/stm32f10x_tim.c ****   *     @arg TIM_ForcedAction_Active
2042:../Libraries/STM32F10x_StdPeriph_Driver/src/stm32f10x_tim.c ****   *     @arg TIM_ForcedAction_InActive
2043:../Libraries/STM32F10x_StdPeriph_Driver/src/stm32f10x_tim.c ****   * @retval None
2044:../Libraries/STM32F10x_StdPeriph_Driver/src/stm32f10x_tim.c ****   */
2045:../Libraries/STM32F10x_StdPeriph_Driver/src/stm32f10x_tim.c **** void TIM_SelectOCxM(TIM_TypeDef* TIMx, uint16_t TIM_Channel, uint16_t TIM_OCMode)
2046:../Libraries/STM32F10x_StdPeriph_Driver/src/stm32f10x_tim.c **** {
 24718              		.loc 1 2046 0
 24719              		.cfi_startproc
 24720              		@ args = 0, pretend = 0, frame = 16
 24721              		@ frame_needed = 1, uses_anonymous_args = 0
 24722              		@ link register save eliminated.
 24723 0000 80B4     		push	{r7}
 24724              	.LCFI174:
 24725              		.cfi_def_cfa_offset 4
 24726 0002 85B0     		sub	sp, sp, #20
 24727              	.LCFI175:
 24728              		.cfi_def_cfa_offset 24
 24729 0004 00AF     		add	r7, sp, #0
 24730              		.cfi_offset 7, -4
 24731              	.LCFI176:
 24732              		.cfi_def_cfa_register 7
 24733 0006 7860     		str	r0, [r7, #4]
 24734 0008 1346     		mov	r3, r2
 24735 000a 0A46     		mov	r2, r1	@ movhi
 24736 000c 7A80     		strh	r2, [r7, #2]	@ movhi
 24737 000e 3B80     		strh	r3, [r7, #0]	@ movhi
2047:../Libraries/STM32F10x_StdPeriph_Driver/src/stm32f10x_tim.c ****   uint32_t tmp = 0;
 24738              		.loc 1 2047 0
 24739 0010 4FF00003 		mov	r3, #0
 24740 0014 FB60     		str	r3, [r7, #12]
2048:../Libraries/STM32F10x_StdPeriph_Driver/src/stm32f10x_tim.c ****   uint16_t tmp1 = 0;
 24741              		.loc 1 2048 0
 24742 0016 4FF00003 		mov	r3, #0
 24743 001a 7B81     		strh	r3, [r7, #10]	@ movhi
2049:../Libraries/STM32F10x_StdPeriph_Driver/src/stm32f10x_tim.c **** 
2050:../Libraries/STM32F10x_StdPeriph_Driver/src/stm32f10x_tim.c ****   /* Check the parameters */
2051:../Libraries/STM32F10x_StdPeriph_Driver/src/stm32f10x_tim.c ****   assert_param(IS_TIM_LIST8_PERIPH(TIMx));
2052:../Libraries/STM32F10x_StdPeriph_Driver/src/stm32f10x_tim.c ****   assert_param(IS_TIM_CHANNEL(TIM_Channel));
2053:../Libraries/STM32F10x_StdPeriph_Driver/src/stm32f10x_tim.c ****   assert_param(IS_TIM_OCM(TIM_OCMode));
2054:../Libraries/STM32F10x_StdPeriph_Driver/src/stm32f10x_tim.c **** 
2055:../Libraries/STM32F10x_StdPeriph_Driver/src/stm32f10x_tim.c ****   tmp = (uint32_t) TIMx;
 24744              		.loc 1 2055 0
 24745 001c 7B68     		ldr	r3, [r7, #4]
 24746 001e FB60     		str	r3, [r7, #12]
2056:../Libraries/STM32F10x_StdPeriph_Driver/src/stm32f10x_tim.c ****   tmp += CCMR_Offset;
 24747              		.loc 1 2056 0
 24748 0020 FB68     		ldr	r3, [r7, #12]
 24749 0022 03F11803 		add	r3, r3, #24
 24750 0026 FB60     		str	r3, [r7, #12]
2057:../Libraries/STM32F10x_StdPeriph_Driver/src/stm32f10x_tim.c **** 
2058:../Libraries/STM32F10x_StdPeriph_Driver/src/stm32f10x_tim.c ****   tmp1 = CCER_CCE_Set << (uint16_t)TIM_Channel;
 24751              		.loc 1 2058 0
 24752 0028 7B88     		ldrh	r3, [r7, #2]
 24753 002a 4FF00102 		mov	r2, #1
 24754 002e 02FA03F3 		lsl	r3, r2, r3
 24755 0032 7B81     		strh	r3, [r7, #10]	@ movhi
2059:../Libraries/STM32F10x_StdPeriph_Driver/src/stm32f10x_tim.c **** 
2060:../Libraries/STM32F10x_StdPeriph_Driver/src/stm32f10x_tim.c ****   /* Disable the Channel: Reset the CCxE Bit */
2061:../Libraries/STM32F10x_StdPeriph_Driver/src/stm32f10x_tim.c ****   TIMx->CCER &= (uint16_t) ~tmp1;
 24756              		.loc 1 2061 0
 24757 0034 7B68     		ldr	r3, [r7, #4]
 24758 0036 1B8C     		ldrh	r3, [r3, #32]	@ movhi
 24759 0038 9AB2     		uxth	r2, r3
 24760 003a 7B89     		ldrh	r3, [r7, #10]	@ movhi
 24761 003c 6FEA0303 		mvn	r3, r3
 24762 0040 9BB2     		uxth	r3, r3
 24763 0042 02EA0303 		and	r3, r2, r3
 24764 0046 9AB2     		uxth	r2, r3
 24765 0048 7B68     		ldr	r3, [r7, #4]
 24766 004a 1A84     		strh	r2, [r3, #32]	@ movhi
2062:../Libraries/STM32F10x_StdPeriph_Driver/src/stm32f10x_tim.c **** 
2063:../Libraries/STM32F10x_StdPeriph_Driver/src/stm32f10x_tim.c ****   if((TIM_Channel == TIM_Channel_1) ||(TIM_Channel == TIM_Channel_3))
 24767              		.loc 1 2063 0
 24768 004c 7B88     		ldrh	r3, [r7, #2]
 24769 004e 002B     		cmp	r3, #0
 24770 0050 02D0     		beq	.L130
 24771              		.loc 1 2063 0 is_stmt 0 discriminator 1
 24772 0052 7B88     		ldrh	r3, [r7, #2]
 24773 0054 082B     		cmp	r3, #8
 24774 0056 14D1     		bne	.L131
 24775              	.L130:
2064:../Libraries/STM32F10x_StdPeriph_Driver/src/stm32f10x_tim.c ****   {
2065:../Libraries/STM32F10x_StdPeriph_Driver/src/stm32f10x_tim.c ****     tmp += (TIM_Channel>>1);
 24776              		.loc 1 2065 0 is_stmt 1
 24777 0058 7B88     		ldrh	r3, [r7, #2]
 24778 005a 4FEA5303 		lsr	r3, r3, #1
 24779 005e 9BB2     		uxth	r3, r3
 24780 0060 FA68     		ldr	r2, [r7, #12]
 24781 0062 D318     		adds	r3, r2, r3
 24782 0064 FB60     		str	r3, [r7, #12]
2066:../Libraries/STM32F10x_StdPeriph_Driver/src/stm32f10x_tim.c **** 
2067:../Libraries/STM32F10x_StdPeriph_Driver/src/stm32f10x_tim.c ****     /* Reset the OCxM bits in the CCMRx register */
2068:../Libraries/STM32F10x_StdPeriph_Driver/src/stm32f10x_tim.c ****     *(__IO uint32_t *) tmp &= (uint32_t)~((uint32_t)TIM_CCMR1_OC1M);
 24783              		.loc 1 2068 0
 24784 0066 FB68     		ldr	r3, [r7, #12]
 24785 0068 FA68     		ldr	r2, [r7, #12]
 24786 006a 1268     		ldr	r2, [r2, #0]
 24787 006c 22F07002 		bic	r2, r2, #112
 24788 0070 1A60     		str	r2, [r3, #0]
2069:../Libraries/STM32F10x_StdPeriph_Driver/src/stm32f10x_tim.c ****    
2070:../Libraries/STM32F10x_StdPeriph_Driver/src/stm32f10x_tim.c ****     /* Configure the OCxM bits in the CCMRx register */
2071:../Libraries/STM32F10x_StdPeriph_Driver/src/stm32f10x_tim.c ****     *(__IO uint32_t *) tmp |= TIM_OCMode;
 24789              		.loc 1 2071 0
 24790 0072 FB68     		ldr	r3, [r7, #12]
 24791 0074 FA68     		ldr	r2, [r7, #12]
 24792 0076 1168     		ldr	r1, [r2, #0]
 24793 0078 3A88     		ldrh	r2, [r7, #0]
 24794 007a 41EA0202 		orr	r2, r1, r2
 24795 007e 1A60     		str	r2, [r3, #0]
 24796 0080 19E0     		b	.L129
 24797              	.L131:
2072:../Libraries/STM32F10x_StdPeriph_Driver/src/stm32f10x_tim.c ****   }
2073:../Libraries/STM32F10x_StdPeriph_Driver/src/stm32f10x_tim.c ****   else
2074:../Libraries/STM32F10x_StdPeriph_Driver/src/stm32f10x_tim.c ****   {
2075:../Libraries/STM32F10x_StdPeriph_Driver/src/stm32f10x_tim.c ****     tmp += (uint16_t)(TIM_Channel - (uint16_t)4)>> (uint16_t)1;
 24798              		.loc 1 2075 0
 24799 0082 7B88     		ldrh	r3, [r7, #2]	@ movhi
 24800 0084 A3F10403 		sub	r3, r3, #4
 24801 0088 9BB2     		uxth	r3, r3
 24802 008a 4FEA5303 		lsr	r3, r3, #1
 24803 008e 9BB2     		uxth	r3, r3
 24804 0090 FA68     		ldr	r2, [r7, #12]
 24805 0092 D318     		adds	r3, r2, r3
 24806 0094 FB60     		str	r3, [r7, #12]
2076:../Libraries/STM32F10x_StdPeriph_Driver/src/stm32f10x_tim.c **** 
2077:../Libraries/STM32F10x_StdPeriph_Driver/src/stm32f10x_tim.c ****     /* Reset the OCxM bits in the CCMRx register */
2078:../Libraries/STM32F10x_StdPeriph_Driver/src/stm32f10x_tim.c ****     *(__IO uint32_t *) tmp &= (uint32_t)~((uint32_t)TIM_CCMR1_OC2M);
 24807              		.loc 1 2078 0
 24808 0096 FB68     		ldr	r3, [r7, #12]
 24809 0098 FA68     		ldr	r2, [r7, #12]
 24810 009a 1268     		ldr	r2, [r2, #0]
 24811 009c 22F4E042 		bic	r2, r2, #28672
 24812 00a0 1A60     		str	r2, [r3, #0]
2079:../Libraries/STM32F10x_StdPeriph_Driver/src/stm32f10x_tim.c ****     
2080:../Libraries/STM32F10x_StdPeriph_Driver/src/stm32f10x_tim.c ****     /* Configure the OCxM bits in the CCMRx register */
2081:../Libraries/STM32F10x_StdPeriph_Driver/src/stm32f10x_tim.c ****     *(__IO uint32_t *) tmp |= (uint16_t)(TIM_OCMode << 8);
 24813              		.loc 1 2081 0
 24814 00a2 FB68     		ldr	r3, [r7, #12]
 24815 00a4 FA68     		ldr	r2, [r7, #12]
 24816 00a6 1168     		ldr	r1, [r2, #0]
 24817 00a8 3A88     		ldrh	r2, [r7, #0]	@ movhi
 24818 00aa 4FEA0222 		lsl	r2, r2, #8
 24819 00ae 92B2     		uxth	r2, r2
 24820 00b0 41EA0202 		orr	r2, r1, r2
 24821 00b4 1A60     		str	r2, [r3, #0]
 24822              	.L129:
2082:../Libraries/STM32F10x_StdPeriph_Driver/src/stm32f10x_tim.c ****   }
2083:../Libraries/STM32F10x_StdPeriph_Driver/src/stm32f10x_tim.c **** }
 24823              		.loc 1 2083 0
 24824 00b6 07F11407 		add	r7, r7, #20
 24825 00ba BD46     		mov	sp, r7
 24826 00bc 80BC     		pop	{r7}
 24827 00be 7047     		bx	lr
 24828              		.cfi_endproc
 24829              	.LFE87:
 24831              		.section	.text.TIM_UpdateDisableConfig,"ax",%progbits
 24832              		.align	2
 24833              		.global	TIM_UpdateDisableConfig
 24834              		.thumb
 24835              		.thumb_func
 24837              	TIM_UpdateDisableConfig:
 24838              	.LFB88:
2084:../Libraries/STM32F10x_StdPeriph_Driver/src/stm32f10x_tim.c **** 
2085:../Libraries/STM32F10x_StdPeriph_Driver/src/stm32f10x_tim.c **** /**
2086:../Libraries/STM32F10x_StdPeriph_Driver/src/stm32f10x_tim.c ****   * @brief  Enables or Disables the TIMx Update event.
2087:../Libraries/STM32F10x_StdPeriph_Driver/src/stm32f10x_tim.c ****   * @param  TIMx: where x can be 1 to 17 to select the TIM peripheral.
2088:../Libraries/STM32F10x_StdPeriph_Driver/src/stm32f10x_tim.c ****   * @param  NewState: new state of the TIMx UDIS bit
2089:../Libraries/STM32F10x_StdPeriph_Driver/src/stm32f10x_tim.c ****   *   This parameter can be: ENABLE or DISABLE.
2090:../Libraries/STM32F10x_StdPeriph_Driver/src/stm32f10x_tim.c ****   * @retval None
2091:../Libraries/STM32F10x_StdPeriph_Driver/src/stm32f10x_tim.c ****   */
2092:../Libraries/STM32F10x_StdPeriph_Driver/src/stm32f10x_tim.c **** void TIM_UpdateDisableConfig(TIM_TypeDef* TIMx, FunctionalState NewState)
2093:../Libraries/STM32F10x_StdPeriph_Driver/src/stm32f10x_tim.c **** {
 24839              		.loc 1 2093 0
 24840              		.cfi_startproc
 24841              		@ args = 0, pretend = 0, frame = 8
 24842              		@ frame_needed = 1, uses_anonymous_args = 0
 24843              		@ link register save eliminated.
 24844 0000 80B4     		push	{r7}
 24845              	.LCFI177:
 24846              		.cfi_def_cfa_offset 4
 24847 0002 83B0     		sub	sp, sp, #12
 24848              	.LCFI178:
 24849              		.cfi_def_cfa_offset 16
 24850 0004 00AF     		add	r7, sp, #0
 24851              		.cfi_offset 7, -4
 24852              	.LCFI179:
 24853              		.cfi_def_cfa_register 7
 24854 0006 7860     		str	r0, [r7, #4]
 24855 0008 0B46     		mov	r3, r1
 24856 000a FB70     		strb	r3, [r7, #3]
2094:../Libraries/STM32F10x_StdPeriph_Driver/src/stm32f10x_tim.c ****   /* Check the parameters */
2095:../Libraries/STM32F10x_StdPeriph_Driver/src/stm32f10x_tim.c ****   assert_param(IS_TIM_ALL_PERIPH(TIMx));
2096:../Libraries/STM32F10x_StdPeriph_Driver/src/stm32f10x_tim.c ****   assert_param(IS_FUNCTIONAL_STATE(NewState));
2097:../Libraries/STM32F10x_StdPeriph_Driver/src/stm32f10x_tim.c ****   if (NewState != DISABLE)
 24857              		.loc 1 2097 0
 24858 000c FB78     		ldrb	r3, [r7, #3]	@ zero_extendqisi2
 24859 000e 002B     		cmp	r3, #0
 24860 0010 08D0     		beq	.L134
2098:../Libraries/STM32F10x_StdPeriph_Driver/src/stm32f10x_tim.c ****   {
2099:../Libraries/STM32F10x_StdPeriph_Driver/src/stm32f10x_tim.c ****     /* Set the Update Disable Bit */
2100:../Libraries/STM32F10x_StdPeriph_Driver/src/stm32f10x_tim.c ****     TIMx->CR1 |= TIM_CR1_UDIS;
 24861              		.loc 1 2100 0
 24862 0012 7B68     		ldr	r3, [r7, #4]
 24863 0014 1B88     		ldrh	r3, [r3, #0]	@ movhi
 24864 0016 9BB2     		uxth	r3, r3
 24865 0018 43F00203 		orr	r3, r3, #2
 24866 001c 9AB2     		uxth	r2, r3
 24867 001e 7B68     		ldr	r3, [r7, #4]
 24868 0020 1A80     		strh	r2, [r3, #0]	@ movhi
 24869 0022 07E0     		b	.L133
 24870              	.L134:
2101:../Libraries/STM32F10x_StdPeriph_Driver/src/stm32f10x_tim.c ****   }
2102:../Libraries/STM32F10x_StdPeriph_Driver/src/stm32f10x_tim.c ****   else
2103:../Libraries/STM32F10x_StdPeriph_Driver/src/stm32f10x_tim.c ****   {
2104:../Libraries/STM32F10x_StdPeriph_Driver/src/stm32f10x_tim.c ****     /* Reset the Update Disable Bit */
2105:../Libraries/STM32F10x_StdPeriph_Driver/src/stm32f10x_tim.c ****     TIMx->CR1 &= (uint16_t)~((uint16_t)TIM_CR1_UDIS);
 24871              		.loc 1 2105 0
 24872 0024 7B68     		ldr	r3, [r7, #4]
 24873 0026 1B88     		ldrh	r3, [r3, #0]	@ movhi
 24874 0028 9BB2     		uxth	r3, r3
 24875 002a 23F00203 		bic	r3, r3, #2
 24876 002e 9AB2     		uxth	r2, r3
 24877 0030 7B68     		ldr	r3, [r7, #4]
 24878 0032 1A80     		strh	r2, [r3, #0]	@ movhi
 24879              	.L133:
2106:../Libraries/STM32F10x_StdPeriph_Driver/src/stm32f10x_tim.c ****   }
2107:../Libraries/STM32F10x_StdPeriph_Driver/src/stm32f10x_tim.c **** }
 24880              		.loc 1 2107 0
 24881 0034 07F10C07 		add	r7, r7, #12
 24882 0038 BD46     		mov	sp, r7
 24883 003a 80BC     		pop	{r7}
 24884 003c 7047     		bx	lr
 24885              		.cfi_endproc
 24886              	.LFE88:
 24888 003e 00BF     		.section	.text.TIM_UpdateRequestConfig,"ax",%progbits
 24889              		.align	2
 24890              		.global	TIM_UpdateRequestConfig
 24891              		.thumb
 24892              		.thumb_func
 24894              	TIM_UpdateRequestConfig:
 24895              	.LFB89:
2108:../Libraries/STM32F10x_StdPeriph_Driver/src/stm32f10x_tim.c **** 
2109:../Libraries/STM32F10x_StdPeriph_Driver/src/stm32f10x_tim.c **** /**
2110:../Libraries/STM32F10x_StdPeriph_Driver/src/stm32f10x_tim.c ****   * @brief  Configures the TIMx Update Request Interrupt source.
2111:../Libraries/STM32F10x_StdPeriph_Driver/src/stm32f10x_tim.c ****   * @param  TIMx: where x can be 1 to 17 to select the TIM peripheral.
2112:../Libraries/STM32F10x_StdPeriph_Driver/src/stm32f10x_tim.c ****   * @param  TIM_UpdateSource: specifies the Update source.
2113:../Libraries/STM32F10x_StdPeriph_Driver/src/stm32f10x_tim.c ****   *   This parameter can be one of the following values:
2114:../Libraries/STM32F10x_StdPeriph_Driver/src/stm32f10x_tim.c ****   *     @arg TIM_UpdateSource_Regular: Source of update is the counter overflow/underflow
2115:../Libraries/STM32F10x_StdPeriph_Driver/src/stm32f10x_tim.c ****                                        or the setting of UG bit, or an update generation
2116:../Libraries/STM32F10x_StdPeriph_Driver/src/stm32f10x_tim.c ****                                        through the slave mode controller.
2117:../Libraries/STM32F10x_StdPeriph_Driver/src/stm32f10x_tim.c ****   *     @arg TIM_UpdateSource_Global: Source of update is counter overflow/underflow.
2118:../Libraries/STM32F10x_StdPeriph_Driver/src/stm32f10x_tim.c ****   * @retval None
2119:../Libraries/STM32F10x_StdPeriph_Driver/src/stm32f10x_tim.c ****   */
2120:../Libraries/STM32F10x_StdPeriph_Driver/src/stm32f10x_tim.c **** void TIM_UpdateRequestConfig(TIM_TypeDef* TIMx, uint16_t TIM_UpdateSource)
2121:../Libraries/STM32F10x_StdPeriph_Driver/src/stm32f10x_tim.c **** {
 24896              		.loc 1 2121 0
 24897              		.cfi_startproc
 24898              		@ args = 0, pretend = 0, frame = 8
 24899              		@ frame_needed = 1, uses_anonymous_args = 0
 24900              		@ link register save eliminated.
 24901 0000 80B4     		push	{r7}
 24902              	.LCFI180:
 24903              		.cfi_def_cfa_offset 4
 24904 0002 83B0     		sub	sp, sp, #12
 24905              	.LCFI181:
 24906              		.cfi_def_cfa_offset 16
 24907 0004 00AF     		add	r7, sp, #0
 24908              		.cfi_offset 7, -4
 24909              	.LCFI182:
 24910              		.cfi_def_cfa_register 7
 24911 0006 7860     		str	r0, [r7, #4]
 24912 0008 0B46     		mov	r3, r1
 24913 000a 7B80     		strh	r3, [r7, #2]	@ movhi
2122:../Libraries/STM32F10x_StdPeriph_Driver/src/stm32f10x_tim.c ****   /* Check the parameters */
2123:../Libraries/STM32F10x_StdPeriph_Driver/src/stm32f10x_tim.c ****   assert_param(IS_TIM_ALL_PERIPH(TIMx));
2124:../Libraries/STM32F10x_StdPeriph_Driver/src/stm32f10x_tim.c ****   assert_param(IS_TIM_UPDATE_SOURCE(TIM_UpdateSource));
2125:../Libraries/STM32F10x_StdPeriph_Driver/src/stm32f10x_tim.c ****   if (TIM_UpdateSource != TIM_UpdateSource_Global)
 24914              		.loc 1 2125 0
 24915 000c 7B88     		ldrh	r3, [r7, #2]
 24916 000e 002B     		cmp	r3, #0
 24917 0010 08D0     		beq	.L137
2126:../Libraries/STM32F10x_StdPeriph_Driver/src/stm32f10x_tim.c ****   {
2127:../Libraries/STM32F10x_StdPeriph_Driver/src/stm32f10x_tim.c ****     /* Set the URS Bit */
2128:../Libraries/STM32F10x_StdPeriph_Driver/src/stm32f10x_tim.c ****     TIMx->CR1 |= TIM_CR1_URS;
 24918              		.loc 1 2128 0
 24919 0012 7B68     		ldr	r3, [r7, #4]
 24920 0014 1B88     		ldrh	r3, [r3, #0]	@ movhi
 24921 0016 9BB2     		uxth	r3, r3
 24922 0018 43F00403 		orr	r3, r3, #4
 24923 001c 9AB2     		uxth	r2, r3
 24924 001e 7B68     		ldr	r3, [r7, #4]
 24925 0020 1A80     		strh	r2, [r3, #0]	@ movhi
 24926 0022 07E0     		b	.L136
 24927              	.L137:
2129:../Libraries/STM32F10x_StdPeriph_Driver/src/stm32f10x_tim.c ****   }
2130:../Libraries/STM32F10x_StdPeriph_Driver/src/stm32f10x_tim.c ****   else
2131:../Libraries/STM32F10x_StdPeriph_Driver/src/stm32f10x_tim.c ****   {
2132:../Libraries/STM32F10x_StdPeriph_Driver/src/stm32f10x_tim.c ****     /* Reset the URS Bit */
2133:../Libraries/STM32F10x_StdPeriph_Driver/src/stm32f10x_tim.c ****     TIMx->CR1 &= (uint16_t)~((uint16_t)TIM_CR1_URS);
 24928              		.loc 1 2133 0
 24929 0024 7B68     		ldr	r3, [r7, #4]
 24930 0026 1B88     		ldrh	r3, [r3, #0]	@ movhi
 24931 0028 9BB2     		uxth	r3, r3
 24932 002a 23F00403 		bic	r3, r3, #4
 24933 002e 9AB2     		uxth	r2, r3
 24934 0030 7B68     		ldr	r3, [r7, #4]
 24935 0032 1A80     		strh	r2, [r3, #0]	@ movhi
 24936              	.L136:
2134:../Libraries/STM32F10x_StdPeriph_Driver/src/stm32f10x_tim.c ****   }
2135:../Libraries/STM32F10x_StdPeriph_Driver/src/stm32f10x_tim.c **** }
 24937              		.loc 1 2135 0
 24938 0034 07F10C07 		add	r7, r7, #12
 24939 0038 BD46     		mov	sp, r7
 24940 003a 80BC     		pop	{r7}
 24941 003c 7047     		bx	lr
 24942              		.cfi_endproc
 24943              	.LFE89:
 24945 003e 00BF     		.section	.text.TIM_SelectHallSensor,"ax",%progbits
 24946              		.align	2
 24947              		.global	TIM_SelectHallSensor
 24948              		.thumb
 24949              		.thumb_func
 24951              	TIM_SelectHallSensor:
 24952              	.LFB90:
2136:../Libraries/STM32F10x_StdPeriph_Driver/src/stm32f10x_tim.c **** 
2137:../Libraries/STM32F10x_StdPeriph_Driver/src/stm32f10x_tim.c **** /**
2138:../Libraries/STM32F10x_StdPeriph_Driver/src/stm32f10x_tim.c ****   * @brief  Enables or disables the TIMx's Hall sensor interface.
2139:../Libraries/STM32F10x_StdPeriph_Driver/src/stm32f10x_tim.c ****   * @param  TIMx: where x can be 1, 2, 3, 4, 5 or 8 to select the TIM peripheral.
2140:../Libraries/STM32F10x_StdPeriph_Driver/src/stm32f10x_tim.c ****   * @param  NewState: new state of the TIMx Hall sensor interface.
2141:../Libraries/STM32F10x_StdPeriph_Driver/src/stm32f10x_tim.c ****   *   This parameter can be: ENABLE or DISABLE.
2142:../Libraries/STM32F10x_StdPeriph_Driver/src/stm32f10x_tim.c ****   * @retval None
2143:../Libraries/STM32F10x_StdPeriph_Driver/src/stm32f10x_tim.c ****   */
2144:../Libraries/STM32F10x_StdPeriph_Driver/src/stm32f10x_tim.c **** void TIM_SelectHallSensor(TIM_TypeDef* TIMx, FunctionalState NewState)
2145:../Libraries/STM32F10x_StdPeriph_Driver/src/stm32f10x_tim.c **** {
 24953              		.loc 1 2145 0
 24954              		.cfi_startproc
 24955              		@ args = 0, pretend = 0, frame = 8
 24956              		@ frame_needed = 1, uses_anonymous_args = 0
 24957              		@ link register save eliminated.
 24958 0000 80B4     		push	{r7}
 24959              	.LCFI183:
 24960              		.cfi_def_cfa_offset 4
 24961 0002 83B0     		sub	sp, sp, #12
 24962              	.LCFI184:
 24963              		.cfi_def_cfa_offset 16
 24964 0004 00AF     		add	r7, sp, #0
 24965              		.cfi_offset 7, -4
 24966              	.LCFI185:
 24967              		.cfi_def_cfa_register 7
 24968 0006 7860     		str	r0, [r7, #4]
 24969 0008 0B46     		mov	r3, r1
 24970 000a FB70     		strb	r3, [r7, #3]
2146:../Libraries/STM32F10x_StdPeriph_Driver/src/stm32f10x_tim.c ****   /* Check the parameters */
2147:../Libraries/STM32F10x_StdPeriph_Driver/src/stm32f10x_tim.c ****   assert_param(IS_TIM_LIST6_PERIPH(TIMx));
2148:../Libraries/STM32F10x_StdPeriph_Driver/src/stm32f10x_tim.c ****   assert_param(IS_FUNCTIONAL_STATE(NewState));
2149:../Libraries/STM32F10x_StdPeriph_Driver/src/stm32f10x_tim.c ****   if (NewState != DISABLE)
 24971              		.loc 1 2149 0
 24972 000c FB78     		ldrb	r3, [r7, #3]	@ zero_extendqisi2
 24973 000e 002B     		cmp	r3, #0
 24974 0010 08D0     		beq	.L140
2150:../Libraries/STM32F10x_StdPeriph_Driver/src/stm32f10x_tim.c ****   {
2151:../Libraries/STM32F10x_StdPeriph_Driver/src/stm32f10x_tim.c ****     /* Set the TI1S Bit */
2152:../Libraries/STM32F10x_StdPeriph_Driver/src/stm32f10x_tim.c ****     TIMx->CR2 |= TIM_CR2_TI1S;
 24975              		.loc 1 2152 0
 24976 0012 7B68     		ldr	r3, [r7, #4]
 24977 0014 9B88     		ldrh	r3, [r3, #4]	@ movhi
 24978 0016 9BB2     		uxth	r3, r3
 24979 0018 43F08003 		orr	r3, r3, #128
 24980 001c 9AB2     		uxth	r2, r3
 24981 001e 7B68     		ldr	r3, [r7, #4]
 24982 0020 9A80     		strh	r2, [r3, #4]	@ movhi
 24983 0022 07E0     		b	.L139
 24984              	.L140:
2153:../Libraries/STM32F10x_StdPeriph_Driver/src/stm32f10x_tim.c ****   }
2154:../Libraries/STM32F10x_StdPeriph_Driver/src/stm32f10x_tim.c ****   else
2155:../Libraries/STM32F10x_StdPeriph_Driver/src/stm32f10x_tim.c ****   {
2156:../Libraries/STM32F10x_StdPeriph_Driver/src/stm32f10x_tim.c ****     /* Reset the TI1S Bit */
2157:../Libraries/STM32F10x_StdPeriph_Driver/src/stm32f10x_tim.c ****     TIMx->CR2 &= (uint16_t)~((uint16_t)TIM_CR2_TI1S);
 24985              		.loc 1 2157 0
 24986 0024 7B68     		ldr	r3, [r7, #4]
 24987 0026 9B88     		ldrh	r3, [r3, #4]	@ movhi
 24988 0028 9BB2     		uxth	r3, r3
 24989 002a 23F08003 		bic	r3, r3, #128
 24990 002e 9AB2     		uxth	r2, r3
 24991 0030 7B68     		ldr	r3, [r7, #4]
 24992 0032 9A80     		strh	r2, [r3, #4]	@ movhi
 24993              	.L139:
2158:../Libraries/STM32F10x_StdPeriph_Driver/src/stm32f10x_tim.c ****   }
2159:../Libraries/STM32F10x_StdPeriph_Driver/src/stm32f10x_tim.c **** }
 24994              		.loc 1 2159 0
 24995 0034 07F10C07 		add	r7, r7, #12
 24996 0038 BD46     		mov	sp, r7
 24997 003a 80BC     		pop	{r7}
 24998 003c 7047     		bx	lr
 24999              		.cfi_endproc
 25000              	.LFE90:
 25002 003e 00BF     		.section	.text.TIM_SelectOnePulseMode,"ax",%progbits
 25003              		.align	2
 25004              		.global	TIM_SelectOnePulseMode
 25005              		.thumb
 25006              		.thumb_func
 25008              	TIM_SelectOnePulseMode:
 25009              	.LFB91:
2160:../Libraries/STM32F10x_StdPeriph_Driver/src/stm32f10x_tim.c **** 
2161:../Libraries/STM32F10x_StdPeriph_Driver/src/stm32f10x_tim.c **** /**
2162:../Libraries/STM32F10x_StdPeriph_Driver/src/stm32f10x_tim.c ****   * @brief  Selects the TIMx's One Pulse Mode.
2163:../Libraries/STM32F10x_StdPeriph_Driver/src/stm32f10x_tim.c ****   * @param  TIMx: where x can be 1 to 17 to select the TIM peripheral.
2164:../Libraries/STM32F10x_StdPeriph_Driver/src/stm32f10x_tim.c ****   * @param  TIM_OPMode: specifies the OPM Mode to be used.
2165:../Libraries/STM32F10x_StdPeriph_Driver/src/stm32f10x_tim.c ****   *   This parameter can be one of the following values:
2166:../Libraries/STM32F10x_StdPeriph_Driver/src/stm32f10x_tim.c ****   *     @arg TIM_OPMode_Single
2167:../Libraries/STM32F10x_StdPeriph_Driver/src/stm32f10x_tim.c ****   *     @arg TIM_OPMode_Repetitive
2168:../Libraries/STM32F10x_StdPeriph_Driver/src/stm32f10x_tim.c ****   * @retval None
2169:../Libraries/STM32F10x_StdPeriph_Driver/src/stm32f10x_tim.c ****   */
2170:../Libraries/STM32F10x_StdPeriph_Driver/src/stm32f10x_tim.c **** void TIM_SelectOnePulseMode(TIM_TypeDef* TIMx, uint16_t TIM_OPMode)
2171:../Libraries/STM32F10x_StdPeriph_Driver/src/stm32f10x_tim.c **** {
 25010              		.loc 1 2171 0
 25011              		.cfi_startproc
 25012              		@ args = 0, pretend = 0, frame = 8
 25013              		@ frame_needed = 1, uses_anonymous_args = 0
 25014              		@ link register save eliminated.
 25015 0000 80B4     		push	{r7}
 25016              	.LCFI186:
 25017              		.cfi_def_cfa_offset 4
 25018 0002 83B0     		sub	sp, sp, #12
 25019              	.LCFI187:
 25020              		.cfi_def_cfa_offset 16
 25021 0004 00AF     		add	r7, sp, #0
 25022              		.cfi_offset 7, -4
 25023              	.LCFI188:
 25024              		.cfi_def_cfa_register 7
 25025 0006 7860     		str	r0, [r7, #4]
 25026 0008 0B46     		mov	r3, r1
 25027 000a 7B80     		strh	r3, [r7, #2]	@ movhi
2172:../Libraries/STM32F10x_StdPeriph_Driver/src/stm32f10x_tim.c ****   /* Check the parameters */
2173:../Libraries/STM32F10x_StdPeriph_Driver/src/stm32f10x_tim.c ****   assert_param(IS_TIM_ALL_PERIPH(TIMx));
2174:../Libraries/STM32F10x_StdPeriph_Driver/src/stm32f10x_tim.c ****   assert_param(IS_TIM_OPM_MODE(TIM_OPMode));
2175:../Libraries/STM32F10x_StdPeriph_Driver/src/stm32f10x_tim.c ****   /* Reset the OPM Bit */
2176:../Libraries/STM32F10x_StdPeriph_Driver/src/stm32f10x_tim.c ****   TIMx->CR1 &= (uint16_t)~((uint16_t)TIM_CR1_OPM);
 25028              		.loc 1 2176 0
 25029 000c 7B68     		ldr	r3, [r7, #4]
 25030 000e 1B88     		ldrh	r3, [r3, #0]	@ movhi
 25031 0010 9BB2     		uxth	r3, r3
 25032 0012 23F00803 		bic	r3, r3, #8
 25033 0016 9AB2     		uxth	r2, r3
 25034 0018 7B68     		ldr	r3, [r7, #4]
 25035 001a 1A80     		strh	r2, [r3, #0]	@ movhi
2177:../Libraries/STM32F10x_StdPeriph_Driver/src/stm32f10x_tim.c ****   /* Configure the OPM Mode */
2178:../Libraries/STM32F10x_StdPeriph_Driver/src/stm32f10x_tim.c ****   TIMx->CR1 |= TIM_OPMode;
 25036              		.loc 1 2178 0
 25037 001c 7B68     		ldr	r3, [r7, #4]
 25038 001e 1B88     		ldrh	r3, [r3, #0]	@ movhi
 25039 0020 9AB2     		uxth	r2, r3
 25040 0022 7B88     		ldrh	r3, [r7, #2]	@ movhi
 25041 0024 42EA0303 		orr	r3, r2, r3
 25042 0028 9AB2     		uxth	r2, r3
 25043 002a 7B68     		ldr	r3, [r7, #4]
 25044 002c 1A80     		strh	r2, [r3, #0]	@ movhi
2179:../Libraries/STM32F10x_StdPeriph_Driver/src/stm32f10x_tim.c **** }
 25045              		.loc 1 2179 0
 25046 002e 07F10C07 		add	r7, r7, #12
 25047 0032 BD46     		mov	sp, r7
 25048 0034 80BC     		pop	{r7}
 25049 0036 7047     		bx	lr
 25050              		.cfi_endproc
 25051              	.LFE91:
 25053              		.section	.text.TIM_SelectOutputTrigger,"ax",%progbits
 25054              		.align	2
 25055              		.global	TIM_SelectOutputTrigger
 25056              		.thumb
 25057              		.thumb_func
 25059              	TIM_SelectOutputTrigger:
 25060              	.LFB92:
2180:../Libraries/STM32F10x_StdPeriph_Driver/src/stm32f10x_tim.c **** 
2181:../Libraries/STM32F10x_StdPeriph_Driver/src/stm32f10x_tim.c **** /**
2182:../Libraries/STM32F10x_StdPeriph_Driver/src/stm32f10x_tim.c ****   * @brief  Selects the TIMx Trigger Output Mode.
2183:../Libraries/STM32F10x_StdPeriph_Driver/src/stm32f10x_tim.c ****   * @param  TIMx: where x can be 1, 2, 3, 4, 5, 6, 7, 8, 9, 12 or 15 to select the TIM peripheral.
2184:../Libraries/STM32F10x_StdPeriph_Driver/src/stm32f10x_tim.c ****   * @param  TIM_TRGOSource: specifies the Trigger Output source.
2185:../Libraries/STM32F10x_StdPeriph_Driver/src/stm32f10x_tim.c ****   *   This paramter can be one of the following values:
2186:../Libraries/STM32F10x_StdPeriph_Driver/src/stm32f10x_tim.c ****   *
2187:../Libraries/STM32F10x_StdPeriph_Driver/src/stm32f10x_tim.c ****   *  - For all TIMx
2188:../Libraries/STM32F10x_StdPeriph_Driver/src/stm32f10x_tim.c ****   *     @arg TIM_TRGOSource_Reset:  The UG bit in the TIM_EGR register is used as the trigger outpu
2189:../Libraries/STM32F10x_StdPeriph_Driver/src/stm32f10x_tim.c ****   *     @arg TIM_TRGOSource_Enable: The Counter Enable CEN is used as the trigger output (TRGO).
2190:../Libraries/STM32F10x_StdPeriph_Driver/src/stm32f10x_tim.c ****   *     @arg TIM_TRGOSource_Update: The update event is selected as the trigger output (TRGO).
2191:../Libraries/STM32F10x_StdPeriph_Driver/src/stm32f10x_tim.c ****   *
2192:../Libraries/STM32F10x_StdPeriph_Driver/src/stm32f10x_tim.c ****   *  - For all TIMx except TIM6 and TIM7
2193:../Libraries/STM32F10x_StdPeriph_Driver/src/stm32f10x_tim.c ****   *     @arg TIM_TRGOSource_OC1: The trigger output sends a positive pulse when the CC1IF flag
2194:../Libraries/STM32F10x_StdPeriph_Driver/src/stm32f10x_tim.c ****   *                              is to be set, as soon as a capture or compare match occurs (TRGO).
2195:../Libraries/STM32F10x_StdPeriph_Driver/src/stm32f10x_tim.c ****   *     @arg TIM_TRGOSource_OC1Ref: OC1REF signal is used as the trigger output (TRGO).
2196:../Libraries/STM32F10x_StdPeriph_Driver/src/stm32f10x_tim.c ****   *     @arg TIM_TRGOSource_OC2Ref: OC2REF signal is used as the trigger output (TRGO).
2197:../Libraries/STM32F10x_StdPeriph_Driver/src/stm32f10x_tim.c ****   *     @arg TIM_TRGOSource_OC3Ref: OC3REF signal is used as the trigger output (TRGO).
2198:../Libraries/STM32F10x_StdPeriph_Driver/src/stm32f10x_tim.c ****   *     @arg TIM_TRGOSource_OC4Ref: OC4REF signal is used as the trigger output (TRGO).
2199:../Libraries/STM32F10x_StdPeriph_Driver/src/stm32f10x_tim.c ****   *
2200:../Libraries/STM32F10x_StdPeriph_Driver/src/stm32f10x_tim.c ****   * @retval None
2201:../Libraries/STM32F10x_StdPeriph_Driver/src/stm32f10x_tim.c ****   */
2202:../Libraries/STM32F10x_StdPeriph_Driver/src/stm32f10x_tim.c **** void TIM_SelectOutputTrigger(TIM_TypeDef* TIMx, uint16_t TIM_TRGOSource)
2203:../Libraries/STM32F10x_StdPeriph_Driver/src/stm32f10x_tim.c **** {
 25061              		.loc 1 2203 0
 25062              		.cfi_startproc
 25063              		@ args = 0, pretend = 0, frame = 8
 25064              		@ frame_needed = 1, uses_anonymous_args = 0
 25065              		@ link register save eliminated.
 25066 0000 80B4     		push	{r7}
 25067              	.LCFI189:
 25068              		.cfi_def_cfa_offset 4
 25069 0002 83B0     		sub	sp, sp, #12
 25070              	.LCFI190:
 25071              		.cfi_def_cfa_offset 16
 25072 0004 00AF     		add	r7, sp, #0
 25073              		.cfi_offset 7, -4
 25074              	.LCFI191:
 25075              		.cfi_def_cfa_register 7
 25076 0006 7860     		str	r0, [r7, #4]
 25077 0008 0B46     		mov	r3, r1
 25078 000a 7B80     		strh	r3, [r7, #2]	@ movhi
2204:../Libraries/STM32F10x_StdPeriph_Driver/src/stm32f10x_tim.c ****   /* Check the parameters */
2205:../Libraries/STM32F10x_StdPeriph_Driver/src/stm32f10x_tim.c ****   assert_param(IS_TIM_LIST7_PERIPH(TIMx));
2206:../Libraries/STM32F10x_StdPeriph_Driver/src/stm32f10x_tim.c ****   assert_param(IS_TIM_TRGO_SOURCE(TIM_TRGOSource));
2207:../Libraries/STM32F10x_StdPeriph_Driver/src/stm32f10x_tim.c ****   /* Reset the MMS Bits */
2208:../Libraries/STM32F10x_StdPeriph_Driver/src/stm32f10x_tim.c ****   TIMx->CR2 &= (uint16_t)~((uint16_t)TIM_CR2_MMS);
 25079              		.loc 1 2208 0
 25080 000c 7B68     		ldr	r3, [r7, #4]
 25081 000e 9B88     		ldrh	r3, [r3, #4]	@ movhi
 25082 0010 9BB2     		uxth	r3, r3
 25083 0012 23F07003 		bic	r3, r3, #112
 25084 0016 9AB2     		uxth	r2, r3
 25085 0018 7B68     		ldr	r3, [r7, #4]
 25086 001a 9A80     		strh	r2, [r3, #4]	@ movhi
2209:../Libraries/STM32F10x_StdPeriph_Driver/src/stm32f10x_tim.c ****   /* Select the TRGO source */
2210:../Libraries/STM32F10x_StdPeriph_Driver/src/stm32f10x_tim.c ****   TIMx->CR2 |=  TIM_TRGOSource;
 25087              		.loc 1 2210 0
 25088 001c 7B68     		ldr	r3, [r7, #4]
 25089 001e 9B88     		ldrh	r3, [r3, #4]	@ movhi
 25090 0020 9AB2     		uxth	r2, r3
 25091 0022 7B88     		ldrh	r3, [r7, #2]	@ movhi
 25092 0024 42EA0303 		orr	r3, r2, r3
 25093 0028 9AB2     		uxth	r2, r3
 25094 002a 7B68     		ldr	r3, [r7, #4]
 25095 002c 9A80     		strh	r2, [r3, #4]	@ movhi
2211:../Libraries/STM32F10x_StdPeriph_Driver/src/stm32f10x_tim.c **** }
 25096              		.loc 1 2211 0
 25097 002e 07F10C07 		add	r7, r7, #12
 25098 0032 BD46     		mov	sp, r7
 25099 0034 80BC     		pop	{r7}
 25100 0036 7047     		bx	lr
 25101              		.cfi_endproc
 25102              	.LFE92:
 25104              		.section	.text.TIM_SelectSlaveMode,"ax",%progbits
 25105              		.align	2
 25106              		.global	TIM_SelectSlaveMode
 25107              		.thumb
 25108              		.thumb_func
 25110              	TIM_SelectSlaveMode:
 25111              	.LFB93:
2212:../Libraries/STM32F10x_StdPeriph_Driver/src/stm32f10x_tim.c **** 
2213:../Libraries/STM32F10x_StdPeriph_Driver/src/stm32f10x_tim.c **** /**
2214:../Libraries/STM32F10x_StdPeriph_Driver/src/stm32f10x_tim.c ****   * @brief  Selects the TIMx Slave Mode.
2215:../Libraries/STM32F10x_StdPeriph_Driver/src/stm32f10x_tim.c ****   * @param  TIMx: where x can be 1, 2, 3, 4, 5, 8, 9, 12 or 15 to select the TIM peripheral.
2216:../Libraries/STM32F10x_StdPeriph_Driver/src/stm32f10x_tim.c ****   * @param  TIM_SlaveMode: specifies the Timer Slave Mode.
2217:../Libraries/STM32F10x_StdPeriph_Driver/src/stm32f10x_tim.c ****   *   This parameter can be one of the following values:
2218:../Libraries/STM32F10x_StdPeriph_Driver/src/stm32f10x_tim.c ****   *     @arg TIM_SlaveMode_Reset: Rising edge of the selected trigger signal (TRGI) re-initializes
2219:../Libraries/STM32F10x_StdPeriph_Driver/src/stm32f10x_tim.c ****   *                               the counter and triggers an update of the registers.
2220:../Libraries/STM32F10x_StdPeriph_Driver/src/stm32f10x_tim.c ****   *     @arg TIM_SlaveMode_Gated:     The counter clock is enabled when the trigger signal (TRGI) i
2221:../Libraries/STM32F10x_StdPeriph_Driver/src/stm32f10x_tim.c ****   *     @arg TIM_SlaveMode_Trigger:   The counter starts at a rising edge of the trigger TRGI.
2222:../Libraries/STM32F10x_StdPeriph_Driver/src/stm32f10x_tim.c ****   *     @arg TIM_SlaveMode_External1: Rising edges of the selected trigger (TRGI) clock the counter
2223:../Libraries/STM32F10x_StdPeriph_Driver/src/stm32f10x_tim.c ****   * @retval None
2224:../Libraries/STM32F10x_StdPeriph_Driver/src/stm32f10x_tim.c ****   */
2225:../Libraries/STM32F10x_StdPeriph_Driver/src/stm32f10x_tim.c **** void TIM_SelectSlaveMode(TIM_TypeDef* TIMx, uint16_t TIM_SlaveMode)
2226:../Libraries/STM32F10x_StdPeriph_Driver/src/stm32f10x_tim.c **** {
 25112              		.loc 1 2226 0
 25113              		.cfi_startproc
 25114              		@ args = 0, pretend = 0, frame = 8
 25115              		@ frame_needed = 1, uses_anonymous_args = 0
 25116              		@ link register save eliminated.
 25117 0000 80B4     		push	{r7}
 25118              	.LCFI192:
 25119              		.cfi_def_cfa_offset 4
 25120 0002 83B0     		sub	sp, sp, #12
 25121              	.LCFI193:
 25122              		.cfi_def_cfa_offset 16
 25123 0004 00AF     		add	r7, sp, #0
 25124              		.cfi_offset 7, -4
 25125              	.LCFI194:
 25126              		.cfi_def_cfa_register 7
 25127 0006 7860     		str	r0, [r7, #4]
 25128 0008 0B46     		mov	r3, r1
 25129 000a 7B80     		strh	r3, [r7, #2]	@ movhi
2227:../Libraries/STM32F10x_StdPeriph_Driver/src/stm32f10x_tim.c ****   /* Check the parameters */
2228:../Libraries/STM32F10x_StdPeriph_Driver/src/stm32f10x_tim.c ****   assert_param(IS_TIM_LIST6_PERIPH(TIMx));
2229:../Libraries/STM32F10x_StdPeriph_Driver/src/stm32f10x_tim.c ****   assert_param(IS_TIM_SLAVE_MODE(TIM_SlaveMode));
2230:../Libraries/STM32F10x_StdPeriph_Driver/src/stm32f10x_tim.c ****  /* Reset the SMS Bits */
2231:../Libraries/STM32F10x_StdPeriph_Driver/src/stm32f10x_tim.c ****   TIMx->SMCR &= (uint16_t)~((uint16_t)TIM_SMCR_SMS);
 25130              		.loc 1 2231 0
 25131 000c 7B68     		ldr	r3, [r7, #4]
 25132 000e 1B89     		ldrh	r3, [r3, #8]	@ movhi
 25133 0010 9BB2     		uxth	r3, r3
 25134 0012 23F00703 		bic	r3, r3, #7
 25135 0016 9AB2     		uxth	r2, r3
 25136 0018 7B68     		ldr	r3, [r7, #4]
 25137 001a 1A81     		strh	r2, [r3, #8]	@ movhi
2232:../Libraries/STM32F10x_StdPeriph_Driver/src/stm32f10x_tim.c ****   /* Select the Slave Mode */
2233:../Libraries/STM32F10x_StdPeriph_Driver/src/stm32f10x_tim.c ****   TIMx->SMCR |= TIM_SlaveMode;
 25138              		.loc 1 2233 0
 25139 001c 7B68     		ldr	r3, [r7, #4]
 25140 001e 1B89     		ldrh	r3, [r3, #8]	@ movhi
 25141 0020 9AB2     		uxth	r2, r3
 25142 0022 7B88     		ldrh	r3, [r7, #2]	@ movhi
 25143 0024 42EA0303 		orr	r3, r2, r3
 25144 0028 9AB2     		uxth	r2, r3
 25145 002a 7B68     		ldr	r3, [r7, #4]
 25146 002c 1A81     		strh	r2, [r3, #8]	@ movhi
2234:../Libraries/STM32F10x_StdPeriph_Driver/src/stm32f10x_tim.c **** }
 25147              		.loc 1 2234 0
 25148 002e 07F10C07 		add	r7, r7, #12
 25149 0032 BD46     		mov	sp, r7
 25150 0034 80BC     		pop	{r7}
 25151 0036 7047     		bx	lr
 25152              		.cfi_endproc
 25153              	.LFE93:
 25155              		.section	.text.TIM_SelectMasterSlaveMode,"ax",%progbits
 25156              		.align	2
 25157              		.global	TIM_SelectMasterSlaveMode
 25158              		.thumb
 25159              		.thumb_func
 25161              	TIM_SelectMasterSlaveMode:
 25162              	.LFB94:
2235:../Libraries/STM32F10x_StdPeriph_Driver/src/stm32f10x_tim.c **** 
2236:../Libraries/STM32F10x_StdPeriph_Driver/src/stm32f10x_tim.c **** /**
2237:../Libraries/STM32F10x_StdPeriph_Driver/src/stm32f10x_tim.c ****   * @brief  Sets or Resets the TIMx Master/Slave Mode.
2238:../Libraries/STM32F10x_StdPeriph_Driver/src/stm32f10x_tim.c ****   * @param  TIMx: where x can be 1, 2, 3, 4, 5, 8, 9, 12 or 15 to select the TIM peripheral.
2239:../Libraries/STM32F10x_StdPeriph_Driver/src/stm32f10x_tim.c ****   * @param  TIM_MasterSlaveMode: specifies the Timer Master Slave Mode.
2240:../Libraries/STM32F10x_StdPeriph_Driver/src/stm32f10x_tim.c ****   *   This parameter can be one of the following values:
2241:../Libraries/STM32F10x_StdPeriph_Driver/src/stm32f10x_tim.c ****   *     @arg TIM_MasterSlaveMode_Enable: synchronization between the current timer
2242:../Libraries/STM32F10x_StdPeriph_Driver/src/stm32f10x_tim.c ****   *                                      and its slaves (through TRGO).
2243:../Libraries/STM32F10x_StdPeriph_Driver/src/stm32f10x_tim.c ****   *     @arg TIM_MasterSlaveMode_Disable: No action
2244:../Libraries/STM32F10x_StdPeriph_Driver/src/stm32f10x_tim.c ****   * @retval None
2245:../Libraries/STM32F10x_StdPeriph_Driver/src/stm32f10x_tim.c ****   */
2246:../Libraries/STM32F10x_StdPeriph_Driver/src/stm32f10x_tim.c **** void TIM_SelectMasterSlaveMode(TIM_TypeDef* TIMx, uint16_t TIM_MasterSlaveMode)
2247:../Libraries/STM32F10x_StdPeriph_Driver/src/stm32f10x_tim.c **** {
 25163              		.loc 1 2247 0
 25164              		.cfi_startproc
 25165              		@ args = 0, pretend = 0, frame = 8
 25166              		@ frame_needed = 1, uses_anonymous_args = 0
 25167              		@ link register save eliminated.
 25168 0000 80B4     		push	{r7}
 25169              	.LCFI195:
 25170              		.cfi_def_cfa_offset 4
 25171 0002 83B0     		sub	sp, sp, #12
 25172              	.LCFI196:
 25173              		.cfi_def_cfa_offset 16
 25174 0004 00AF     		add	r7, sp, #0
 25175              		.cfi_offset 7, -4
 25176              	.LCFI197:
 25177              		.cfi_def_cfa_register 7
 25178 0006 7860     		str	r0, [r7, #4]
 25179 0008 0B46     		mov	r3, r1
 25180 000a 7B80     		strh	r3, [r7, #2]	@ movhi
2248:../Libraries/STM32F10x_StdPeriph_Driver/src/stm32f10x_tim.c ****   /* Check the parameters */
2249:../Libraries/STM32F10x_StdPeriph_Driver/src/stm32f10x_tim.c ****   assert_param(IS_TIM_LIST6_PERIPH(TIMx));
2250:../Libraries/STM32F10x_StdPeriph_Driver/src/stm32f10x_tim.c ****   assert_param(IS_TIM_MSM_STATE(TIM_MasterSlaveMode));
2251:../Libraries/STM32F10x_StdPeriph_Driver/src/stm32f10x_tim.c ****   /* Reset the MSM Bit */
2252:../Libraries/STM32F10x_StdPeriph_Driver/src/stm32f10x_tim.c ****   TIMx->SMCR &= (uint16_t)~((uint16_t)TIM_SMCR_MSM);
 25181              		.loc 1 2252 0
 25182 000c 7B68     		ldr	r3, [r7, #4]
 25183 000e 1B89     		ldrh	r3, [r3, #8]	@ movhi
 25184 0010 9BB2     		uxth	r3, r3
 25185 0012 23F08003 		bic	r3, r3, #128
 25186 0016 9AB2     		uxth	r2, r3
 25187 0018 7B68     		ldr	r3, [r7, #4]
 25188 001a 1A81     		strh	r2, [r3, #8]	@ movhi
2253:../Libraries/STM32F10x_StdPeriph_Driver/src/stm32f10x_tim.c ****   
2254:../Libraries/STM32F10x_StdPeriph_Driver/src/stm32f10x_tim.c ****   /* Set or Reset the MSM Bit */
2255:../Libraries/STM32F10x_StdPeriph_Driver/src/stm32f10x_tim.c ****   TIMx->SMCR |= TIM_MasterSlaveMode;
 25189              		.loc 1 2255 0
 25190 001c 7B68     		ldr	r3, [r7, #4]
 25191 001e 1B89     		ldrh	r3, [r3, #8]	@ movhi
 25192 0020 9AB2     		uxth	r2, r3
 25193 0022 7B88     		ldrh	r3, [r7, #2]	@ movhi
 25194 0024 42EA0303 		orr	r3, r2, r3
 25195 0028 9AB2     		uxth	r2, r3
 25196 002a 7B68     		ldr	r3, [r7, #4]
 25197 002c 1A81     		strh	r2, [r3, #8]	@ movhi
2256:../Libraries/STM32F10x_StdPeriph_Driver/src/stm32f10x_tim.c **** }
 25198              		.loc 1 2256 0
 25199 002e 07F10C07 		add	r7, r7, #12
 25200 0032 BD46     		mov	sp, r7
 25201 0034 80BC     		pop	{r7}
 25202 0036 7047     		bx	lr
 25203              		.cfi_endproc
 25204              	.LFE94:
 25206              		.section	.text.TIM_SetCounter,"ax",%progbits
 25207              		.align	2
 25208              		.global	TIM_SetCounter
 25209              		.thumb
 25210              		.thumb_func
 25212              	TIM_SetCounter:
 25213              	.LFB95:
2257:../Libraries/STM32F10x_StdPeriph_Driver/src/stm32f10x_tim.c **** 
2258:../Libraries/STM32F10x_StdPeriph_Driver/src/stm32f10x_tim.c **** /**
2259:../Libraries/STM32F10x_StdPeriph_Driver/src/stm32f10x_tim.c ****   * @brief  Sets the TIMx Counter Register value
2260:../Libraries/STM32F10x_StdPeriph_Driver/src/stm32f10x_tim.c ****   * @param  TIMx: where x can be 1 to 17 to select the TIM peripheral.
2261:../Libraries/STM32F10x_StdPeriph_Driver/src/stm32f10x_tim.c ****   * @param  Counter: specifies the Counter register new value.
2262:../Libraries/STM32F10x_StdPeriph_Driver/src/stm32f10x_tim.c ****   * @retval None
2263:../Libraries/STM32F10x_StdPeriph_Driver/src/stm32f10x_tim.c ****   */
2264:../Libraries/STM32F10x_StdPeriph_Driver/src/stm32f10x_tim.c **** void TIM_SetCounter(TIM_TypeDef* TIMx, uint16_t Counter)
2265:../Libraries/STM32F10x_StdPeriph_Driver/src/stm32f10x_tim.c **** {
 25214              		.loc 1 2265 0
 25215              		.cfi_startproc
 25216              		@ args = 0, pretend = 0, frame = 8
 25217              		@ frame_needed = 1, uses_anonymous_args = 0
 25218              		@ link register save eliminated.
 25219 0000 80B4     		push	{r7}
 25220              	.LCFI198:
 25221              		.cfi_def_cfa_offset 4
 25222 0002 83B0     		sub	sp, sp, #12
 25223              	.LCFI199:
 25224              		.cfi_def_cfa_offset 16
 25225 0004 00AF     		add	r7, sp, #0
 25226              		.cfi_offset 7, -4
 25227              	.LCFI200:
 25228              		.cfi_def_cfa_register 7
 25229 0006 7860     		str	r0, [r7, #4]
 25230 0008 0B46     		mov	r3, r1
 25231 000a 7B80     		strh	r3, [r7, #2]	@ movhi
2266:../Libraries/STM32F10x_StdPeriph_Driver/src/stm32f10x_tim.c ****   /* Check the parameters */
2267:../Libraries/STM32F10x_StdPeriph_Driver/src/stm32f10x_tim.c ****   assert_param(IS_TIM_ALL_PERIPH(TIMx));
2268:../Libraries/STM32F10x_StdPeriph_Driver/src/stm32f10x_tim.c ****   /* Set the Counter Register value */
2269:../Libraries/STM32F10x_StdPeriph_Driver/src/stm32f10x_tim.c ****   TIMx->CNT = Counter;
 25232              		.loc 1 2269 0
 25233 000c 7B68     		ldr	r3, [r7, #4]
 25234 000e 7A88     		ldrh	r2, [r7, #2]	@ movhi
 25235 0010 9A84     		strh	r2, [r3, #36]	@ movhi
2270:../Libraries/STM32F10x_StdPeriph_Driver/src/stm32f10x_tim.c **** }
 25236              		.loc 1 2270 0
 25237 0012 07F10C07 		add	r7, r7, #12
 25238 0016 BD46     		mov	sp, r7
 25239 0018 80BC     		pop	{r7}
 25240 001a 7047     		bx	lr
 25241              		.cfi_endproc
 25242              	.LFE95:
 25244              		.section	.text.TIM_SetAutoreload,"ax",%progbits
 25245              		.align	2
 25246              		.global	TIM_SetAutoreload
 25247              		.thumb
 25248              		.thumb_func
 25250              	TIM_SetAutoreload:
 25251              	.LFB96:
2271:../Libraries/STM32F10x_StdPeriph_Driver/src/stm32f10x_tim.c **** 
2272:../Libraries/STM32F10x_StdPeriph_Driver/src/stm32f10x_tim.c **** /**
2273:../Libraries/STM32F10x_StdPeriph_Driver/src/stm32f10x_tim.c ****   * @brief  Sets the TIMx Autoreload Register value
2274:../Libraries/STM32F10x_StdPeriph_Driver/src/stm32f10x_tim.c ****   * @param  TIMx: where x can be 1 to 17 to select the TIM peripheral.
2275:../Libraries/STM32F10x_StdPeriph_Driver/src/stm32f10x_tim.c ****   * @param  Autoreload: specifies the Autoreload register new value.
2276:../Libraries/STM32F10x_StdPeriph_Driver/src/stm32f10x_tim.c ****   * @retval None
2277:../Libraries/STM32F10x_StdPeriph_Driver/src/stm32f10x_tim.c ****   */
2278:../Libraries/STM32F10x_StdPeriph_Driver/src/stm32f10x_tim.c **** void TIM_SetAutoreload(TIM_TypeDef* TIMx, uint16_t Autoreload)
2279:../Libraries/STM32F10x_StdPeriph_Driver/src/stm32f10x_tim.c **** {
 25252              		.loc 1 2279 0
 25253              		.cfi_startproc
 25254              		@ args = 0, pretend = 0, frame = 8
 25255              		@ frame_needed = 1, uses_anonymous_args = 0
 25256              		@ link register save eliminated.
 25257 0000 80B4     		push	{r7}
 25258              	.LCFI201:
 25259              		.cfi_def_cfa_offset 4
 25260 0002 83B0     		sub	sp, sp, #12
 25261              	.LCFI202:
 25262              		.cfi_def_cfa_offset 16
 25263 0004 00AF     		add	r7, sp, #0
 25264              		.cfi_offset 7, -4
 25265              	.LCFI203:
 25266              		.cfi_def_cfa_register 7
 25267 0006 7860     		str	r0, [r7, #4]
 25268 0008 0B46     		mov	r3, r1
 25269 000a 7B80     		strh	r3, [r7, #2]	@ movhi
2280:../Libraries/STM32F10x_StdPeriph_Driver/src/stm32f10x_tim.c ****   /* Check the parameters */
2281:../Libraries/STM32F10x_StdPeriph_Driver/src/stm32f10x_tim.c ****   assert_param(IS_TIM_ALL_PERIPH(TIMx));
2282:../Libraries/STM32F10x_StdPeriph_Driver/src/stm32f10x_tim.c ****   /* Set the Autoreload Register value */
2283:../Libraries/STM32F10x_StdPeriph_Driver/src/stm32f10x_tim.c ****   TIMx->ARR = Autoreload;
 25270              		.loc 1 2283 0
 25271 000c 7B68     		ldr	r3, [r7, #4]
 25272 000e 7A88     		ldrh	r2, [r7, #2]	@ movhi
 25273 0010 9A85     		strh	r2, [r3, #44]	@ movhi
2284:../Libraries/STM32F10x_StdPeriph_Driver/src/stm32f10x_tim.c **** }
 25274              		.loc 1 2284 0
 25275 0012 07F10C07 		add	r7, r7, #12
 25276 0016 BD46     		mov	sp, r7
 25277 0018 80BC     		pop	{r7}
 25278 001a 7047     		bx	lr
 25279              		.cfi_endproc
 25280              	.LFE96:
 25282              		.section	.text.TIM_SetCompare1,"ax",%progbits
 25283              		.align	2
 25284              		.global	TIM_SetCompare1
 25285              		.thumb
 25286              		.thumb_func
 25288              	TIM_SetCompare1:
 25289              	.LFB97:
2285:../Libraries/STM32F10x_StdPeriph_Driver/src/stm32f10x_tim.c **** 
2286:../Libraries/STM32F10x_StdPeriph_Driver/src/stm32f10x_tim.c **** /**
2287:../Libraries/STM32F10x_StdPeriph_Driver/src/stm32f10x_tim.c ****   * @brief  Sets the TIMx Capture Compare1 Register value
2288:../Libraries/STM32F10x_StdPeriph_Driver/src/stm32f10x_tim.c ****   * @param  TIMx: where x can be 1 to 17 except 6 and 7 to select the TIM peripheral.
2289:../Libraries/STM32F10x_StdPeriph_Driver/src/stm32f10x_tim.c ****   * @param  Compare1: specifies the Capture Compare1 register new value.
2290:../Libraries/STM32F10x_StdPeriph_Driver/src/stm32f10x_tim.c ****   * @retval None
2291:../Libraries/STM32F10x_StdPeriph_Driver/src/stm32f10x_tim.c ****   */
2292:../Libraries/STM32F10x_StdPeriph_Driver/src/stm32f10x_tim.c **** void TIM_SetCompare1(TIM_TypeDef* TIMx, uint16_t Compare1)
2293:../Libraries/STM32F10x_StdPeriph_Driver/src/stm32f10x_tim.c **** {
 25290              		.loc 1 2293 0
 25291              		.cfi_startproc
 25292              		@ args = 0, pretend = 0, frame = 8
 25293              		@ frame_needed = 1, uses_anonymous_args = 0
 25294              		@ link register save eliminated.
 25295 0000 80B4     		push	{r7}
 25296              	.LCFI204:
 25297              		.cfi_def_cfa_offset 4
 25298 0002 83B0     		sub	sp, sp, #12
 25299              	.LCFI205:
 25300              		.cfi_def_cfa_offset 16
 25301 0004 00AF     		add	r7, sp, #0
 25302              		.cfi_offset 7, -4
 25303              	.LCFI206:
 25304              		.cfi_def_cfa_register 7
 25305 0006 7860     		str	r0, [r7, #4]
 25306 0008 0B46     		mov	r3, r1
 25307 000a 7B80     		strh	r3, [r7, #2]	@ movhi
2294:../Libraries/STM32F10x_StdPeriph_Driver/src/stm32f10x_tim.c ****   /* Check the parameters */
2295:../Libraries/STM32F10x_StdPeriph_Driver/src/stm32f10x_tim.c ****   assert_param(IS_TIM_LIST8_PERIPH(TIMx));
2296:../Libraries/STM32F10x_StdPeriph_Driver/src/stm32f10x_tim.c ****   /* Set the Capture Compare1 Register value */
2297:../Libraries/STM32F10x_StdPeriph_Driver/src/stm32f10x_tim.c ****   TIMx->CCR1 = Compare1;
 25308              		.loc 1 2297 0
 25309 000c 7B68     		ldr	r3, [r7, #4]
 25310 000e 7A88     		ldrh	r2, [r7, #2]	@ movhi
 25311 0010 9A86     		strh	r2, [r3, #52]	@ movhi
2298:../Libraries/STM32F10x_StdPeriph_Driver/src/stm32f10x_tim.c **** }
 25312              		.loc 1 2298 0
 25313 0012 07F10C07 		add	r7, r7, #12
 25314 0016 BD46     		mov	sp, r7
 25315 0018 80BC     		pop	{r7}
 25316 001a 7047     		bx	lr
 25317              		.cfi_endproc
 25318              	.LFE97:
 25320              		.section	.text.TIM_SetCompare2,"ax",%progbits
 25321              		.align	2
 25322              		.global	TIM_SetCompare2
 25323              		.thumb
 25324              		.thumb_func
 25326              	TIM_SetCompare2:
 25327              	.LFB98:
2299:../Libraries/STM32F10x_StdPeriph_Driver/src/stm32f10x_tim.c **** 
2300:../Libraries/STM32F10x_StdPeriph_Driver/src/stm32f10x_tim.c **** /**
2301:../Libraries/STM32F10x_StdPeriph_Driver/src/stm32f10x_tim.c ****   * @brief  Sets the TIMx Capture Compare2 Register value
2302:../Libraries/STM32F10x_StdPeriph_Driver/src/stm32f10x_tim.c ****   * @param  TIMx: where x can be 1, 2, 3, 4, 5, 8, 9, 12 or 15 to select the TIM peripheral.
2303:../Libraries/STM32F10x_StdPeriph_Driver/src/stm32f10x_tim.c ****   * @param  Compare2: specifies the Capture Compare2 register new value.
2304:../Libraries/STM32F10x_StdPeriph_Driver/src/stm32f10x_tim.c ****   * @retval None
2305:../Libraries/STM32F10x_StdPeriph_Driver/src/stm32f10x_tim.c ****   */
2306:../Libraries/STM32F10x_StdPeriph_Driver/src/stm32f10x_tim.c **** void TIM_SetCompare2(TIM_TypeDef* TIMx, uint16_t Compare2)
2307:../Libraries/STM32F10x_StdPeriph_Driver/src/stm32f10x_tim.c **** {
 25328              		.loc 1 2307 0
 25329              		.cfi_startproc
 25330              		@ args = 0, pretend = 0, frame = 8
 25331              		@ frame_needed = 1, uses_anonymous_args = 0
 25332              		@ link register save eliminated.
 25333 0000 80B4     		push	{r7}
 25334              	.LCFI207:
 25335              		.cfi_def_cfa_offset 4
 25336 0002 83B0     		sub	sp, sp, #12
 25337              	.LCFI208:
 25338              		.cfi_def_cfa_offset 16
 25339 0004 00AF     		add	r7, sp, #0
 25340              		.cfi_offset 7, -4
 25341              	.LCFI209:
 25342              		.cfi_def_cfa_register 7
 25343 0006 7860     		str	r0, [r7, #4]
 25344 0008 0B46     		mov	r3, r1
 25345 000a 7B80     		strh	r3, [r7, #2]	@ movhi
2308:../Libraries/STM32F10x_StdPeriph_Driver/src/stm32f10x_tim.c ****   /* Check the parameters */
2309:../Libraries/STM32F10x_StdPeriph_Driver/src/stm32f10x_tim.c ****   assert_param(IS_TIM_LIST6_PERIPH(TIMx));
2310:../Libraries/STM32F10x_StdPeriph_Driver/src/stm32f10x_tim.c ****   /* Set the Capture Compare2 Register value */
2311:../Libraries/STM32F10x_StdPeriph_Driver/src/stm32f10x_tim.c ****   TIMx->CCR2 = Compare2;
 25346              		.loc 1 2311 0
 25347 000c 7B68     		ldr	r3, [r7, #4]
 25348 000e 7A88     		ldrh	r2, [r7, #2]	@ movhi
 25349 0010 1A87     		strh	r2, [r3, #56]	@ movhi
2312:../Libraries/STM32F10x_StdPeriph_Driver/src/stm32f10x_tim.c **** }
 25350              		.loc 1 2312 0
 25351 0012 07F10C07 		add	r7, r7, #12
 25352 0016 BD46     		mov	sp, r7
 25353 0018 80BC     		pop	{r7}
 25354 001a 7047     		bx	lr
 25355              		.cfi_endproc
 25356              	.LFE98:
 25358              		.section	.text.TIM_SetCompare3,"ax",%progbits
 25359              		.align	2
 25360              		.global	TIM_SetCompare3
 25361              		.thumb
 25362              		.thumb_func
 25364              	TIM_SetCompare3:
 25365              	.LFB99:
2313:../Libraries/STM32F10x_StdPeriph_Driver/src/stm32f10x_tim.c **** 
2314:../Libraries/STM32F10x_StdPeriph_Driver/src/stm32f10x_tim.c **** /**
2315:../Libraries/STM32F10x_StdPeriph_Driver/src/stm32f10x_tim.c ****   * @brief  Sets the TIMx Capture Compare3 Register value
2316:../Libraries/STM32F10x_StdPeriph_Driver/src/stm32f10x_tim.c ****   * @param  TIMx: where x can be 1, 2, 3, 4, 5 or 8 to select the TIM peripheral.
2317:../Libraries/STM32F10x_StdPeriph_Driver/src/stm32f10x_tim.c ****   * @param  Compare3: specifies the Capture Compare3 register new value.
2318:../Libraries/STM32F10x_StdPeriph_Driver/src/stm32f10x_tim.c ****   * @retval None
2319:../Libraries/STM32F10x_StdPeriph_Driver/src/stm32f10x_tim.c ****   */
2320:../Libraries/STM32F10x_StdPeriph_Driver/src/stm32f10x_tim.c **** void TIM_SetCompare3(TIM_TypeDef* TIMx, uint16_t Compare3)
2321:../Libraries/STM32F10x_StdPeriph_Driver/src/stm32f10x_tim.c **** {
 25366              		.loc 1 2321 0
 25367              		.cfi_startproc
 25368              		@ args = 0, pretend = 0, frame = 8
 25369              		@ frame_needed = 1, uses_anonymous_args = 0
 25370              		@ link register save eliminated.
 25371 0000 80B4     		push	{r7}
 25372              	.LCFI210:
 25373              		.cfi_def_cfa_offset 4
 25374 0002 83B0     		sub	sp, sp, #12
 25375              	.LCFI211:
 25376              		.cfi_def_cfa_offset 16
 25377 0004 00AF     		add	r7, sp, #0
 25378              		.cfi_offset 7, -4
 25379              	.LCFI212:
 25380              		.cfi_def_cfa_register 7
 25381 0006 7860     		str	r0, [r7, #4]
 25382 0008 0B46     		mov	r3, r1
 25383 000a 7B80     		strh	r3, [r7, #2]	@ movhi
2322:../Libraries/STM32F10x_StdPeriph_Driver/src/stm32f10x_tim.c ****   /* Check the parameters */
2323:../Libraries/STM32F10x_StdPeriph_Driver/src/stm32f10x_tim.c ****   assert_param(IS_TIM_LIST3_PERIPH(TIMx));
2324:../Libraries/STM32F10x_StdPeriph_Driver/src/stm32f10x_tim.c ****   /* Set the Capture Compare3 Register value */
2325:../Libraries/STM32F10x_StdPeriph_Driver/src/stm32f10x_tim.c ****   TIMx->CCR3 = Compare3;
 25384              		.loc 1 2325 0
 25385 000c 7B68     		ldr	r3, [r7, #4]
 25386 000e 7A88     		ldrh	r2, [r7, #2]	@ movhi
 25387 0010 9A87     		strh	r2, [r3, #60]	@ movhi
2326:../Libraries/STM32F10x_StdPeriph_Driver/src/stm32f10x_tim.c **** }
 25388              		.loc 1 2326 0
 25389 0012 07F10C07 		add	r7, r7, #12
 25390 0016 BD46     		mov	sp, r7
 25391 0018 80BC     		pop	{r7}
 25392 001a 7047     		bx	lr
 25393              		.cfi_endproc
 25394              	.LFE99:
 25396              		.section	.text.TIM_SetCompare4,"ax",%progbits
 25397              		.align	2
 25398              		.global	TIM_SetCompare4
 25399              		.thumb
 25400              		.thumb_func
 25402              	TIM_SetCompare4:
 25403              	.LFB100:
2327:../Libraries/STM32F10x_StdPeriph_Driver/src/stm32f10x_tim.c **** 
2328:../Libraries/STM32F10x_StdPeriph_Driver/src/stm32f10x_tim.c **** /**
2329:../Libraries/STM32F10x_StdPeriph_Driver/src/stm32f10x_tim.c ****   * @brief  Sets the TIMx Capture Compare4 Register value
2330:../Libraries/STM32F10x_StdPeriph_Driver/src/stm32f10x_tim.c ****   * @param  TIMx: where x can be 1, 2, 3, 4, 5 or 8 to select the TIM peripheral.
2331:../Libraries/STM32F10x_StdPeriph_Driver/src/stm32f10x_tim.c ****   * @param  Compare4: specifies the Capture Compare4 register new value.
2332:../Libraries/STM32F10x_StdPeriph_Driver/src/stm32f10x_tim.c ****   * @retval None
2333:../Libraries/STM32F10x_StdPeriph_Driver/src/stm32f10x_tim.c ****   */
2334:../Libraries/STM32F10x_StdPeriph_Driver/src/stm32f10x_tim.c **** void TIM_SetCompare4(TIM_TypeDef* TIMx, uint16_t Compare4)
2335:../Libraries/STM32F10x_StdPeriph_Driver/src/stm32f10x_tim.c **** {
 25404              		.loc 1 2335 0
 25405              		.cfi_startproc
 25406              		@ args = 0, pretend = 0, frame = 8
 25407              		@ frame_needed = 1, uses_anonymous_args = 0
 25408              		@ link register save eliminated.
 25409 0000 80B4     		push	{r7}
 25410              	.LCFI213:
 25411              		.cfi_def_cfa_offset 4
 25412 0002 83B0     		sub	sp, sp, #12
 25413              	.LCFI214:
 25414              		.cfi_def_cfa_offset 16
 25415 0004 00AF     		add	r7, sp, #0
 25416              		.cfi_offset 7, -4
 25417              	.LCFI215:
 25418              		.cfi_def_cfa_register 7
 25419 0006 7860     		str	r0, [r7, #4]
 25420 0008 0B46     		mov	r3, r1
 25421 000a 7B80     		strh	r3, [r7, #2]	@ movhi
2336:../Libraries/STM32F10x_StdPeriph_Driver/src/stm32f10x_tim.c ****   /* Check the parameters */
2337:../Libraries/STM32F10x_StdPeriph_Driver/src/stm32f10x_tim.c ****   assert_param(IS_TIM_LIST3_PERIPH(TIMx));
2338:../Libraries/STM32F10x_StdPeriph_Driver/src/stm32f10x_tim.c ****   /* Set the Capture Compare4 Register value */
2339:../Libraries/STM32F10x_StdPeriph_Driver/src/stm32f10x_tim.c ****   TIMx->CCR4 = Compare4;
 25422              		.loc 1 2339 0
 25423 000c 7B68     		ldr	r3, [r7, #4]
 25424 000e 7A88     		ldrh	r2, [r7, #2]	@ movhi
 25425 0010 A3F84020 		strh	r2, [r3, #64]	@ movhi
2340:../Libraries/STM32F10x_StdPeriph_Driver/src/stm32f10x_tim.c **** }
 25426              		.loc 1 2340 0
 25427 0014 07F10C07 		add	r7, r7, #12
 25428 0018 BD46     		mov	sp, r7
 25429 001a 80BC     		pop	{r7}
 25430 001c 7047     		bx	lr
 25431              		.cfi_endproc
 25432              	.LFE100:
 25434 001e 00BF     		.section	.text.TIM_SetIC1Prescaler,"ax",%progbits
 25435              		.align	2
 25436              		.global	TIM_SetIC1Prescaler
 25437              		.thumb
 25438              		.thumb_func
 25440              	TIM_SetIC1Prescaler:
 25441              	.LFB101:
2341:../Libraries/STM32F10x_StdPeriph_Driver/src/stm32f10x_tim.c **** 
2342:../Libraries/STM32F10x_StdPeriph_Driver/src/stm32f10x_tim.c **** /**
2343:../Libraries/STM32F10x_StdPeriph_Driver/src/stm32f10x_tim.c ****   * @brief  Sets the TIMx Input Capture 1 prescaler.
2344:../Libraries/STM32F10x_StdPeriph_Driver/src/stm32f10x_tim.c ****   * @param  TIMx: where x can be 1 to 17 except 6 and 7 to select the TIM peripheral.
2345:../Libraries/STM32F10x_StdPeriph_Driver/src/stm32f10x_tim.c ****   * @param  TIM_ICPSC: specifies the Input Capture1 prescaler new value.
2346:../Libraries/STM32F10x_StdPeriph_Driver/src/stm32f10x_tim.c ****   *   This parameter can be one of the following values:
2347:../Libraries/STM32F10x_StdPeriph_Driver/src/stm32f10x_tim.c ****   *     @arg TIM_ICPSC_DIV1: no prescaler
2348:../Libraries/STM32F10x_StdPeriph_Driver/src/stm32f10x_tim.c ****   *     @arg TIM_ICPSC_DIV2: capture is done once every 2 events
2349:../Libraries/STM32F10x_StdPeriph_Driver/src/stm32f10x_tim.c ****   *     @arg TIM_ICPSC_DIV4: capture is done once every 4 events
2350:../Libraries/STM32F10x_StdPeriph_Driver/src/stm32f10x_tim.c ****   *     @arg TIM_ICPSC_DIV8: capture is done once every 8 events
2351:../Libraries/STM32F10x_StdPeriph_Driver/src/stm32f10x_tim.c ****   * @retval None
2352:../Libraries/STM32F10x_StdPeriph_Driver/src/stm32f10x_tim.c ****   */
2353:../Libraries/STM32F10x_StdPeriph_Driver/src/stm32f10x_tim.c **** void TIM_SetIC1Prescaler(TIM_TypeDef* TIMx, uint16_t TIM_ICPSC)
2354:../Libraries/STM32F10x_StdPeriph_Driver/src/stm32f10x_tim.c **** {
 25442              		.loc 1 2354 0
 25443              		.cfi_startproc
 25444              		@ args = 0, pretend = 0, frame = 8
 25445              		@ frame_needed = 1, uses_anonymous_args = 0
 25446              		@ link register save eliminated.
 25447 0000 80B4     		push	{r7}
 25448              	.LCFI216:
 25449              		.cfi_def_cfa_offset 4
 25450 0002 83B0     		sub	sp, sp, #12
 25451              	.LCFI217:
 25452              		.cfi_def_cfa_offset 16
 25453 0004 00AF     		add	r7, sp, #0
 25454              		.cfi_offset 7, -4
 25455              	.LCFI218:
 25456              		.cfi_def_cfa_register 7
 25457 0006 7860     		str	r0, [r7, #4]
 25458 0008 0B46     		mov	r3, r1
 25459 000a 7B80     		strh	r3, [r7, #2]	@ movhi
2355:../Libraries/STM32F10x_StdPeriph_Driver/src/stm32f10x_tim.c ****   /* Check the parameters */
2356:../Libraries/STM32F10x_StdPeriph_Driver/src/stm32f10x_tim.c ****   assert_param(IS_TIM_LIST8_PERIPH(TIMx));
2357:../Libraries/STM32F10x_StdPeriph_Driver/src/stm32f10x_tim.c ****   assert_param(IS_TIM_IC_PRESCALER(TIM_ICPSC));
2358:../Libraries/STM32F10x_StdPeriph_Driver/src/stm32f10x_tim.c ****   /* Reset the IC1PSC Bits */
2359:../Libraries/STM32F10x_StdPeriph_Driver/src/stm32f10x_tim.c ****   TIMx->CCMR1 &= (uint16_t)~((uint16_t)TIM_CCMR1_IC1PSC);
 25460              		.loc 1 2359 0
 25461 000c 7B68     		ldr	r3, [r7, #4]
 25462 000e 1B8B     		ldrh	r3, [r3, #24]	@ movhi
 25463 0010 9BB2     		uxth	r3, r3
 25464 0012 23F00C03 		bic	r3, r3, #12
 25465 0016 9AB2     		uxth	r2, r3
 25466 0018 7B68     		ldr	r3, [r7, #4]
 25467 001a 1A83     		strh	r2, [r3, #24]	@ movhi
2360:../Libraries/STM32F10x_StdPeriph_Driver/src/stm32f10x_tim.c ****   /* Set the IC1PSC value */
2361:../Libraries/STM32F10x_StdPeriph_Driver/src/stm32f10x_tim.c ****   TIMx->CCMR1 |= TIM_ICPSC;
 25468              		.loc 1 2361 0
 25469 001c 7B68     		ldr	r3, [r7, #4]
 25470 001e 1B8B     		ldrh	r3, [r3, #24]	@ movhi
 25471 0020 9AB2     		uxth	r2, r3
 25472 0022 7B88     		ldrh	r3, [r7, #2]	@ movhi
 25473 0024 42EA0303 		orr	r3, r2, r3
 25474 0028 9AB2     		uxth	r2, r3
 25475 002a 7B68     		ldr	r3, [r7, #4]
 25476 002c 1A83     		strh	r2, [r3, #24]	@ movhi
2362:../Libraries/STM32F10x_StdPeriph_Driver/src/stm32f10x_tim.c **** }
 25477              		.loc 1 2362 0
 25478 002e 07F10C07 		add	r7, r7, #12
 25479 0032 BD46     		mov	sp, r7
 25480 0034 80BC     		pop	{r7}
 25481 0036 7047     		bx	lr
 25482              		.cfi_endproc
 25483              	.LFE101:
 25485              		.section	.text.TIM_SetIC2Prescaler,"ax",%progbits
 25486              		.align	2
 25487              		.global	TIM_SetIC2Prescaler
 25488              		.thumb
 25489              		.thumb_func
 25491              	TIM_SetIC2Prescaler:
 25492              	.LFB102:
2363:../Libraries/STM32F10x_StdPeriph_Driver/src/stm32f10x_tim.c **** 
2364:../Libraries/STM32F10x_StdPeriph_Driver/src/stm32f10x_tim.c **** /**
2365:../Libraries/STM32F10x_StdPeriph_Driver/src/stm32f10x_tim.c ****   * @brief  Sets the TIMx Input Capture 2 prescaler.
2366:../Libraries/STM32F10x_StdPeriph_Driver/src/stm32f10x_tim.c ****   * @param  TIMx: where x can be 1, 2, 3, 4, 5, 8, 9, 12 or 15 to select the TIM peripheral.
2367:../Libraries/STM32F10x_StdPeriph_Driver/src/stm32f10x_tim.c ****   * @param  TIM_ICPSC: specifies the Input Capture2 prescaler new value.
2368:../Libraries/STM32F10x_StdPeriph_Driver/src/stm32f10x_tim.c ****   *   This parameter can be one of the following values:
2369:../Libraries/STM32F10x_StdPeriph_Driver/src/stm32f10x_tim.c ****   *     @arg TIM_ICPSC_DIV1: no prescaler
2370:../Libraries/STM32F10x_StdPeriph_Driver/src/stm32f10x_tim.c ****   *     @arg TIM_ICPSC_DIV2: capture is done once every 2 events
2371:../Libraries/STM32F10x_StdPeriph_Driver/src/stm32f10x_tim.c ****   *     @arg TIM_ICPSC_DIV4: capture is done once every 4 events
2372:../Libraries/STM32F10x_StdPeriph_Driver/src/stm32f10x_tim.c ****   *     @arg TIM_ICPSC_DIV8: capture is done once every 8 events
2373:../Libraries/STM32F10x_StdPeriph_Driver/src/stm32f10x_tim.c ****   * @retval None
2374:../Libraries/STM32F10x_StdPeriph_Driver/src/stm32f10x_tim.c ****   */
2375:../Libraries/STM32F10x_StdPeriph_Driver/src/stm32f10x_tim.c **** void TIM_SetIC2Prescaler(TIM_TypeDef* TIMx, uint16_t TIM_ICPSC)
2376:../Libraries/STM32F10x_StdPeriph_Driver/src/stm32f10x_tim.c **** {
 25493              		.loc 1 2376 0
 25494              		.cfi_startproc
 25495              		@ args = 0, pretend = 0, frame = 8
 25496              		@ frame_needed = 1, uses_anonymous_args = 0
 25497              		@ link register save eliminated.
 25498 0000 80B4     		push	{r7}
 25499              	.LCFI219:
 25500              		.cfi_def_cfa_offset 4
 25501 0002 83B0     		sub	sp, sp, #12
 25502              	.LCFI220:
 25503              		.cfi_def_cfa_offset 16
 25504 0004 00AF     		add	r7, sp, #0
 25505              		.cfi_offset 7, -4
 25506              	.LCFI221:
 25507              		.cfi_def_cfa_register 7
 25508 0006 7860     		str	r0, [r7, #4]
 25509 0008 0B46     		mov	r3, r1
 25510 000a 7B80     		strh	r3, [r7, #2]	@ movhi
2377:../Libraries/STM32F10x_StdPeriph_Driver/src/stm32f10x_tim.c ****   /* Check the parameters */
2378:../Libraries/STM32F10x_StdPeriph_Driver/src/stm32f10x_tim.c ****   assert_param(IS_TIM_LIST6_PERIPH(TIMx));
2379:../Libraries/STM32F10x_StdPeriph_Driver/src/stm32f10x_tim.c ****   assert_param(IS_TIM_IC_PRESCALER(TIM_ICPSC));
2380:../Libraries/STM32F10x_StdPeriph_Driver/src/stm32f10x_tim.c ****   /* Reset the IC2PSC Bits */
2381:../Libraries/STM32F10x_StdPeriph_Driver/src/stm32f10x_tim.c ****   TIMx->CCMR1 &= (uint16_t)~((uint16_t)TIM_CCMR1_IC2PSC);
 25511              		.loc 1 2381 0
 25512 000c 7B68     		ldr	r3, [r7, #4]
 25513 000e 1B8B     		ldrh	r3, [r3, #24]	@ movhi
 25514 0010 9BB2     		uxth	r3, r3
 25515 0012 23F44063 		bic	r3, r3, #3072
 25516 0016 9AB2     		uxth	r2, r3
 25517 0018 7B68     		ldr	r3, [r7, #4]
 25518 001a 1A83     		strh	r2, [r3, #24]	@ movhi
2382:../Libraries/STM32F10x_StdPeriph_Driver/src/stm32f10x_tim.c ****   /* Set the IC2PSC value */
2383:../Libraries/STM32F10x_StdPeriph_Driver/src/stm32f10x_tim.c ****   TIMx->CCMR1 |= (uint16_t)(TIM_ICPSC << 8);
 25519              		.loc 1 2383 0
 25520 001c 7B68     		ldr	r3, [r7, #4]
 25521 001e 1B8B     		ldrh	r3, [r3, #24]	@ movhi
 25522 0020 9AB2     		uxth	r2, r3
 25523 0022 7B88     		ldrh	r3, [r7, #2]	@ movhi
 25524 0024 4FEA0323 		lsl	r3, r3, #8
 25525 0028 9BB2     		uxth	r3, r3
 25526 002a 42EA0303 		orr	r3, r2, r3
 25527 002e 9AB2     		uxth	r2, r3
 25528 0030 7B68     		ldr	r3, [r7, #4]
 25529 0032 1A83     		strh	r2, [r3, #24]	@ movhi
2384:../Libraries/STM32F10x_StdPeriph_Driver/src/stm32f10x_tim.c **** }
 25530              		.loc 1 2384 0
 25531 0034 07F10C07 		add	r7, r7, #12
 25532 0038 BD46     		mov	sp, r7
 25533 003a 80BC     		pop	{r7}
 25534 003c 7047     		bx	lr
 25535              		.cfi_endproc
 25536              	.LFE102:
 25538 003e 00BF     		.section	.text.TIM_SetIC3Prescaler,"ax",%progbits
 25539              		.align	2
 25540              		.global	TIM_SetIC3Prescaler
 25541              		.thumb
 25542              		.thumb_func
 25544              	TIM_SetIC3Prescaler:
 25545              	.LFB103:
2385:../Libraries/STM32F10x_StdPeriph_Driver/src/stm32f10x_tim.c **** 
2386:../Libraries/STM32F10x_StdPeriph_Driver/src/stm32f10x_tim.c **** /**
2387:../Libraries/STM32F10x_StdPeriph_Driver/src/stm32f10x_tim.c ****   * @brief  Sets the TIMx Input Capture 3 prescaler.
2388:../Libraries/STM32F10x_StdPeriph_Driver/src/stm32f10x_tim.c ****   * @param  TIMx: where x can be 1, 2, 3, 4, 5 or 8 to select the TIM peripheral.
2389:../Libraries/STM32F10x_StdPeriph_Driver/src/stm32f10x_tim.c ****   * @param  TIM_ICPSC: specifies the Input Capture3 prescaler new value.
2390:../Libraries/STM32F10x_StdPeriph_Driver/src/stm32f10x_tim.c ****   *   This parameter can be one of the following values:
2391:../Libraries/STM32F10x_StdPeriph_Driver/src/stm32f10x_tim.c ****   *     @arg TIM_ICPSC_DIV1: no prescaler
2392:../Libraries/STM32F10x_StdPeriph_Driver/src/stm32f10x_tim.c ****   *     @arg TIM_ICPSC_DIV2: capture is done once every 2 events
2393:../Libraries/STM32F10x_StdPeriph_Driver/src/stm32f10x_tim.c ****   *     @arg TIM_ICPSC_DIV4: capture is done once every 4 events
2394:../Libraries/STM32F10x_StdPeriph_Driver/src/stm32f10x_tim.c ****   *     @arg TIM_ICPSC_DIV8: capture is done once every 8 events
2395:../Libraries/STM32F10x_StdPeriph_Driver/src/stm32f10x_tim.c ****   * @retval None
2396:../Libraries/STM32F10x_StdPeriph_Driver/src/stm32f10x_tim.c ****   */
2397:../Libraries/STM32F10x_StdPeriph_Driver/src/stm32f10x_tim.c **** void TIM_SetIC3Prescaler(TIM_TypeDef* TIMx, uint16_t TIM_ICPSC)
2398:../Libraries/STM32F10x_StdPeriph_Driver/src/stm32f10x_tim.c **** {
 25546              		.loc 1 2398 0
 25547              		.cfi_startproc
 25548              		@ args = 0, pretend = 0, frame = 8
 25549              		@ frame_needed = 1, uses_anonymous_args = 0
 25550              		@ link register save eliminated.
 25551 0000 80B4     		push	{r7}
 25552              	.LCFI222:
 25553              		.cfi_def_cfa_offset 4
 25554 0002 83B0     		sub	sp, sp, #12
 25555              	.LCFI223:
 25556              		.cfi_def_cfa_offset 16
 25557 0004 00AF     		add	r7, sp, #0
 25558              		.cfi_offset 7, -4
 25559              	.LCFI224:
 25560              		.cfi_def_cfa_register 7
 25561 0006 7860     		str	r0, [r7, #4]
 25562 0008 0B46     		mov	r3, r1
 25563 000a 7B80     		strh	r3, [r7, #2]	@ movhi
2399:../Libraries/STM32F10x_StdPeriph_Driver/src/stm32f10x_tim.c ****   /* Check the parameters */
2400:../Libraries/STM32F10x_StdPeriph_Driver/src/stm32f10x_tim.c ****   assert_param(IS_TIM_LIST3_PERIPH(TIMx));
2401:../Libraries/STM32F10x_StdPeriph_Driver/src/stm32f10x_tim.c ****   assert_param(IS_TIM_IC_PRESCALER(TIM_ICPSC));
2402:../Libraries/STM32F10x_StdPeriph_Driver/src/stm32f10x_tim.c ****   /* Reset the IC3PSC Bits */
2403:../Libraries/STM32F10x_StdPeriph_Driver/src/stm32f10x_tim.c ****   TIMx->CCMR2 &= (uint16_t)~((uint16_t)TIM_CCMR2_IC3PSC);
 25564              		.loc 1 2403 0
 25565 000c 7B68     		ldr	r3, [r7, #4]
 25566 000e 9B8B     		ldrh	r3, [r3, #28]	@ movhi
 25567 0010 9BB2     		uxth	r3, r3
 25568 0012 23F00C03 		bic	r3, r3, #12
 25569 0016 9AB2     		uxth	r2, r3
 25570 0018 7B68     		ldr	r3, [r7, #4]
 25571 001a 9A83     		strh	r2, [r3, #28]	@ movhi
2404:../Libraries/STM32F10x_StdPeriph_Driver/src/stm32f10x_tim.c ****   /* Set the IC3PSC value */
2405:../Libraries/STM32F10x_StdPeriph_Driver/src/stm32f10x_tim.c ****   TIMx->CCMR2 |= TIM_ICPSC;
 25572              		.loc 1 2405 0
 25573 001c 7B68     		ldr	r3, [r7, #4]
 25574 001e 9B8B     		ldrh	r3, [r3, #28]	@ movhi
 25575 0020 9AB2     		uxth	r2, r3
 25576 0022 7B88     		ldrh	r3, [r7, #2]	@ movhi
 25577 0024 42EA0303 		orr	r3, r2, r3
 25578 0028 9AB2     		uxth	r2, r3
 25579 002a 7B68     		ldr	r3, [r7, #4]
 25580 002c 9A83     		strh	r2, [r3, #28]	@ movhi
2406:../Libraries/STM32F10x_StdPeriph_Driver/src/stm32f10x_tim.c **** }
 25581              		.loc 1 2406 0
 25582 002e 07F10C07 		add	r7, r7, #12
 25583 0032 BD46     		mov	sp, r7
 25584 0034 80BC     		pop	{r7}
 25585 0036 7047     		bx	lr
 25586              		.cfi_endproc
 25587              	.LFE103:
 25589              		.section	.text.TIM_SetIC4Prescaler,"ax",%progbits
 25590              		.align	2
 25591              		.global	TIM_SetIC4Prescaler
 25592              		.thumb
 25593              		.thumb_func
 25595              	TIM_SetIC4Prescaler:
 25596              	.LFB104:
2407:../Libraries/STM32F10x_StdPeriph_Driver/src/stm32f10x_tim.c **** 
2408:../Libraries/STM32F10x_StdPeriph_Driver/src/stm32f10x_tim.c **** /**
2409:../Libraries/STM32F10x_StdPeriph_Driver/src/stm32f10x_tim.c ****   * @brief  Sets the TIMx Input Capture 4 prescaler.
2410:../Libraries/STM32F10x_StdPeriph_Driver/src/stm32f10x_tim.c ****   * @param  TIMx: where x can be 1, 2, 3, 4, 5 or 8 to select the TIM peripheral.
2411:../Libraries/STM32F10x_StdPeriph_Driver/src/stm32f10x_tim.c ****   * @param  TIM_ICPSC: specifies the Input Capture4 prescaler new value.
2412:../Libraries/STM32F10x_StdPeriph_Driver/src/stm32f10x_tim.c ****   *   This parameter can be one of the following values:
2413:../Libraries/STM32F10x_StdPeriph_Driver/src/stm32f10x_tim.c ****   *     @arg TIM_ICPSC_DIV1: no prescaler
2414:../Libraries/STM32F10x_StdPeriph_Driver/src/stm32f10x_tim.c ****   *     @arg TIM_ICPSC_DIV2: capture is done once every 2 events
2415:../Libraries/STM32F10x_StdPeriph_Driver/src/stm32f10x_tim.c ****   *     @arg TIM_ICPSC_DIV4: capture is done once every 4 events
2416:../Libraries/STM32F10x_StdPeriph_Driver/src/stm32f10x_tim.c ****   *     @arg TIM_ICPSC_DIV8: capture is done once every 8 events
2417:../Libraries/STM32F10x_StdPeriph_Driver/src/stm32f10x_tim.c ****   * @retval None
2418:../Libraries/STM32F10x_StdPeriph_Driver/src/stm32f10x_tim.c ****   */
2419:../Libraries/STM32F10x_StdPeriph_Driver/src/stm32f10x_tim.c **** void TIM_SetIC4Prescaler(TIM_TypeDef* TIMx, uint16_t TIM_ICPSC)
2420:../Libraries/STM32F10x_StdPeriph_Driver/src/stm32f10x_tim.c **** {  
 25597              		.loc 1 2420 0
 25598              		.cfi_startproc
 25599              		@ args = 0, pretend = 0, frame = 8
 25600              		@ frame_needed = 1, uses_anonymous_args = 0
 25601              		@ link register save eliminated.
 25602 0000 80B4     		push	{r7}
 25603              	.LCFI225:
 25604              		.cfi_def_cfa_offset 4
 25605 0002 83B0     		sub	sp, sp, #12
 25606              	.LCFI226:
 25607              		.cfi_def_cfa_offset 16
 25608 0004 00AF     		add	r7, sp, #0
 25609              		.cfi_offset 7, -4
 25610              	.LCFI227:
 25611              		.cfi_def_cfa_register 7
 25612 0006 7860     		str	r0, [r7, #4]
 25613 0008 0B46     		mov	r3, r1
 25614 000a 7B80     		strh	r3, [r7, #2]	@ movhi
2421:../Libraries/STM32F10x_StdPeriph_Driver/src/stm32f10x_tim.c ****   /* Check the parameters */
2422:../Libraries/STM32F10x_StdPeriph_Driver/src/stm32f10x_tim.c ****   assert_param(IS_TIM_LIST3_PERIPH(TIMx));
2423:../Libraries/STM32F10x_StdPeriph_Driver/src/stm32f10x_tim.c ****   assert_param(IS_TIM_IC_PRESCALER(TIM_ICPSC));
2424:../Libraries/STM32F10x_StdPeriph_Driver/src/stm32f10x_tim.c ****   /* Reset the IC4PSC Bits */
2425:../Libraries/STM32F10x_StdPeriph_Driver/src/stm32f10x_tim.c ****   TIMx->CCMR2 &= (uint16_t)~((uint16_t)TIM_CCMR2_IC4PSC);
 25615              		.loc 1 2425 0
 25616 000c 7B68     		ldr	r3, [r7, #4]
 25617 000e 9B8B     		ldrh	r3, [r3, #28]	@ movhi
 25618 0010 9BB2     		uxth	r3, r3
 25619 0012 23F44063 		bic	r3, r3, #3072
 25620 0016 9AB2     		uxth	r2, r3
 25621 0018 7B68     		ldr	r3, [r7, #4]
 25622 001a 9A83     		strh	r2, [r3, #28]	@ movhi
2426:../Libraries/STM32F10x_StdPeriph_Driver/src/stm32f10x_tim.c ****   /* Set the IC4PSC value */
2427:../Libraries/STM32F10x_StdPeriph_Driver/src/stm32f10x_tim.c ****   TIMx->CCMR2 |= (uint16_t)(TIM_ICPSC << 8);
 25623              		.loc 1 2427 0
 25624 001c 7B68     		ldr	r3, [r7, #4]
 25625 001e 9B8B     		ldrh	r3, [r3, #28]	@ movhi
 25626 0020 9AB2     		uxth	r2, r3
 25627 0022 7B88     		ldrh	r3, [r7, #2]	@ movhi
 25628 0024 4FEA0323 		lsl	r3, r3, #8
 25629 0028 9BB2     		uxth	r3, r3
 25630 002a 42EA0303 		orr	r3, r2, r3
 25631 002e 9AB2     		uxth	r2, r3
 25632 0030 7B68     		ldr	r3, [r7, #4]
 25633 0032 9A83     		strh	r2, [r3, #28]	@ movhi
2428:../Libraries/STM32F10x_StdPeriph_Driver/src/stm32f10x_tim.c **** }
 25634              		.loc 1 2428 0
 25635 0034 07F10C07 		add	r7, r7, #12
 25636 0038 BD46     		mov	sp, r7
 25637 003a 80BC     		pop	{r7}
 25638 003c 7047     		bx	lr
 25639              		.cfi_endproc
 25640              	.LFE104:
 25642 003e 00BF     		.section	.text.TIM_SetClockDivision,"ax",%progbits
 25643              		.align	2
 25644              		.global	TIM_SetClockDivision
 25645              		.thumb
 25646              		.thumb_func
 25648              	TIM_SetClockDivision:
 25649              	.LFB105:
2429:../Libraries/STM32F10x_StdPeriph_Driver/src/stm32f10x_tim.c **** 
2430:../Libraries/STM32F10x_StdPeriph_Driver/src/stm32f10x_tim.c **** /**
2431:../Libraries/STM32F10x_StdPeriph_Driver/src/stm32f10x_tim.c ****   * @brief  Sets the TIMx Clock Division value.
2432:../Libraries/STM32F10x_StdPeriph_Driver/src/stm32f10x_tim.c ****   * @param  TIMx: where x can be  1 to 17 except 6 and 7 to select 
2433:../Libraries/STM32F10x_StdPeriph_Driver/src/stm32f10x_tim.c ****   *   the TIM peripheral.
2434:../Libraries/STM32F10x_StdPeriph_Driver/src/stm32f10x_tim.c ****   * @param  TIM_CKD: specifies the clock division value.
2435:../Libraries/STM32F10x_StdPeriph_Driver/src/stm32f10x_tim.c ****   *   This parameter can be one of the following value:
2436:../Libraries/STM32F10x_StdPeriph_Driver/src/stm32f10x_tim.c ****   *     @arg TIM_CKD_DIV1: TDTS = Tck_tim
2437:../Libraries/STM32F10x_StdPeriph_Driver/src/stm32f10x_tim.c ****   *     @arg TIM_CKD_DIV2: TDTS = 2*Tck_tim
2438:../Libraries/STM32F10x_StdPeriph_Driver/src/stm32f10x_tim.c ****   *     @arg TIM_CKD_DIV4: TDTS = 4*Tck_tim
2439:../Libraries/STM32F10x_StdPeriph_Driver/src/stm32f10x_tim.c ****   * @retval None
2440:../Libraries/STM32F10x_StdPeriph_Driver/src/stm32f10x_tim.c ****   */
2441:../Libraries/STM32F10x_StdPeriph_Driver/src/stm32f10x_tim.c **** void TIM_SetClockDivision(TIM_TypeDef* TIMx, uint16_t TIM_CKD)
2442:../Libraries/STM32F10x_StdPeriph_Driver/src/stm32f10x_tim.c **** {
 25650              		.loc 1 2442 0
 25651              		.cfi_startproc
 25652              		@ args = 0, pretend = 0, frame = 8
 25653              		@ frame_needed = 1, uses_anonymous_args = 0
 25654              		@ link register save eliminated.
 25655 0000 80B4     		push	{r7}
 25656              	.LCFI228:
 25657              		.cfi_def_cfa_offset 4
 25658 0002 83B0     		sub	sp, sp, #12
 25659              	.LCFI229:
 25660              		.cfi_def_cfa_offset 16
 25661 0004 00AF     		add	r7, sp, #0
 25662              		.cfi_offset 7, -4
 25663              	.LCFI230:
 25664              		.cfi_def_cfa_register 7
 25665 0006 7860     		str	r0, [r7, #4]
 25666 0008 0B46     		mov	r3, r1
 25667 000a 7B80     		strh	r3, [r7, #2]	@ movhi
2443:../Libraries/STM32F10x_StdPeriph_Driver/src/stm32f10x_tim.c ****   /* Check the parameters */
2444:../Libraries/STM32F10x_StdPeriph_Driver/src/stm32f10x_tim.c ****   assert_param(IS_TIM_LIST8_PERIPH(TIMx));
2445:../Libraries/STM32F10x_StdPeriph_Driver/src/stm32f10x_tim.c ****   assert_param(IS_TIM_CKD_DIV(TIM_CKD));
2446:../Libraries/STM32F10x_StdPeriph_Driver/src/stm32f10x_tim.c ****   /* Reset the CKD Bits */
2447:../Libraries/STM32F10x_StdPeriph_Driver/src/stm32f10x_tim.c ****   TIMx->CR1 &= (uint16_t)~((uint16_t)TIM_CR1_CKD);
 25668              		.loc 1 2447 0
 25669 000c 7B68     		ldr	r3, [r7, #4]
 25670 000e 1B88     		ldrh	r3, [r3, #0]	@ movhi
 25671 0010 9BB2     		uxth	r3, r3
 25672 0012 23F44073 		bic	r3, r3, #768
 25673 0016 9AB2     		uxth	r2, r3
 25674 0018 7B68     		ldr	r3, [r7, #4]
 25675 001a 1A80     		strh	r2, [r3, #0]	@ movhi
2448:../Libraries/STM32F10x_StdPeriph_Driver/src/stm32f10x_tim.c ****   /* Set the CKD value */
2449:../Libraries/STM32F10x_StdPeriph_Driver/src/stm32f10x_tim.c ****   TIMx->CR1 |= TIM_CKD;
 25676              		.loc 1 2449 0
 25677 001c 7B68     		ldr	r3, [r7, #4]
 25678 001e 1B88     		ldrh	r3, [r3, #0]	@ movhi
 25679 0020 9AB2     		uxth	r2, r3
 25680 0022 7B88     		ldrh	r3, [r7, #2]	@ movhi
 25681 0024 42EA0303 		orr	r3, r2, r3
 25682 0028 9AB2     		uxth	r2, r3
 25683 002a 7B68     		ldr	r3, [r7, #4]
 25684 002c 1A80     		strh	r2, [r3, #0]	@ movhi
2450:../Libraries/STM32F10x_StdPeriph_Driver/src/stm32f10x_tim.c **** }
 25685              		.loc 1 2450 0
 25686 002e 07F10C07 		add	r7, r7, #12
 25687 0032 BD46     		mov	sp, r7
 25688 0034 80BC     		pop	{r7}
 25689 0036 7047     		bx	lr
 25690              		.cfi_endproc
 25691              	.LFE105:
 25693              		.section	.text.TIM_GetCapture1,"ax",%progbits
 25694              		.align	2
 25695              		.global	TIM_GetCapture1
 25696              		.thumb
 25697              		.thumb_func
 25699              	TIM_GetCapture1:
 25700              	.LFB106:
2451:../Libraries/STM32F10x_StdPeriph_Driver/src/stm32f10x_tim.c **** 
2452:../Libraries/STM32F10x_StdPeriph_Driver/src/stm32f10x_tim.c **** /**
2453:../Libraries/STM32F10x_StdPeriph_Driver/src/stm32f10x_tim.c ****   * @brief  Gets the TIMx Input Capture 1 value.
2454:../Libraries/STM32F10x_StdPeriph_Driver/src/stm32f10x_tim.c ****   * @param  TIMx: where x can be 1 to 17 except 6 and 7 to select the TIM peripheral.
2455:../Libraries/STM32F10x_StdPeriph_Driver/src/stm32f10x_tim.c ****   * @retval Capture Compare 1 Register value.
2456:../Libraries/STM32F10x_StdPeriph_Driver/src/stm32f10x_tim.c ****   */
2457:../Libraries/STM32F10x_StdPeriph_Driver/src/stm32f10x_tim.c **** uint16_t TIM_GetCapture1(TIM_TypeDef* TIMx)
2458:../Libraries/STM32F10x_StdPeriph_Driver/src/stm32f10x_tim.c **** {
 25701              		.loc 1 2458 0
 25702              		.cfi_startproc
 25703              		@ args = 0, pretend = 0, frame = 8
 25704              		@ frame_needed = 1, uses_anonymous_args = 0
 25705              		@ link register save eliminated.
 25706 0000 80B4     		push	{r7}
 25707              	.LCFI231:
 25708              		.cfi_def_cfa_offset 4
 25709 0002 83B0     		sub	sp, sp, #12
 25710              	.LCFI232:
 25711              		.cfi_def_cfa_offset 16
 25712 0004 00AF     		add	r7, sp, #0
 25713              		.cfi_offset 7, -4
 25714              	.LCFI233:
 25715              		.cfi_def_cfa_register 7
 25716 0006 7860     		str	r0, [r7, #4]
2459:../Libraries/STM32F10x_StdPeriph_Driver/src/stm32f10x_tim.c ****   /* Check the parameters */
2460:../Libraries/STM32F10x_StdPeriph_Driver/src/stm32f10x_tim.c ****   assert_param(IS_TIM_LIST8_PERIPH(TIMx));
2461:../Libraries/STM32F10x_StdPeriph_Driver/src/stm32f10x_tim.c ****   /* Get the Capture 1 Register value */
2462:../Libraries/STM32F10x_StdPeriph_Driver/src/stm32f10x_tim.c ****   return TIMx->CCR1;
 25717              		.loc 1 2462 0
 25718 0008 7B68     		ldr	r3, [r7, #4]
 25719 000a 9B8E     		ldrh	r3, [r3, #52]	@ movhi
 25720 000c 9BB2     		uxth	r3, r3
2463:../Libraries/STM32F10x_StdPeriph_Driver/src/stm32f10x_tim.c **** }
 25721              		.loc 1 2463 0
 25722 000e 1846     		mov	r0, r3
 25723 0010 07F10C07 		add	r7, r7, #12
 25724 0014 BD46     		mov	sp, r7
 25725 0016 80BC     		pop	{r7}
 25726 0018 7047     		bx	lr
 25727              		.cfi_endproc
 25728              	.LFE106:
 25730 001a 00BF     		.section	.text.TIM_GetCapture2,"ax",%progbits
 25731              		.align	2
 25732              		.global	TIM_GetCapture2
 25733              		.thumb
 25734              		.thumb_func
 25736              	TIM_GetCapture2:
 25737              	.LFB107:
2464:../Libraries/STM32F10x_StdPeriph_Driver/src/stm32f10x_tim.c **** 
2465:../Libraries/STM32F10x_StdPeriph_Driver/src/stm32f10x_tim.c **** /**
2466:../Libraries/STM32F10x_StdPeriph_Driver/src/stm32f10x_tim.c ****   * @brief  Gets the TIMx Input Capture 2 value.
2467:../Libraries/STM32F10x_StdPeriph_Driver/src/stm32f10x_tim.c ****   * @param  TIMx: where x can be 1, 2, 3, 4, 5, 8, 9, 12 or 15 to select the TIM peripheral.
2468:../Libraries/STM32F10x_StdPeriph_Driver/src/stm32f10x_tim.c ****   * @retval Capture Compare 2 Register value.
2469:../Libraries/STM32F10x_StdPeriph_Driver/src/stm32f10x_tim.c ****   */
2470:../Libraries/STM32F10x_StdPeriph_Driver/src/stm32f10x_tim.c **** uint16_t TIM_GetCapture2(TIM_TypeDef* TIMx)
2471:../Libraries/STM32F10x_StdPeriph_Driver/src/stm32f10x_tim.c **** {
 25738              		.loc 1 2471 0
 25739              		.cfi_startproc
 25740              		@ args = 0, pretend = 0, frame = 8
 25741              		@ frame_needed = 1, uses_anonymous_args = 0
 25742              		@ link register save eliminated.
 25743 0000 80B4     		push	{r7}
 25744              	.LCFI234:
 25745              		.cfi_def_cfa_offset 4
 25746 0002 83B0     		sub	sp, sp, #12
 25747              	.LCFI235:
 25748              		.cfi_def_cfa_offset 16
 25749 0004 00AF     		add	r7, sp, #0
 25750              		.cfi_offset 7, -4
 25751              	.LCFI236:
 25752              		.cfi_def_cfa_register 7
 25753 0006 7860     		str	r0, [r7, #4]
2472:../Libraries/STM32F10x_StdPeriph_Driver/src/stm32f10x_tim.c ****   /* Check the parameters */
2473:../Libraries/STM32F10x_StdPeriph_Driver/src/stm32f10x_tim.c ****   assert_param(IS_TIM_LIST6_PERIPH(TIMx));
2474:../Libraries/STM32F10x_StdPeriph_Driver/src/stm32f10x_tim.c ****   /* Get the Capture 2 Register value */
2475:../Libraries/STM32F10x_StdPeriph_Driver/src/stm32f10x_tim.c ****   return TIMx->CCR2;
 25754              		.loc 1 2475 0
 25755 0008 7B68     		ldr	r3, [r7, #4]
 25756 000a 1B8F     		ldrh	r3, [r3, #56]	@ movhi
 25757 000c 9BB2     		uxth	r3, r3
2476:../Libraries/STM32F10x_StdPeriph_Driver/src/stm32f10x_tim.c **** }
 25758              		.loc 1 2476 0
 25759 000e 1846     		mov	r0, r3
 25760 0010 07F10C07 		add	r7, r7, #12
 25761 0014 BD46     		mov	sp, r7
 25762 0016 80BC     		pop	{r7}
 25763 0018 7047     		bx	lr
 25764              		.cfi_endproc
 25765              	.LFE107:
 25767 001a 00BF     		.section	.text.TIM_GetCapture3,"ax",%progbits
 25768              		.align	2
 25769              		.global	TIM_GetCapture3
 25770              		.thumb
 25771              		.thumb_func
 25773              	TIM_GetCapture3:
 25774              	.LFB108:
2477:../Libraries/STM32F10x_StdPeriph_Driver/src/stm32f10x_tim.c **** 
2478:../Libraries/STM32F10x_StdPeriph_Driver/src/stm32f10x_tim.c **** /**
2479:../Libraries/STM32F10x_StdPeriph_Driver/src/stm32f10x_tim.c ****   * @brief  Gets the TIMx Input Capture 3 value.
2480:../Libraries/STM32F10x_StdPeriph_Driver/src/stm32f10x_tim.c ****   * @param  TIMx: where x can be 1, 2, 3, 4, 5 or 8 to select the TIM peripheral.
2481:../Libraries/STM32F10x_StdPeriph_Driver/src/stm32f10x_tim.c ****   * @retval Capture Compare 3 Register value.
2482:../Libraries/STM32F10x_StdPeriph_Driver/src/stm32f10x_tim.c ****   */
2483:../Libraries/STM32F10x_StdPeriph_Driver/src/stm32f10x_tim.c **** uint16_t TIM_GetCapture3(TIM_TypeDef* TIMx)
2484:../Libraries/STM32F10x_StdPeriph_Driver/src/stm32f10x_tim.c **** {
 25775              		.loc 1 2484 0
 25776              		.cfi_startproc
 25777              		@ args = 0, pretend = 0, frame = 8
 25778              		@ frame_needed = 1, uses_anonymous_args = 0
 25779              		@ link register save eliminated.
 25780 0000 80B4     		push	{r7}
 25781              	.LCFI237:
 25782              		.cfi_def_cfa_offset 4
 25783 0002 83B0     		sub	sp, sp, #12
 25784              	.LCFI238:
 25785              		.cfi_def_cfa_offset 16
 25786 0004 00AF     		add	r7, sp, #0
 25787              		.cfi_offset 7, -4
 25788              	.LCFI239:
 25789              		.cfi_def_cfa_register 7
 25790 0006 7860     		str	r0, [r7, #4]
2485:../Libraries/STM32F10x_StdPeriph_Driver/src/stm32f10x_tim.c ****   /* Check the parameters */
2486:../Libraries/STM32F10x_StdPeriph_Driver/src/stm32f10x_tim.c ****   assert_param(IS_TIM_LIST3_PERIPH(TIMx)); 
2487:../Libraries/STM32F10x_StdPeriph_Driver/src/stm32f10x_tim.c ****   /* Get the Capture 3 Register value */
2488:../Libraries/STM32F10x_StdPeriph_Driver/src/stm32f10x_tim.c ****   return TIMx->CCR3;
 25791              		.loc 1 2488 0
 25792 0008 7B68     		ldr	r3, [r7, #4]
 25793 000a 9B8F     		ldrh	r3, [r3, #60]	@ movhi
 25794 000c 9BB2     		uxth	r3, r3
2489:../Libraries/STM32F10x_StdPeriph_Driver/src/stm32f10x_tim.c **** }
 25795              		.loc 1 2489 0
 25796 000e 1846     		mov	r0, r3
 25797 0010 07F10C07 		add	r7, r7, #12
 25798 0014 BD46     		mov	sp, r7
 25799 0016 80BC     		pop	{r7}
 25800 0018 7047     		bx	lr
 25801              		.cfi_endproc
 25802              	.LFE108:
 25804 001a 00BF     		.section	.text.TIM_GetCapture4,"ax",%progbits
 25805              		.align	2
 25806              		.global	TIM_GetCapture4
 25807              		.thumb
 25808              		.thumb_func
 25810              	TIM_GetCapture4:
 25811              	.LFB109:
2490:../Libraries/STM32F10x_StdPeriph_Driver/src/stm32f10x_tim.c **** 
2491:../Libraries/STM32F10x_StdPeriph_Driver/src/stm32f10x_tim.c **** /**
2492:../Libraries/STM32F10x_StdPeriph_Driver/src/stm32f10x_tim.c ****   * @brief  Gets the TIMx Input Capture 4 value.
2493:../Libraries/STM32F10x_StdPeriph_Driver/src/stm32f10x_tim.c ****   * @param  TIMx: where x can be 1, 2, 3, 4, 5 or 8 to select the TIM peripheral.
2494:../Libraries/STM32F10x_StdPeriph_Driver/src/stm32f10x_tim.c ****   * @retval Capture Compare 4 Register value.
2495:../Libraries/STM32F10x_StdPeriph_Driver/src/stm32f10x_tim.c ****   */
2496:../Libraries/STM32F10x_StdPeriph_Driver/src/stm32f10x_tim.c **** uint16_t TIM_GetCapture4(TIM_TypeDef* TIMx)
2497:../Libraries/STM32F10x_StdPeriph_Driver/src/stm32f10x_tim.c **** {
 25812              		.loc 1 2497 0
 25813              		.cfi_startproc
 25814              		@ args = 0, pretend = 0, frame = 8
 25815              		@ frame_needed = 1, uses_anonymous_args = 0
 25816              		@ link register save eliminated.
 25817 0000 80B4     		push	{r7}
 25818              	.LCFI240:
 25819              		.cfi_def_cfa_offset 4
 25820 0002 83B0     		sub	sp, sp, #12
 25821              	.LCFI241:
 25822              		.cfi_def_cfa_offset 16
 25823 0004 00AF     		add	r7, sp, #0
 25824              		.cfi_offset 7, -4
 25825              	.LCFI242:
 25826              		.cfi_def_cfa_register 7
 25827 0006 7860     		str	r0, [r7, #4]
2498:../Libraries/STM32F10x_StdPeriph_Driver/src/stm32f10x_tim.c ****   /* Check the parameters */
2499:../Libraries/STM32F10x_StdPeriph_Driver/src/stm32f10x_tim.c ****   assert_param(IS_TIM_LIST3_PERIPH(TIMx));
2500:../Libraries/STM32F10x_StdPeriph_Driver/src/stm32f10x_tim.c ****   /* Get the Capture 4 Register value */
2501:../Libraries/STM32F10x_StdPeriph_Driver/src/stm32f10x_tim.c ****   return TIMx->CCR4;
 25828              		.loc 1 2501 0
 25829 0008 7B68     		ldr	r3, [r7, #4]
 25830 000a B3F84030 		ldrh	r3, [r3, #64]	@ movhi
 25831 000e 9BB2     		uxth	r3, r3
2502:../Libraries/STM32F10x_StdPeriph_Driver/src/stm32f10x_tim.c **** }
 25832              		.loc 1 2502 0
 25833 0010 1846     		mov	r0, r3
 25834 0012 07F10C07 		add	r7, r7, #12
 25835 0016 BD46     		mov	sp, r7
 25836 0018 80BC     		pop	{r7}
 25837 001a 7047     		bx	lr
 25838              		.cfi_endproc
 25839              	.LFE109:
 25841              		.section	.text.TIM_GetCounter,"ax",%progbits
 25842              		.align	2
 25843              		.global	TIM_GetCounter
 25844              		.thumb
 25845              		.thumb_func
 25847              	TIM_GetCounter:
 25848              	.LFB110:
2503:../Libraries/STM32F10x_StdPeriph_Driver/src/stm32f10x_tim.c **** 
2504:../Libraries/STM32F10x_StdPeriph_Driver/src/stm32f10x_tim.c **** /**
2505:../Libraries/STM32F10x_StdPeriph_Driver/src/stm32f10x_tim.c ****   * @brief  Gets the TIMx Counter value.
2506:../Libraries/STM32F10x_StdPeriph_Driver/src/stm32f10x_tim.c ****   * @param  TIMx: where x can be 1 to 17 to select the TIM peripheral.
2507:../Libraries/STM32F10x_StdPeriph_Driver/src/stm32f10x_tim.c ****   * @retval Counter Register value.
2508:../Libraries/STM32F10x_StdPeriph_Driver/src/stm32f10x_tim.c ****   */
2509:../Libraries/STM32F10x_StdPeriph_Driver/src/stm32f10x_tim.c **** uint16_t TIM_GetCounter(TIM_TypeDef* TIMx)
2510:../Libraries/STM32F10x_StdPeriph_Driver/src/stm32f10x_tim.c **** {
 25849              		.loc 1 2510 0
 25850              		.cfi_startproc
 25851              		@ args = 0, pretend = 0, frame = 8
 25852              		@ frame_needed = 1, uses_anonymous_args = 0
 25853              		@ link register save eliminated.
 25854 0000 80B4     		push	{r7}
 25855              	.LCFI243:
 25856              		.cfi_def_cfa_offset 4
 25857 0002 83B0     		sub	sp, sp, #12
 25858              	.LCFI244:
 25859              		.cfi_def_cfa_offset 16
 25860 0004 00AF     		add	r7, sp, #0
 25861              		.cfi_offset 7, -4
 25862              	.LCFI245:
 25863              		.cfi_def_cfa_register 7
 25864 0006 7860     		str	r0, [r7, #4]
2511:../Libraries/STM32F10x_StdPeriph_Driver/src/stm32f10x_tim.c ****   /* Check the parameters */
2512:../Libraries/STM32F10x_StdPeriph_Driver/src/stm32f10x_tim.c ****   assert_param(IS_TIM_ALL_PERIPH(TIMx));
2513:../Libraries/STM32F10x_StdPeriph_Driver/src/stm32f10x_tim.c ****   /* Get the Counter Register value */
2514:../Libraries/STM32F10x_StdPeriph_Driver/src/stm32f10x_tim.c ****   return TIMx->CNT;
 25865              		.loc 1 2514 0
 25866 0008 7B68     		ldr	r3, [r7, #4]
 25867 000a 9B8C     		ldrh	r3, [r3, #36]	@ movhi
 25868 000c 9BB2     		uxth	r3, r3
2515:../Libraries/STM32F10x_StdPeriph_Driver/src/stm32f10x_tim.c **** }
 25869              		.loc 1 2515 0
 25870 000e 1846     		mov	r0, r3
 25871 0010 07F10C07 		add	r7, r7, #12
 25872 0014 BD46     		mov	sp, r7
 25873 0016 80BC     		pop	{r7}
 25874 0018 7047     		bx	lr
 25875              		.cfi_endproc
 25876              	.LFE110:
 25878 001a 00BF     		.section	.text.TIM_GetPrescaler,"ax",%progbits
 25879              		.align	2
 25880              		.global	TIM_GetPrescaler
 25881              		.thumb
 25882              		.thumb_func
 25884              	TIM_GetPrescaler:
 25885              	.LFB111:
2516:../Libraries/STM32F10x_StdPeriph_Driver/src/stm32f10x_tim.c **** 
2517:../Libraries/STM32F10x_StdPeriph_Driver/src/stm32f10x_tim.c **** /**
2518:../Libraries/STM32F10x_StdPeriph_Driver/src/stm32f10x_tim.c ****   * @brief  Gets the TIMx Prescaler value.
2519:../Libraries/STM32F10x_StdPeriph_Driver/src/stm32f10x_tim.c ****   * @param  TIMx: where x can be 1 to 17 to select the TIM peripheral.
2520:../Libraries/STM32F10x_StdPeriph_Driver/src/stm32f10x_tim.c ****   * @retval Prescaler Register value.
2521:../Libraries/STM32F10x_StdPeriph_Driver/src/stm32f10x_tim.c ****   */
2522:../Libraries/STM32F10x_StdPeriph_Driver/src/stm32f10x_tim.c **** uint16_t TIM_GetPrescaler(TIM_TypeDef* TIMx)
2523:../Libraries/STM32F10x_StdPeriph_Driver/src/stm32f10x_tim.c **** {
 25886              		.loc 1 2523 0
 25887              		.cfi_startproc
 25888              		@ args = 0, pretend = 0, frame = 8
 25889              		@ frame_needed = 1, uses_anonymous_args = 0
 25890              		@ link register save eliminated.
 25891 0000 80B4     		push	{r7}
 25892              	.LCFI246:
 25893              		.cfi_def_cfa_offset 4
 25894 0002 83B0     		sub	sp, sp, #12
 25895              	.LCFI247:
 25896              		.cfi_def_cfa_offset 16
 25897 0004 00AF     		add	r7, sp, #0
 25898              		.cfi_offset 7, -4
 25899              	.LCFI248:
 25900              		.cfi_def_cfa_register 7
 25901 0006 7860     		str	r0, [r7, #4]
2524:../Libraries/STM32F10x_StdPeriph_Driver/src/stm32f10x_tim.c ****   /* Check the parameters */
2525:../Libraries/STM32F10x_StdPeriph_Driver/src/stm32f10x_tim.c ****   assert_param(IS_TIM_ALL_PERIPH(TIMx));
2526:../Libraries/STM32F10x_StdPeriph_Driver/src/stm32f10x_tim.c ****   /* Get the Prescaler Register value */
2527:../Libraries/STM32F10x_StdPeriph_Driver/src/stm32f10x_tim.c ****   return TIMx->PSC;
 25902              		.loc 1 2527 0
 25903 0008 7B68     		ldr	r3, [r7, #4]
 25904 000a 1B8D     		ldrh	r3, [r3, #40]	@ movhi
 25905 000c 9BB2     		uxth	r3, r3
2528:../Libraries/STM32F10x_StdPeriph_Driver/src/stm32f10x_tim.c **** }
 25906              		.loc 1 2528 0
 25907 000e 1846     		mov	r0, r3
 25908 0010 07F10C07 		add	r7, r7, #12
 25909 0014 BD46     		mov	sp, r7
 25910 0016 80BC     		pop	{r7}
 25911 0018 7047     		bx	lr
 25912              		.cfi_endproc
 25913              	.LFE111:
 25915 001a 00BF     		.section	.text.TIM_GetFlagStatus,"ax",%progbits
 25916              		.align	2
 25917              		.global	TIM_GetFlagStatus
 25918              		.thumb
 25919              		.thumb_func
 25921              	TIM_GetFlagStatus:
 25922              	.LFB112:
2529:../Libraries/STM32F10x_StdPeriph_Driver/src/stm32f10x_tim.c **** 
2530:../Libraries/STM32F10x_StdPeriph_Driver/src/stm32f10x_tim.c **** /**
2531:../Libraries/STM32F10x_StdPeriph_Driver/src/stm32f10x_tim.c ****   * @brief  Checks whether the specified TIM flag is set or not.
2532:../Libraries/STM32F10x_StdPeriph_Driver/src/stm32f10x_tim.c ****   * @param  TIMx: where x can be 1 to 17 to select the TIM peripheral.
2533:../Libraries/STM32F10x_StdPeriph_Driver/src/stm32f10x_tim.c ****   * @param  TIM_FLAG: specifies the flag to check.
2534:../Libraries/STM32F10x_StdPeriph_Driver/src/stm32f10x_tim.c ****   *   This parameter can be one of the following values:
2535:../Libraries/STM32F10x_StdPeriph_Driver/src/stm32f10x_tim.c ****   *     @arg TIM_FLAG_Update: TIM update Flag
2536:../Libraries/STM32F10x_StdPeriph_Driver/src/stm32f10x_tim.c ****   *     @arg TIM_FLAG_CC1: TIM Capture Compare 1 Flag
2537:../Libraries/STM32F10x_StdPeriph_Driver/src/stm32f10x_tim.c ****   *     @arg TIM_FLAG_CC2: TIM Capture Compare 2 Flag
2538:../Libraries/STM32F10x_StdPeriph_Driver/src/stm32f10x_tim.c ****   *     @arg TIM_FLAG_CC3: TIM Capture Compare 3 Flag
2539:../Libraries/STM32F10x_StdPeriph_Driver/src/stm32f10x_tim.c ****   *     @arg TIM_FLAG_CC4: TIM Capture Compare 4 Flag
2540:../Libraries/STM32F10x_StdPeriph_Driver/src/stm32f10x_tim.c ****   *     @arg TIM_FLAG_COM: TIM Commutation Flag
2541:../Libraries/STM32F10x_StdPeriph_Driver/src/stm32f10x_tim.c ****   *     @arg TIM_FLAG_Trigger: TIM Trigger Flag
2542:../Libraries/STM32F10x_StdPeriph_Driver/src/stm32f10x_tim.c ****   *     @arg TIM_FLAG_Break: TIM Break Flag
2543:../Libraries/STM32F10x_StdPeriph_Driver/src/stm32f10x_tim.c ****   *     @arg TIM_FLAG_CC1OF: TIM Capture Compare 1 overcapture Flag
2544:../Libraries/STM32F10x_StdPeriph_Driver/src/stm32f10x_tim.c ****   *     @arg TIM_FLAG_CC2OF: TIM Capture Compare 2 overcapture Flag
2545:../Libraries/STM32F10x_StdPeriph_Driver/src/stm32f10x_tim.c ****   *     @arg TIM_FLAG_CC3OF: TIM Capture Compare 3 overcapture Flag
2546:../Libraries/STM32F10x_StdPeriph_Driver/src/stm32f10x_tim.c ****   *     @arg TIM_FLAG_CC4OF: TIM Capture Compare 4 overcapture Flag
2547:../Libraries/STM32F10x_StdPeriph_Driver/src/stm32f10x_tim.c ****   * @note
2548:../Libraries/STM32F10x_StdPeriph_Driver/src/stm32f10x_tim.c ****   *   - TIM6 and TIM7 can have only one update flag. 
2549:../Libraries/STM32F10x_StdPeriph_Driver/src/stm32f10x_tim.c ****   *   - TIM9, TIM12 and TIM15 can have only TIM_FLAG_Update, TIM_FLAG_CC1,
2550:../Libraries/STM32F10x_StdPeriph_Driver/src/stm32f10x_tim.c ****   *      TIM_FLAG_CC2 or TIM_FLAG_Trigger. 
2551:../Libraries/STM32F10x_StdPeriph_Driver/src/stm32f10x_tim.c ****   *   - TIM10, TIM11, TIM13, TIM14, TIM16 and TIM17 can have TIM_FLAG_Update or TIM_FLAG_CC1.   
2552:../Libraries/STM32F10x_StdPeriph_Driver/src/stm32f10x_tim.c ****   *   - TIM_FLAG_Break is used only with TIM1, TIM8 and TIM15. 
2553:../Libraries/STM32F10x_StdPeriph_Driver/src/stm32f10x_tim.c ****   *   - TIM_FLAG_COM is used only with TIM1, TIM8, TIM15, TIM16 and TIM17.    
2554:../Libraries/STM32F10x_StdPeriph_Driver/src/stm32f10x_tim.c ****   * @retval The new state of TIM_FLAG (SET or RESET).
2555:../Libraries/STM32F10x_StdPeriph_Driver/src/stm32f10x_tim.c ****   */
2556:../Libraries/STM32F10x_StdPeriph_Driver/src/stm32f10x_tim.c **** FlagStatus TIM_GetFlagStatus(TIM_TypeDef* TIMx, uint16_t TIM_FLAG)
2557:../Libraries/STM32F10x_StdPeriph_Driver/src/stm32f10x_tim.c **** { 
 25923              		.loc 1 2557 0
 25924              		.cfi_startproc
 25925              		@ args = 0, pretend = 0, frame = 16
 25926              		@ frame_needed = 1, uses_anonymous_args = 0
 25927              		@ link register save eliminated.
 25928 0000 80B4     		push	{r7}
 25929              	.LCFI249:
 25930              		.cfi_def_cfa_offset 4
 25931 0002 85B0     		sub	sp, sp, #20
 25932              	.LCFI250:
 25933              		.cfi_def_cfa_offset 24
 25934 0004 00AF     		add	r7, sp, #0
 25935              		.cfi_offset 7, -4
 25936              	.LCFI251:
 25937              		.cfi_def_cfa_register 7
 25938 0006 7860     		str	r0, [r7, #4]
 25939 0008 0B46     		mov	r3, r1
 25940 000a 7B80     		strh	r3, [r7, #2]	@ movhi
2558:../Libraries/STM32F10x_StdPeriph_Driver/src/stm32f10x_tim.c ****   ITStatus bitstatus = RESET;  
 25941              		.loc 1 2558 0
 25942 000c 4FF00003 		mov	r3, #0
 25943 0010 FB73     		strb	r3, [r7, #15]
2559:../Libraries/STM32F10x_StdPeriph_Driver/src/stm32f10x_tim.c ****   /* Check the parameters */
2560:../Libraries/STM32F10x_StdPeriph_Driver/src/stm32f10x_tim.c ****   assert_param(IS_TIM_ALL_PERIPH(TIMx));
2561:../Libraries/STM32F10x_StdPeriph_Driver/src/stm32f10x_tim.c ****   assert_param(IS_TIM_GET_FLAG(TIM_FLAG));
2562:../Libraries/STM32F10x_StdPeriph_Driver/src/stm32f10x_tim.c ****   
2563:../Libraries/STM32F10x_StdPeriph_Driver/src/stm32f10x_tim.c ****   if ((TIMx->SR & TIM_FLAG) != (uint16_t)RESET)
 25944              		.loc 1 2563 0
 25945 0012 7B68     		ldr	r3, [r7, #4]
 25946 0014 1B8A     		ldrh	r3, [r3, #16]	@ movhi
 25947 0016 9AB2     		uxth	r2, r3
 25948 0018 7B88     		ldrh	r3, [r7, #2]	@ movhi
 25949 001a 02EA0303 		and	r3, r2, r3
 25950 001e 9BB2     		uxth	r3, r3
 25951 0020 002B     		cmp	r3, #0
 25952 0022 03D0     		beq	.L164
2564:../Libraries/STM32F10x_StdPeriph_Driver/src/stm32f10x_tim.c ****   {
2565:../Libraries/STM32F10x_StdPeriph_Driver/src/stm32f10x_tim.c ****     bitstatus = SET;
 25953              		.loc 1 2565 0
 25954 0024 4FF00103 		mov	r3, #1
 25955 0028 FB73     		strb	r3, [r7, #15]
 25956 002a 02E0     		b	.L165
 25957              	.L164:
2566:../Libraries/STM32F10x_StdPeriph_Driver/src/stm32f10x_tim.c ****   }
2567:../Libraries/STM32F10x_StdPeriph_Driver/src/stm32f10x_tim.c ****   else
2568:../Libraries/STM32F10x_StdPeriph_Driver/src/stm32f10x_tim.c ****   {
2569:../Libraries/STM32F10x_StdPeriph_Driver/src/stm32f10x_tim.c ****     bitstatus = RESET;
 25958              		.loc 1 2569 0
 25959 002c 4FF00003 		mov	r3, #0
 25960 0030 FB73     		strb	r3, [r7, #15]
 25961              	.L165:
2570:../Libraries/STM32F10x_StdPeriph_Driver/src/stm32f10x_tim.c ****   }
2571:../Libraries/STM32F10x_StdPeriph_Driver/src/stm32f10x_tim.c ****   return bitstatus;
 25962              		.loc 1 2571 0
 25963 0032 FB7B     		ldrb	r3, [r7, #15]	@ zero_extendqisi2
2572:../Libraries/STM32F10x_StdPeriph_Driver/src/stm32f10x_tim.c **** }
 25964              		.loc 1 2572 0
 25965 0034 1846     		mov	r0, r3
 25966 0036 07F11407 		add	r7, r7, #20
 25967 003a BD46     		mov	sp, r7
 25968 003c 80BC     		pop	{r7}
 25969 003e 7047     		bx	lr
 25970              		.cfi_endproc
 25971              	.LFE112:
 25973              		.section	.text.TIM_ClearFlag,"ax",%progbits
 25974              		.align	2
 25975              		.global	TIM_ClearFlag
 25976              		.thumb
 25977              		.thumb_func
 25979              	TIM_ClearFlag:
 25980              	.LFB113:
2573:../Libraries/STM32F10x_StdPeriph_Driver/src/stm32f10x_tim.c **** 
2574:../Libraries/STM32F10x_StdPeriph_Driver/src/stm32f10x_tim.c **** /**
2575:../Libraries/STM32F10x_StdPeriph_Driver/src/stm32f10x_tim.c ****   * @brief  Clears the TIMx's pending flags.
2576:../Libraries/STM32F10x_StdPeriph_Driver/src/stm32f10x_tim.c ****   * @param  TIMx: where x can be 1 to 17 to select the TIM peripheral.
2577:../Libraries/STM32F10x_StdPeriph_Driver/src/stm32f10x_tim.c ****   * @param  TIM_FLAG: specifies the flag bit to clear.
2578:../Libraries/STM32F10x_StdPeriph_Driver/src/stm32f10x_tim.c ****   *   This parameter can be any combination of the following values:
2579:../Libraries/STM32F10x_StdPeriph_Driver/src/stm32f10x_tim.c ****   *     @arg TIM_FLAG_Update: TIM update Flag
2580:../Libraries/STM32F10x_StdPeriph_Driver/src/stm32f10x_tim.c ****   *     @arg TIM_FLAG_CC1: TIM Capture Compare 1 Flag
2581:../Libraries/STM32F10x_StdPeriph_Driver/src/stm32f10x_tim.c ****   *     @arg TIM_FLAG_CC2: TIM Capture Compare 2 Flag
2582:../Libraries/STM32F10x_StdPeriph_Driver/src/stm32f10x_tim.c ****   *     @arg TIM_FLAG_CC3: TIM Capture Compare 3 Flag
2583:../Libraries/STM32F10x_StdPeriph_Driver/src/stm32f10x_tim.c ****   *     @arg TIM_FLAG_CC4: TIM Capture Compare 4 Flag
2584:../Libraries/STM32F10x_StdPeriph_Driver/src/stm32f10x_tim.c ****   *     @arg TIM_FLAG_COM: TIM Commutation Flag
2585:../Libraries/STM32F10x_StdPeriph_Driver/src/stm32f10x_tim.c ****   *     @arg TIM_FLAG_Trigger: TIM Trigger Flag
2586:../Libraries/STM32F10x_StdPeriph_Driver/src/stm32f10x_tim.c ****   *     @arg TIM_FLAG_Break: TIM Break Flag
2587:../Libraries/STM32F10x_StdPeriph_Driver/src/stm32f10x_tim.c ****   *     @arg TIM_FLAG_CC1OF: TIM Capture Compare 1 overcapture Flag
2588:../Libraries/STM32F10x_StdPeriph_Driver/src/stm32f10x_tim.c ****   *     @arg TIM_FLAG_CC2OF: TIM Capture Compare 2 overcapture Flag
2589:../Libraries/STM32F10x_StdPeriph_Driver/src/stm32f10x_tim.c ****   *     @arg TIM_FLAG_CC3OF: TIM Capture Compare 3 overcapture Flag
2590:../Libraries/STM32F10x_StdPeriph_Driver/src/stm32f10x_tim.c ****   *     @arg TIM_FLAG_CC4OF: TIM Capture Compare 4 overcapture Flag
2591:../Libraries/STM32F10x_StdPeriph_Driver/src/stm32f10x_tim.c ****   * @note
2592:../Libraries/STM32F10x_StdPeriph_Driver/src/stm32f10x_tim.c ****   *   - TIM6 and TIM7 can have only one update flag. 
2593:../Libraries/STM32F10x_StdPeriph_Driver/src/stm32f10x_tim.c ****   *   - TIM9, TIM12 and TIM15 can have only TIM_FLAG_Update, TIM_FLAG_CC1,
2594:../Libraries/STM32F10x_StdPeriph_Driver/src/stm32f10x_tim.c ****   *      TIM_FLAG_CC2 or TIM_FLAG_Trigger. 
2595:../Libraries/STM32F10x_StdPeriph_Driver/src/stm32f10x_tim.c ****   *   - TIM10, TIM11, TIM13, TIM14, TIM16 and TIM17 can have TIM_FLAG_Update or TIM_FLAG_CC1.   
2596:../Libraries/STM32F10x_StdPeriph_Driver/src/stm32f10x_tim.c ****   *   - TIM_FLAG_Break is used only with TIM1, TIM8 and TIM15. 
2597:../Libraries/STM32F10x_StdPeriph_Driver/src/stm32f10x_tim.c ****   *   - TIM_FLAG_COM is used only with TIM1, TIM8, TIM15, TIM16 and TIM17.   
2598:../Libraries/STM32F10x_StdPeriph_Driver/src/stm32f10x_tim.c ****   * @retval None
2599:../Libraries/STM32F10x_StdPeriph_Driver/src/stm32f10x_tim.c ****   */
2600:../Libraries/STM32F10x_StdPeriph_Driver/src/stm32f10x_tim.c **** void TIM_ClearFlag(TIM_TypeDef* TIMx, uint16_t TIM_FLAG)
2601:../Libraries/STM32F10x_StdPeriph_Driver/src/stm32f10x_tim.c **** {  
 25981              		.loc 1 2601 0
 25982              		.cfi_startproc
 25983              		@ args = 0, pretend = 0, frame = 8
 25984              		@ frame_needed = 1, uses_anonymous_args = 0
 25985              		@ link register save eliminated.
 25986 0000 80B4     		push	{r7}
 25987              	.LCFI252:
 25988              		.cfi_def_cfa_offset 4
 25989 0002 83B0     		sub	sp, sp, #12
 25990              	.LCFI253:
 25991              		.cfi_def_cfa_offset 16
 25992 0004 00AF     		add	r7, sp, #0
 25993              		.cfi_offset 7, -4
 25994              	.LCFI254:
 25995              		.cfi_def_cfa_register 7
 25996 0006 7860     		str	r0, [r7, #4]
 25997 0008 0B46     		mov	r3, r1
 25998 000a 7B80     		strh	r3, [r7, #2]	@ movhi
2602:../Libraries/STM32F10x_StdPeriph_Driver/src/stm32f10x_tim.c ****   /* Check the parameters */
2603:../Libraries/STM32F10x_StdPeriph_Driver/src/stm32f10x_tim.c ****   assert_param(IS_TIM_ALL_PERIPH(TIMx));
2604:../Libraries/STM32F10x_StdPeriph_Driver/src/stm32f10x_tim.c ****   assert_param(IS_TIM_CLEAR_FLAG(TIM_FLAG));
2605:../Libraries/STM32F10x_StdPeriph_Driver/src/stm32f10x_tim.c ****    
2606:../Libraries/STM32F10x_StdPeriph_Driver/src/stm32f10x_tim.c ****   /* Clear the flags */
2607:../Libraries/STM32F10x_StdPeriph_Driver/src/stm32f10x_tim.c ****   TIMx->SR = (uint16_t)~TIM_FLAG;
 25999              		.loc 1 2607 0
 26000 000c 7B88     		ldrh	r3, [r7, #2]	@ movhi
 26001 000e 6FEA0303 		mvn	r3, r3
 26002 0012 9AB2     		uxth	r2, r3
 26003 0014 7B68     		ldr	r3, [r7, #4]
 26004 0016 1A82     		strh	r2, [r3, #16]	@ movhi
2608:../Libraries/STM32F10x_StdPeriph_Driver/src/stm32f10x_tim.c **** }
 26005              		.loc 1 2608 0
 26006 0018 07F10C07 		add	r7, r7, #12
 26007 001c BD46     		mov	sp, r7
 26008 001e 80BC     		pop	{r7}
 26009 0020 7047     		bx	lr
 26010              		.cfi_endproc
 26011              	.LFE113:
 26013 0022 00BF     		.section	.text.TIM_GetITStatus,"ax",%progbits
 26014              		.align	2
 26015              		.global	TIM_GetITStatus
 26016              		.thumb
 26017              		.thumb_func
 26019              	TIM_GetITStatus:
 26020              	.LFB114:
2609:../Libraries/STM32F10x_StdPeriph_Driver/src/stm32f10x_tim.c **** 
2610:../Libraries/STM32F10x_StdPeriph_Driver/src/stm32f10x_tim.c **** /**
2611:../Libraries/STM32F10x_StdPeriph_Driver/src/stm32f10x_tim.c ****   * @brief  Checks whether the TIM interrupt has occurred or not.
2612:../Libraries/STM32F10x_StdPeriph_Driver/src/stm32f10x_tim.c ****   * @param  TIMx: where x can be 1 to 17 to select the TIM peripheral.
2613:../Libraries/STM32F10x_StdPeriph_Driver/src/stm32f10x_tim.c ****   * @param  TIM_IT: specifies the TIM interrupt source to check.
2614:../Libraries/STM32F10x_StdPeriph_Driver/src/stm32f10x_tim.c ****   *   This parameter can be one of the following values:
2615:../Libraries/STM32F10x_StdPeriph_Driver/src/stm32f10x_tim.c ****   *     @arg TIM_IT_Update: TIM update Interrupt source
2616:../Libraries/STM32F10x_StdPeriph_Driver/src/stm32f10x_tim.c ****   *     @arg TIM_IT_CC1: TIM Capture Compare 1 Interrupt source
2617:../Libraries/STM32F10x_StdPeriph_Driver/src/stm32f10x_tim.c ****   *     @arg TIM_IT_CC2: TIM Capture Compare 2 Interrupt source
2618:../Libraries/STM32F10x_StdPeriph_Driver/src/stm32f10x_tim.c ****   *     @arg TIM_IT_CC3: TIM Capture Compare 3 Interrupt source
2619:../Libraries/STM32F10x_StdPeriph_Driver/src/stm32f10x_tim.c ****   *     @arg TIM_IT_CC4: TIM Capture Compare 4 Interrupt source
2620:../Libraries/STM32F10x_StdPeriph_Driver/src/stm32f10x_tim.c ****   *     @arg TIM_IT_COM: TIM Commutation Interrupt source
2621:../Libraries/STM32F10x_StdPeriph_Driver/src/stm32f10x_tim.c ****   *     @arg TIM_IT_Trigger: TIM Trigger Interrupt source
2622:../Libraries/STM32F10x_StdPeriph_Driver/src/stm32f10x_tim.c ****   *     @arg TIM_IT_Break: TIM Break Interrupt source
2623:../Libraries/STM32F10x_StdPeriph_Driver/src/stm32f10x_tim.c ****   * @note
2624:../Libraries/STM32F10x_StdPeriph_Driver/src/stm32f10x_tim.c ****   *   - TIM6 and TIM7 can generate only an update interrupt.
2625:../Libraries/STM32F10x_StdPeriph_Driver/src/stm32f10x_tim.c ****   *   - TIM9, TIM12 and TIM15 can have only TIM_IT_Update, TIM_IT_CC1,
2626:../Libraries/STM32F10x_StdPeriph_Driver/src/stm32f10x_tim.c ****   *      TIM_IT_CC2 or TIM_IT_Trigger. 
2627:../Libraries/STM32F10x_StdPeriph_Driver/src/stm32f10x_tim.c ****   *   - TIM10, TIM11, TIM13, TIM14, TIM16 and TIM17 can have TIM_IT_Update or TIM_IT_CC1.   
2628:../Libraries/STM32F10x_StdPeriph_Driver/src/stm32f10x_tim.c ****   *   - TIM_IT_Break is used only with TIM1, TIM8 and TIM15. 
2629:../Libraries/STM32F10x_StdPeriph_Driver/src/stm32f10x_tim.c ****   *   - TIM_IT_COM is used only with TIM1, TIM8, TIM15, TIM16 and TIM17.  
2630:../Libraries/STM32F10x_StdPeriph_Driver/src/stm32f10x_tim.c ****   * @retval The new state of the TIM_IT(SET or RESET).
2631:../Libraries/STM32F10x_StdPeriph_Driver/src/stm32f10x_tim.c ****   */
2632:../Libraries/STM32F10x_StdPeriph_Driver/src/stm32f10x_tim.c **** ITStatus TIM_GetITStatus(TIM_TypeDef* TIMx, uint16_t TIM_IT)
2633:../Libraries/STM32F10x_StdPeriph_Driver/src/stm32f10x_tim.c **** {
 26021              		.loc 1 2633 0
 26022              		.cfi_startproc
 26023              		@ args = 0, pretend = 0, frame = 16
 26024              		@ frame_needed = 1, uses_anonymous_args = 0
 26025              		@ link register save eliminated.
 26026 0000 80B4     		push	{r7}
 26027              	.LCFI255:
 26028              		.cfi_def_cfa_offset 4
 26029 0002 85B0     		sub	sp, sp, #20
 26030              	.LCFI256:
 26031              		.cfi_def_cfa_offset 24
 26032 0004 00AF     		add	r7, sp, #0
 26033              		.cfi_offset 7, -4
 26034              	.LCFI257:
 26035              		.cfi_def_cfa_register 7
 26036 0006 7860     		str	r0, [r7, #4]
 26037 0008 0B46     		mov	r3, r1
 26038 000a 7B80     		strh	r3, [r7, #2]	@ movhi
2634:../Libraries/STM32F10x_StdPeriph_Driver/src/stm32f10x_tim.c ****   ITStatus bitstatus = RESET;  
 26039              		.loc 1 2634 0
 26040 000c 4FF00003 		mov	r3, #0
 26041 0010 FB73     		strb	r3, [r7, #15]
2635:../Libraries/STM32F10x_StdPeriph_Driver/src/stm32f10x_tim.c ****   uint16_t itstatus = 0x0, itenable = 0x0;
 26042              		.loc 1 2635 0
 26043 0012 4FF00003 		mov	r3, #0
 26044 0016 BB81     		strh	r3, [r7, #12]	@ movhi
 26045 0018 4FF00003 		mov	r3, #0
 26046 001c 7B81     		strh	r3, [r7, #10]	@ movhi
2636:../Libraries/STM32F10x_StdPeriph_Driver/src/stm32f10x_tim.c ****   /* Check the parameters */
2637:../Libraries/STM32F10x_StdPeriph_Driver/src/stm32f10x_tim.c ****   assert_param(IS_TIM_ALL_PERIPH(TIMx));
2638:../Libraries/STM32F10x_StdPeriph_Driver/src/stm32f10x_tim.c ****   assert_param(IS_TIM_GET_IT(TIM_IT));
2639:../Libraries/STM32F10x_StdPeriph_Driver/src/stm32f10x_tim.c ****    
2640:../Libraries/STM32F10x_StdPeriph_Driver/src/stm32f10x_tim.c ****   itstatus = TIMx->SR & TIM_IT;
 26047              		.loc 1 2640 0
 26048 001e 7B68     		ldr	r3, [r7, #4]
 26049 0020 1B8A     		ldrh	r3, [r3, #16]	@ movhi
 26050 0022 9AB2     		uxth	r2, r3
 26051 0024 7B88     		ldrh	r3, [r7, #2]	@ movhi
 26052 0026 02EA0303 		and	r3, r2, r3
 26053 002a BB81     		strh	r3, [r7, #12]	@ movhi
2641:../Libraries/STM32F10x_StdPeriph_Driver/src/stm32f10x_tim.c ****   
2642:../Libraries/STM32F10x_StdPeriph_Driver/src/stm32f10x_tim.c ****   itenable = TIMx->DIER & TIM_IT;
 26054              		.loc 1 2642 0
 26055 002c 7B68     		ldr	r3, [r7, #4]
 26056 002e 9B89     		ldrh	r3, [r3, #12]	@ movhi
 26057 0030 9AB2     		uxth	r2, r3
 26058 0032 7B88     		ldrh	r3, [r7, #2]	@ movhi
 26059 0034 02EA0303 		and	r3, r2, r3
 26060 0038 7B81     		strh	r3, [r7, #10]	@ movhi
2643:../Libraries/STM32F10x_StdPeriph_Driver/src/stm32f10x_tim.c ****   if ((itstatus != (uint16_t)RESET) && (itenable != (uint16_t)RESET))
 26061              		.loc 1 2643 0
 26062 003a BB89     		ldrh	r3, [r7, #12]
 26063 003c 002B     		cmp	r3, #0
 26064 003e 06D0     		beq	.L168
 26065              		.loc 1 2643 0 is_stmt 0 discriminator 1
 26066 0040 7B89     		ldrh	r3, [r7, #10]
 26067 0042 002B     		cmp	r3, #0
 26068 0044 03D0     		beq	.L168
2644:../Libraries/STM32F10x_StdPeriph_Driver/src/stm32f10x_tim.c ****   {
2645:../Libraries/STM32F10x_StdPeriph_Driver/src/stm32f10x_tim.c ****     bitstatus = SET;
 26069              		.loc 1 2645 0 is_stmt 1
 26070 0046 4FF00103 		mov	r3, #1
 26071 004a FB73     		strb	r3, [r7, #15]
 26072 004c 02E0     		b	.L169
 26073              	.L168:
2646:../Libraries/STM32F10x_StdPeriph_Driver/src/stm32f10x_tim.c ****   }
2647:../Libraries/STM32F10x_StdPeriph_Driver/src/stm32f10x_tim.c ****   else
2648:../Libraries/STM32F10x_StdPeriph_Driver/src/stm32f10x_tim.c ****   {
2649:../Libraries/STM32F10x_StdPeriph_Driver/src/stm32f10x_tim.c ****     bitstatus = RESET;
 26074              		.loc 1 2649 0
 26075 004e 4FF00003 		mov	r3, #0
 26076 0052 FB73     		strb	r3, [r7, #15]
 26077              	.L169:
2650:../Libraries/STM32F10x_StdPeriph_Driver/src/stm32f10x_tim.c ****   }
2651:../Libraries/STM32F10x_StdPeriph_Driver/src/stm32f10x_tim.c ****   return bitstatus;
 26078              		.loc 1 2651 0
 26079 0054 FB7B     		ldrb	r3, [r7, #15]	@ zero_extendqisi2
2652:../Libraries/STM32F10x_StdPeriph_Driver/src/stm32f10x_tim.c **** }
 26080              		.loc 1 2652 0
 26081 0056 1846     		mov	r0, r3
 26082 0058 07F11407 		add	r7, r7, #20
 26083 005c BD46     		mov	sp, r7
 26084 005e 80BC     		pop	{r7}
 26085 0060 7047     		bx	lr
 26086              		.cfi_endproc
 26087              	.LFE114:
 26089 0062 00BF     		.section	.text.TIM_ClearITPendingBit,"ax",%progbits
 26090              		.align	2
 26091              		.global	TIM_ClearITPendingBit
 26092              		.thumb
 26093              		.thumb_func
 26095              	TIM_ClearITPendingBit:
 26096              	.LFB115:
2653:../Libraries/STM32F10x_StdPeriph_Driver/src/stm32f10x_tim.c **** 
2654:../Libraries/STM32F10x_StdPeriph_Driver/src/stm32f10x_tim.c **** /**
2655:../Libraries/STM32F10x_StdPeriph_Driver/src/stm32f10x_tim.c ****   * @brief  Clears the TIMx's interrupt pending bits.
2656:../Libraries/STM32F10x_StdPeriph_Driver/src/stm32f10x_tim.c ****   * @param  TIMx: where x can be 1 to 17 to select the TIM peripheral.
2657:../Libraries/STM32F10x_StdPeriph_Driver/src/stm32f10x_tim.c ****   * @param  TIM_IT: specifies the pending bit to clear.
2658:../Libraries/STM32F10x_StdPeriph_Driver/src/stm32f10x_tim.c ****   *   This parameter can be any combination of the following values:
2659:../Libraries/STM32F10x_StdPeriph_Driver/src/stm32f10x_tim.c ****   *     @arg TIM_IT_Update: TIM1 update Interrupt source
2660:../Libraries/STM32F10x_StdPeriph_Driver/src/stm32f10x_tim.c ****   *     @arg TIM_IT_CC1: TIM Capture Compare 1 Interrupt source
2661:../Libraries/STM32F10x_StdPeriph_Driver/src/stm32f10x_tim.c ****   *     @arg TIM_IT_CC2: TIM Capture Compare 2 Interrupt source
2662:../Libraries/STM32F10x_StdPeriph_Driver/src/stm32f10x_tim.c ****   *     @arg TIM_IT_CC3: TIM Capture Compare 3 Interrupt source
2663:../Libraries/STM32F10x_StdPeriph_Driver/src/stm32f10x_tim.c ****   *     @arg TIM_IT_CC4: TIM Capture Compare 4 Interrupt source
2664:../Libraries/STM32F10x_StdPeriph_Driver/src/stm32f10x_tim.c ****   *     @arg TIM_IT_COM: TIM Commutation Interrupt source
2665:../Libraries/STM32F10x_StdPeriph_Driver/src/stm32f10x_tim.c ****   *     @arg TIM_IT_Trigger: TIM Trigger Interrupt source
2666:../Libraries/STM32F10x_StdPeriph_Driver/src/stm32f10x_tim.c ****   *     @arg TIM_IT_Break: TIM Break Interrupt source
2667:../Libraries/STM32F10x_StdPeriph_Driver/src/stm32f10x_tim.c ****   * @note
2668:../Libraries/STM32F10x_StdPeriph_Driver/src/stm32f10x_tim.c ****   *   - TIM6 and TIM7 can generate only an update interrupt.
2669:../Libraries/STM32F10x_StdPeriph_Driver/src/stm32f10x_tim.c ****   *   - TIM9, TIM12 and TIM15 can have only TIM_IT_Update, TIM_IT_CC1,
2670:../Libraries/STM32F10x_StdPeriph_Driver/src/stm32f10x_tim.c ****   *      TIM_IT_CC2 or TIM_IT_Trigger. 
2671:../Libraries/STM32F10x_StdPeriph_Driver/src/stm32f10x_tim.c ****   *   - TIM10, TIM11, TIM13, TIM14, TIM16 and TIM17 can have TIM_IT_Update or TIM_IT_CC1.   
2672:../Libraries/STM32F10x_StdPeriph_Driver/src/stm32f10x_tim.c ****   *   - TIM_IT_Break is used only with TIM1, TIM8 and TIM15. 
2673:../Libraries/STM32F10x_StdPeriph_Driver/src/stm32f10x_tim.c ****   *   - TIM_IT_COM is used only with TIM1, TIM8, TIM15, TIM16 and TIM17.    
2674:../Libraries/STM32F10x_StdPeriph_Driver/src/stm32f10x_tim.c ****   * @retval None
2675:../Libraries/STM32F10x_StdPeriph_Driver/src/stm32f10x_tim.c ****   */
2676:../Libraries/STM32F10x_StdPeriph_Driver/src/stm32f10x_tim.c **** void TIM_ClearITPendingBit(TIM_TypeDef* TIMx, uint16_t TIM_IT)
2677:../Libraries/STM32F10x_StdPeriph_Driver/src/stm32f10x_tim.c **** {
 26097              		.loc 1 2677 0
 26098              		.cfi_startproc
 26099              		@ args = 0, pretend = 0, frame = 8
 26100              		@ frame_needed = 1, uses_anonymous_args = 0
 26101              		@ link register save eliminated.
 26102 0000 80B4     		push	{r7}
 26103              	.LCFI258:
 26104              		.cfi_def_cfa_offset 4
 26105 0002 83B0     		sub	sp, sp, #12
 26106              	.LCFI259:
 26107              		.cfi_def_cfa_offset 16
 26108 0004 00AF     		add	r7, sp, #0
 26109              		.cfi_offset 7, -4
 26110              	.LCFI260:
 26111              		.cfi_def_cfa_register 7
 26112 0006 7860     		str	r0, [r7, #4]
 26113 0008 0B46     		mov	r3, r1
 26114 000a 7B80     		strh	r3, [r7, #2]	@ movhi
2678:../Libraries/STM32F10x_StdPeriph_Driver/src/stm32f10x_tim.c ****   /* Check the parameters */
2679:../Libraries/STM32F10x_StdPeriph_Driver/src/stm32f10x_tim.c ****   assert_param(IS_TIM_ALL_PERIPH(TIMx));
2680:../Libraries/STM32F10x_StdPeriph_Driver/src/stm32f10x_tim.c ****   assert_param(IS_TIM_IT(TIM_IT));
2681:../Libraries/STM32F10x_StdPeriph_Driver/src/stm32f10x_tim.c ****   /* Clear the IT pending Bit */
2682:../Libraries/STM32F10x_StdPeriph_Driver/src/stm32f10x_tim.c ****   TIMx->SR = (uint16_t)~TIM_IT;
 26115              		.loc 1 2682 0
 26116 000c 7B88     		ldrh	r3, [r7, #2]	@ movhi
 26117 000e 6FEA0303 		mvn	r3, r3
 26118 0012 9AB2     		uxth	r2, r3
 26119 0014 7B68     		ldr	r3, [r7, #4]
 26120 0016 1A82     		strh	r2, [r3, #16]	@ movhi
2683:../Libraries/STM32F10x_StdPeriph_Driver/src/stm32f10x_tim.c **** }
 26121              		.loc 1 2683 0
 26122 0018 07F10C07 		add	r7, r7, #12
 26123 001c BD46     		mov	sp, r7
 26124 001e 80BC     		pop	{r7}
 26125 0020 7047     		bx	lr
 26126              		.cfi_endproc
 26127              	.LFE115:
 26129 0022 00BF     		.section	.text.TI1_Config,"ax",%progbits
 26130              		.align	2
 26131              		.thumb
 26132              		.thumb_func
 26134              	TI1_Config:
 26135              	.LFB116:
2684:../Libraries/STM32F10x_StdPeriph_Driver/src/stm32f10x_tim.c **** 
2685:../Libraries/STM32F10x_StdPeriph_Driver/src/stm32f10x_tim.c **** /**
2686:../Libraries/STM32F10x_StdPeriph_Driver/src/stm32f10x_tim.c ****   * @brief  Configure the TI1 as Input.
2687:../Libraries/STM32F10x_StdPeriph_Driver/src/stm32f10x_tim.c ****   * @param  TIMx: where x can be 1 to 17 except 6 and 7 to select the TIM peripheral.
2688:../Libraries/STM32F10x_StdPeriph_Driver/src/stm32f10x_tim.c ****   * @param  TIM_ICPolarity : The Input Polarity.
2689:../Libraries/STM32F10x_StdPeriph_Driver/src/stm32f10x_tim.c ****   *   This parameter can be one of the following values:
2690:../Libraries/STM32F10x_StdPeriph_Driver/src/stm32f10x_tim.c ****   *     @arg TIM_ICPolarity_Rising
2691:../Libraries/STM32F10x_StdPeriph_Driver/src/stm32f10x_tim.c ****   *     @arg TIM_ICPolarity_Falling
2692:../Libraries/STM32F10x_StdPeriph_Driver/src/stm32f10x_tim.c ****   * @param  TIM_ICSelection: specifies the input to be used.
2693:../Libraries/STM32F10x_StdPeriph_Driver/src/stm32f10x_tim.c ****   *   This parameter can be one of the following values:
2694:../Libraries/STM32F10x_StdPeriph_Driver/src/stm32f10x_tim.c ****   *     @arg TIM_ICSelection_DirectTI: TIM Input 1 is selected to be connected to IC1.
2695:../Libraries/STM32F10x_StdPeriph_Driver/src/stm32f10x_tim.c ****   *     @arg TIM_ICSelection_IndirectTI: TIM Input 1 is selected to be connected to IC2.
2696:../Libraries/STM32F10x_StdPeriph_Driver/src/stm32f10x_tim.c ****   *     @arg TIM_ICSelection_TRC: TIM Input 1 is selected to be connected to TRC.
2697:../Libraries/STM32F10x_StdPeriph_Driver/src/stm32f10x_tim.c ****   * @param  TIM_ICFilter: Specifies the Input Capture Filter.
2698:../Libraries/STM32F10x_StdPeriph_Driver/src/stm32f10x_tim.c ****   *   This parameter must be a value between 0x00 and 0x0F.
2699:../Libraries/STM32F10x_StdPeriph_Driver/src/stm32f10x_tim.c ****   * @retval None
2700:../Libraries/STM32F10x_StdPeriph_Driver/src/stm32f10x_tim.c ****   */
2701:../Libraries/STM32F10x_StdPeriph_Driver/src/stm32f10x_tim.c **** static void TI1_Config(TIM_TypeDef* TIMx, uint16_t TIM_ICPolarity, uint16_t TIM_ICSelection,
2702:../Libraries/STM32F10x_StdPeriph_Driver/src/stm32f10x_tim.c ****                        uint16_t TIM_ICFilter)
2703:../Libraries/STM32F10x_StdPeriph_Driver/src/stm32f10x_tim.c **** {
 26136              		.loc 1 2703 0
 26137              		.cfi_startproc
 26138              		@ args = 0, pretend = 0, frame = 24
 26139              		@ frame_needed = 1, uses_anonymous_args = 0
 26140              		@ link register save eliminated.
 26141 0000 80B4     		push	{r7}
 26142              	.LCFI261:
 26143              		.cfi_def_cfa_offset 4
 26144 0002 87B0     		sub	sp, sp, #28
 26145              	.LCFI262:
 26146              		.cfi_def_cfa_offset 32
 26147 0004 00AF     		add	r7, sp, #0
 26148              		.cfi_offset 7, -4
 26149              	.LCFI263:
 26150              		.cfi_def_cfa_register 7
 26151 0006 F860     		str	r0, [r7, #12]
 26152 0008 7981     		strh	r1, [r7, #10]	@ movhi
 26153 000a 3A81     		strh	r2, [r7, #8]	@ movhi
 26154 000c FB80     		strh	r3, [r7, #6]	@ movhi
2704:../Libraries/STM32F10x_StdPeriph_Driver/src/stm32f10x_tim.c ****   uint16_t tmpccmr1 = 0, tmpccer = 0;
 26155              		.loc 1 2704 0
 26156 000e 4FF00003 		mov	r3, #0
 26157 0012 BB82     		strh	r3, [r7, #20]	@ movhi
 26158 0014 4FF00003 		mov	r3, #0
 26159 0018 FB82     		strh	r3, [r7, #22]	@ movhi
2705:../Libraries/STM32F10x_StdPeriph_Driver/src/stm32f10x_tim.c ****   /* Disable the Channel 1: Reset the CC1E Bit */
2706:../Libraries/STM32F10x_StdPeriph_Driver/src/stm32f10x_tim.c ****   TIMx->CCER &= (uint16_t)~((uint16_t)TIM_CCER_CC1E);
 26160              		.loc 1 2706 0
 26161 001a FB68     		ldr	r3, [r7, #12]
 26162 001c 1B8C     		ldrh	r3, [r3, #32]	@ movhi
 26163 001e 9BB2     		uxth	r3, r3
 26164 0020 23F00103 		bic	r3, r3, #1
 26165 0024 9AB2     		uxth	r2, r3
 26166 0026 FB68     		ldr	r3, [r7, #12]
 26167 0028 1A84     		strh	r2, [r3, #32]	@ movhi
2707:../Libraries/STM32F10x_StdPeriph_Driver/src/stm32f10x_tim.c ****   tmpccmr1 = TIMx->CCMR1;
 26168              		.loc 1 2707 0
 26169 002a FB68     		ldr	r3, [r7, #12]
 26170 002c 1B8B     		ldrh	r3, [r3, #24]	@ movhi
 26171 002e BB82     		strh	r3, [r7, #20]	@ movhi
2708:../Libraries/STM32F10x_StdPeriph_Driver/src/stm32f10x_tim.c ****   tmpccer = TIMx->CCER;
 26172              		.loc 1 2708 0
 26173 0030 FB68     		ldr	r3, [r7, #12]
 26174 0032 1B8C     		ldrh	r3, [r3, #32]	@ movhi
 26175 0034 FB82     		strh	r3, [r7, #22]	@ movhi
2709:../Libraries/STM32F10x_StdPeriph_Driver/src/stm32f10x_tim.c ****   /* Select the Input and set the filter */
2710:../Libraries/STM32F10x_StdPeriph_Driver/src/stm32f10x_tim.c ****   tmpccmr1 &= (uint16_t)(((uint16_t)~((uint16_t)TIM_CCMR1_CC1S)) & ((uint16_t)~((uint16_t)TIM_CCMR1
 26176              		.loc 1 2710 0
 26177 0036 BB8A     		ldrh	r3, [r7, #20]	@ movhi
 26178 0038 23F0F303 		bic	r3, r3, #243
 26179 003c BB82     		strh	r3, [r7, #20]	@ movhi
2711:../Libraries/STM32F10x_StdPeriph_Driver/src/stm32f10x_tim.c ****   tmpccmr1 |= (uint16_t)(TIM_ICSelection | (uint16_t)(TIM_ICFilter << (uint16_t)4));
 26180              		.loc 1 2711 0
 26181 003e FB88     		ldrh	r3, [r7, #6]	@ movhi
 26182 0040 4FEA0313 		lsl	r3, r3, #4
 26183 0044 9AB2     		uxth	r2, r3
 26184 0046 3B89     		ldrh	r3, [r7, #8]	@ movhi
 26185 0048 42EA0303 		orr	r3, r2, r3
 26186 004c 9AB2     		uxth	r2, r3
 26187 004e BB8A     		ldrh	r3, [r7, #20]	@ movhi
 26188 0050 42EA0303 		orr	r3, r2, r3
 26189 0054 BB82     		strh	r3, [r7, #20]	@ movhi
2712:../Libraries/STM32F10x_StdPeriph_Driver/src/stm32f10x_tim.c ****   
2713:../Libraries/STM32F10x_StdPeriph_Driver/src/stm32f10x_tim.c ****   if((TIMx == TIM1) || (TIMx == TIM8) || (TIMx == TIM2) || (TIMx == TIM3) ||
 26190              		.loc 1 2713 0
 26191 0056 FA68     		ldr	r2, [r7, #12]
 26192 0058 1D4B     		ldr	r3, .L175
 26193 005a 9A42     		cmp	r2, r3
 26194 005c 13D0     		beq	.L172
 26195              		.loc 1 2713 0 is_stmt 0 discriminator 1
 26196 005e FA68     		ldr	r2, [r7, #12]
 26197 0060 1C4B     		ldr	r3, .L175+4
 26198 0062 9A42     		cmp	r2, r3
 26199 0064 0FD0     		beq	.L172
 26200 0066 FB68     		ldr	r3, [r7, #12]
 26201 0068 B3F1804F 		cmp	r3, #1073741824
 26202 006c 0BD0     		beq	.L172
 26203 006e FA68     		ldr	r2, [r7, #12]
 26204 0070 194B     		ldr	r3, .L175+8
 26205 0072 9A42     		cmp	r2, r3
 26206 0074 07D0     		beq	.L172
 26207 0076 FA68     		ldr	r2, [r7, #12]
 26208 0078 184B     		ldr	r3, .L175+12
 26209 007a 9A42     		cmp	r2, r3
 26210 007c 03D0     		beq	.L172
2714:../Libraries/STM32F10x_StdPeriph_Driver/src/stm32f10x_tim.c ****      (TIMx == TIM4) ||(TIMx == TIM5))
 26211              		.loc 1 2714 0 is_stmt 1
 26212 007e FA68     		ldr	r2, [r7, #12]
 26213 0080 174B     		ldr	r3, .L175+16
 26214 0082 9A42     		cmp	r2, r3
 26215 0084 0CD1     		bne	.L173
 26216              	.L172:
2715:../Libraries/STM32F10x_StdPeriph_Driver/src/stm32f10x_tim.c ****   {
2716:../Libraries/STM32F10x_StdPeriph_Driver/src/stm32f10x_tim.c ****     /* Select the Polarity and set the CC1E Bit */
2717:../Libraries/STM32F10x_StdPeriph_Driver/src/stm32f10x_tim.c ****     tmpccer &= (uint16_t)~((uint16_t)(TIM_CCER_CC1P));
 26217              		.loc 1 2717 0
 26218 0086 FB8A     		ldrh	r3, [r7, #22]	@ movhi
 26219 0088 23F00203 		bic	r3, r3, #2
 26220 008c FB82     		strh	r3, [r7, #22]	@ movhi
2718:../Libraries/STM32F10x_StdPeriph_Driver/src/stm32f10x_tim.c ****     tmpccer |= (uint16_t)(TIM_ICPolarity | (uint16_t)TIM_CCER_CC1E);
 26221              		.loc 1 2718 0
 26222 008e 7A89     		ldrh	r2, [r7, #10]	@ movhi
 26223 0090 FB8A     		ldrh	r3, [r7, #22]	@ movhi
 26224 0092 42EA0303 		orr	r3, r2, r3
 26225 0096 9BB2     		uxth	r3, r3
 26226 0098 43F00103 		orr	r3, r3, #1
 26227 009c FB82     		strh	r3, [r7, #22]	@ movhi
 26228 009e 0BE0     		b	.L174
 26229              	.L173:
2719:../Libraries/STM32F10x_StdPeriph_Driver/src/stm32f10x_tim.c ****   }
2720:../Libraries/STM32F10x_StdPeriph_Driver/src/stm32f10x_tim.c ****   else
2721:../Libraries/STM32F10x_StdPeriph_Driver/src/stm32f10x_tim.c ****   {
2722:../Libraries/STM32F10x_StdPeriph_Driver/src/stm32f10x_tim.c ****     /* Select the Polarity and set the CC1E Bit */
2723:../Libraries/STM32F10x_StdPeriph_Driver/src/stm32f10x_tim.c ****     tmpccer &= (uint16_t)~((uint16_t)(TIM_CCER_CC1P | TIM_CCER_CC1NP));
 26230              		.loc 1 2723 0
 26231 00a0 FB8A     		ldrh	r3, [r7, #22]	@ movhi
 26232 00a2 23F00A03 		bic	r3, r3, #10
 26233 00a6 FB82     		strh	r3, [r7, #22]	@ movhi
2724:../Libraries/STM32F10x_StdPeriph_Driver/src/stm32f10x_tim.c ****     tmpccer |= (uint16_t)(TIM_ICPolarity | (uint16_t)TIM_CCER_CC1E);
 26234              		.loc 1 2724 0
 26235 00a8 7A89     		ldrh	r2, [r7, #10]	@ movhi
 26236 00aa FB8A     		ldrh	r3, [r7, #22]	@ movhi
 26237 00ac 42EA0303 		orr	r3, r2, r3
 26238 00b0 9BB2     		uxth	r3, r3
 26239 00b2 43F00103 		orr	r3, r3, #1
 26240 00b6 FB82     		strh	r3, [r7, #22]	@ movhi
 26241              	.L174:
2725:../Libraries/STM32F10x_StdPeriph_Driver/src/stm32f10x_tim.c ****   }
2726:../Libraries/STM32F10x_StdPeriph_Driver/src/stm32f10x_tim.c **** 
2727:../Libraries/STM32F10x_StdPeriph_Driver/src/stm32f10x_tim.c ****   /* Write to TIMx CCMR1 and CCER registers */
2728:../Libraries/STM32F10x_StdPeriph_Driver/src/stm32f10x_tim.c ****   TIMx->CCMR1 = tmpccmr1;
 26242              		.loc 1 2728 0
 26243 00b8 FB68     		ldr	r3, [r7, #12]
 26244 00ba BA8A     		ldrh	r2, [r7, #20]	@ movhi
 26245 00bc 1A83     		strh	r2, [r3, #24]	@ movhi
2729:../Libraries/STM32F10x_StdPeriph_Driver/src/stm32f10x_tim.c ****   TIMx->CCER = tmpccer;
 26246              		.loc 1 2729 0
 26247 00be FB68     		ldr	r3, [r7, #12]
 26248 00c0 FA8A     		ldrh	r2, [r7, #22]	@ movhi
 26249 00c2 1A84     		strh	r2, [r3, #32]	@ movhi
2730:../Libraries/STM32F10x_StdPeriph_Driver/src/stm32f10x_tim.c **** }
 26250              		.loc 1 2730 0
 26251 00c4 07F11C07 		add	r7, r7, #28
 26252 00c8 BD46     		mov	sp, r7
 26253 00ca 80BC     		pop	{r7}
 26254 00cc 7047     		bx	lr
 26255              	.L176:
 26256 00ce 00BF     		.align	2
 26257              	.L175:
 26258 00d0 002C0140 		.word	1073818624
 26259 00d4 00340140 		.word	1073820672
 26260 00d8 00040040 		.word	1073742848
 26261 00dc 00080040 		.word	1073743872
 26262 00e0 000C0040 		.word	1073744896
 26263              		.cfi_endproc
 26264              	.LFE116:
 26266              		.section	.text.TI2_Config,"ax",%progbits
 26267              		.align	2
 26268              		.thumb
 26269              		.thumb_func
 26271              	TI2_Config:
 26272              	.LFB117:
2731:../Libraries/STM32F10x_StdPeriph_Driver/src/stm32f10x_tim.c **** 
2732:../Libraries/STM32F10x_StdPeriph_Driver/src/stm32f10x_tim.c **** /**
2733:../Libraries/STM32F10x_StdPeriph_Driver/src/stm32f10x_tim.c ****   * @brief  Configure the TI2 as Input.
2734:../Libraries/STM32F10x_StdPeriph_Driver/src/stm32f10x_tim.c ****   * @param  TIMx: where x can be 1, 2, 3, 4, 5, 8, 9, 12 or 15 to select the TIM peripheral.
2735:../Libraries/STM32F10x_StdPeriph_Driver/src/stm32f10x_tim.c ****   * @param  TIM_ICPolarity : The Input Polarity.
2736:../Libraries/STM32F10x_StdPeriph_Driver/src/stm32f10x_tim.c ****   *   This parameter can be one of the following values:
2737:../Libraries/STM32F10x_StdPeriph_Driver/src/stm32f10x_tim.c ****   *     @arg TIM_ICPolarity_Rising
2738:../Libraries/STM32F10x_StdPeriph_Driver/src/stm32f10x_tim.c ****   *     @arg TIM_ICPolarity_Falling
2739:../Libraries/STM32F10x_StdPeriph_Driver/src/stm32f10x_tim.c ****   * @param  TIM_ICSelection: specifies the input to be used.
2740:../Libraries/STM32F10x_StdPeriph_Driver/src/stm32f10x_tim.c ****   *   This parameter can be one of the following values:
2741:../Libraries/STM32F10x_StdPeriph_Driver/src/stm32f10x_tim.c ****   *     @arg TIM_ICSelection_DirectTI: TIM Input 2 is selected to be connected to IC2.
2742:../Libraries/STM32F10x_StdPeriph_Driver/src/stm32f10x_tim.c ****   *     @arg TIM_ICSelection_IndirectTI: TIM Input 2 is selected to be connected to IC1.
2743:../Libraries/STM32F10x_StdPeriph_Driver/src/stm32f10x_tim.c ****   *     @arg TIM_ICSelection_TRC: TIM Input 2 is selected to be connected to TRC.
2744:../Libraries/STM32F10x_StdPeriph_Driver/src/stm32f10x_tim.c ****   * @param  TIM_ICFilter: Specifies the Input Capture Filter.
2745:../Libraries/STM32F10x_StdPeriph_Driver/src/stm32f10x_tim.c ****   *   This parameter must be a value between 0x00 and 0x0F.
2746:../Libraries/STM32F10x_StdPeriph_Driver/src/stm32f10x_tim.c ****   * @retval None
2747:../Libraries/STM32F10x_StdPeriph_Driver/src/stm32f10x_tim.c ****   */
2748:../Libraries/STM32F10x_StdPeriph_Driver/src/stm32f10x_tim.c **** static void TI2_Config(TIM_TypeDef* TIMx, uint16_t TIM_ICPolarity, uint16_t TIM_ICSelection,
2749:../Libraries/STM32F10x_StdPeriph_Driver/src/stm32f10x_tim.c ****                        uint16_t TIM_ICFilter)
2750:../Libraries/STM32F10x_StdPeriph_Driver/src/stm32f10x_tim.c **** {
 26273              		.loc 1 2750 0
 26274              		.cfi_startproc
 26275              		@ args = 0, pretend = 0, frame = 24
 26276              		@ frame_needed = 1, uses_anonymous_args = 0
 26277              		@ link register save eliminated.
 26278 0000 80B4     		push	{r7}
 26279              	.LCFI264:
 26280              		.cfi_def_cfa_offset 4
 26281 0002 87B0     		sub	sp, sp, #28
 26282              	.LCFI265:
 26283              		.cfi_def_cfa_offset 32
 26284 0004 00AF     		add	r7, sp, #0
 26285              		.cfi_offset 7, -4
 26286              	.LCFI266:
 26287              		.cfi_def_cfa_register 7
 26288 0006 F860     		str	r0, [r7, #12]
 26289 0008 7981     		strh	r1, [r7, #10]	@ movhi
 26290 000a 3A81     		strh	r2, [r7, #8]	@ movhi
 26291 000c FB80     		strh	r3, [r7, #6]	@ movhi
2751:../Libraries/STM32F10x_StdPeriph_Driver/src/stm32f10x_tim.c ****   uint16_t tmpccmr1 = 0, tmpccer = 0, tmp = 0;
 26292              		.loc 1 2751 0
 26293 000e 4FF00003 		mov	r3, #0
 26294 0012 BB82     		strh	r3, [r7, #20]	@ movhi
 26295 0014 4FF00003 		mov	r3, #0
 26296 0018 FB82     		strh	r3, [r7, #22]	@ movhi
 26297 001a 4FF00003 		mov	r3, #0
 26298 001e 7B82     		strh	r3, [r7, #18]	@ movhi
2752:../Libraries/STM32F10x_StdPeriph_Driver/src/stm32f10x_tim.c ****   /* Disable the Channel 2: Reset the CC2E Bit */
2753:../Libraries/STM32F10x_StdPeriph_Driver/src/stm32f10x_tim.c ****   TIMx->CCER &= (uint16_t)~((uint16_t)TIM_CCER_CC2E);
 26299              		.loc 1 2753 0
 26300 0020 FB68     		ldr	r3, [r7, #12]
 26301 0022 1B8C     		ldrh	r3, [r3, #32]	@ movhi
 26302 0024 9BB2     		uxth	r3, r3
 26303 0026 23F01003 		bic	r3, r3, #16
 26304 002a 9AB2     		uxth	r2, r3
 26305 002c FB68     		ldr	r3, [r7, #12]
 26306 002e 1A84     		strh	r2, [r3, #32]	@ movhi
2754:../Libraries/STM32F10x_StdPeriph_Driver/src/stm32f10x_tim.c ****   tmpccmr1 = TIMx->CCMR1;
 26307              		.loc 1 2754 0
 26308 0030 FB68     		ldr	r3, [r7, #12]
 26309 0032 1B8B     		ldrh	r3, [r3, #24]	@ movhi
 26310 0034 BB82     		strh	r3, [r7, #20]	@ movhi
2755:../Libraries/STM32F10x_StdPeriph_Driver/src/stm32f10x_tim.c ****   tmpccer = TIMx->CCER;
 26311              		.loc 1 2755 0
 26312 0036 FB68     		ldr	r3, [r7, #12]
 26313 0038 1B8C     		ldrh	r3, [r3, #32]	@ movhi
 26314 003a FB82     		strh	r3, [r7, #22]	@ movhi
2756:../Libraries/STM32F10x_StdPeriph_Driver/src/stm32f10x_tim.c ****   tmp = (uint16_t)(TIM_ICPolarity << 4);
 26315              		.loc 1 2756 0
 26316 003c 7B89     		ldrh	r3, [r7, #10]	@ movhi
 26317 003e 4FEA0313 		lsl	r3, r3, #4
 26318 0042 7B82     		strh	r3, [r7, #18]	@ movhi
2757:../Libraries/STM32F10x_StdPeriph_Driver/src/stm32f10x_tim.c ****   /* Select the Input and set the filter */
2758:../Libraries/STM32F10x_StdPeriph_Driver/src/stm32f10x_tim.c ****   tmpccmr1 &= (uint16_t)(((uint16_t)~((uint16_t)TIM_CCMR1_CC2S)) & ((uint16_t)~((uint16_t)TIM_CCMR1
 26319              		.loc 1 2758 0
 26320 0044 BB8A     		ldrh	r3, [r7, #20]	@ movhi
 26321 0046 23F44073 		bic	r3, r3, #768
 26322 004a 4FEA0353 		lsl	r3, r3, #20
 26323 004e 4FEA1353 		lsr	r3, r3, #20
 26324 0052 BB82     		strh	r3, [r7, #20]	@ movhi
2759:../Libraries/STM32F10x_StdPeriph_Driver/src/stm32f10x_tim.c ****   tmpccmr1 |= (uint16_t)(TIM_ICFilter << 12);
 26325              		.loc 1 2759 0
 26326 0054 FB88     		ldrh	r3, [r7, #6]	@ movhi
 26327 0056 4FEA0333 		lsl	r3, r3, #12
 26328 005a 9AB2     		uxth	r2, r3
 26329 005c BB8A     		ldrh	r3, [r7, #20]	@ movhi
 26330 005e 42EA0303 		orr	r3, r2, r3
 26331 0062 BB82     		strh	r3, [r7, #20]	@ movhi
2760:../Libraries/STM32F10x_StdPeriph_Driver/src/stm32f10x_tim.c ****   tmpccmr1 |= (uint16_t)(TIM_ICSelection << 8);
 26332              		.loc 1 2760 0
 26333 0064 3B89     		ldrh	r3, [r7, #8]	@ movhi
 26334 0066 4FEA0323 		lsl	r3, r3, #8
 26335 006a 9AB2     		uxth	r2, r3
 26336 006c BB8A     		ldrh	r3, [r7, #20]	@ movhi
 26337 006e 42EA0303 		orr	r3, r2, r3
 26338 0072 BB82     		strh	r3, [r7, #20]	@ movhi
2761:../Libraries/STM32F10x_StdPeriph_Driver/src/stm32f10x_tim.c ****   
2762:../Libraries/STM32F10x_StdPeriph_Driver/src/stm32f10x_tim.c ****   if((TIMx == TIM1) || (TIMx == TIM8) || (TIMx == TIM2) || (TIMx == TIM3) ||
 26339              		.loc 1 2762 0
 26340 0074 FA68     		ldr	r2, [r7, #12]
 26341 0076 1D4B     		ldr	r3, .L181
 26342 0078 9A42     		cmp	r2, r3
 26343 007a 13D0     		beq	.L178
 26344              		.loc 1 2762 0 is_stmt 0 discriminator 1
 26345 007c FA68     		ldr	r2, [r7, #12]
 26346 007e 1C4B     		ldr	r3, .L181+4
 26347 0080 9A42     		cmp	r2, r3
 26348 0082 0FD0     		beq	.L178
 26349 0084 FB68     		ldr	r3, [r7, #12]
 26350 0086 B3F1804F 		cmp	r3, #1073741824
 26351 008a 0BD0     		beq	.L178
 26352 008c FA68     		ldr	r2, [r7, #12]
 26353 008e 194B     		ldr	r3, .L181+8
 26354 0090 9A42     		cmp	r2, r3
 26355 0092 07D0     		beq	.L178
 26356 0094 FA68     		ldr	r2, [r7, #12]
 26357 0096 184B     		ldr	r3, .L181+12
 26358 0098 9A42     		cmp	r2, r3
 26359 009a 03D0     		beq	.L178
2763:../Libraries/STM32F10x_StdPeriph_Driver/src/stm32f10x_tim.c ****      (TIMx == TIM4) ||(TIMx == TIM5))
 26360              		.loc 1 2763 0 is_stmt 1
 26361 009c FA68     		ldr	r2, [r7, #12]
 26362 009e 174B     		ldr	r3, .L181+16
 26363 00a0 9A42     		cmp	r2, r3
 26364 00a2 0CD1     		bne	.L179
 26365              	.L178:
2764:../Libraries/STM32F10x_StdPeriph_Driver/src/stm32f10x_tim.c ****   {
2765:../Libraries/STM32F10x_StdPeriph_Driver/src/stm32f10x_tim.c ****     /* Select the Polarity and set the CC2E Bit */
2766:../Libraries/STM32F10x_StdPeriph_Driver/src/stm32f10x_tim.c ****     tmpccer &= (uint16_t)~((uint16_t)(TIM_CCER_CC2P));
 26366              		.loc 1 2766 0
 26367 00a4 FB8A     		ldrh	r3, [r7, #22]	@ movhi
 26368 00a6 23F02003 		bic	r3, r3, #32
 26369 00aa FB82     		strh	r3, [r7, #22]	@ movhi
2767:../Libraries/STM32F10x_StdPeriph_Driver/src/stm32f10x_tim.c ****     tmpccer |=  (uint16_t)(tmp | (uint16_t)TIM_CCER_CC2E);
 26370              		.loc 1 2767 0
 26371 00ac 7A8A     		ldrh	r2, [r7, #18]	@ movhi
 26372 00ae FB8A     		ldrh	r3, [r7, #22]	@ movhi
 26373 00b0 42EA0303 		orr	r3, r2, r3
 26374 00b4 9BB2     		uxth	r3, r3
 26375 00b6 43F01003 		orr	r3, r3, #16
 26376 00ba FB82     		strh	r3, [r7, #22]	@ movhi
 26377 00bc 0BE0     		b	.L180
 26378              	.L179:
2768:../Libraries/STM32F10x_StdPeriph_Driver/src/stm32f10x_tim.c ****   }
2769:../Libraries/STM32F10x_StdPeriph_Driver/src/stm32f10x_tim.c ****   else
2770:../Libraries/STM32F10x_StdPeriph_Driver/src/stm32f10x_tim.c ****   {
2771:../Libraries/STM32F10x_StdPeriph_Driver/src/stm32f10x_tim.c ****     /* Select the Polarity and set the CC2E Bit */
2772:../Libraries/STM32F10x_StdPeriph_Driver/src/stm32f10x_tim.c ****     tmpccer &= (uint16_t)~((uint16_t)(TIM_CCER_CC2P | TIM_CCER_CC2NP));
 26379              		.loc 1 2772 0
 26380 00be FB8A     		ldrh	r3, [r7, #22]	@ movhi
 26381 00c0 23F0A003 		bic	r3, r3, #160
 26382 00c4 FB82     		strh	r3, [r7, #22]	@ movhi
2773:../Libraries/STM32F10x_StdPeriph_Driver/src/stm32f10x_tim.c ****     tmpccer |= (uint16_t)(TIM_ICPolarity | (uint16_t)TIM_CCER_CC2E);
 26383              		.loc 1 2773 0
 26384 00c6 7A89     		ldrh	r2, [r7, #10]	@ movhi
 26385 00c8 FB8A     		ldrh	r3, [r7, #22]	@ movhi
 26386 00ca 42EA0303 		orr	r3, r2, r3
 26387 00ce 9BB2     		uxth	r3, r3
 26388 00d0 43F01003 		orr	r3, r3, #16
 26389 00d4 FB82     		strh	r3, [r7, #22]	@ movhi
 26390              	.L180:
2774:../Libraries/STM32F10x_StdPeriph_Driver/src/stm32f10x_tim.c ****   }
2775:../Libraries/STM32F10x_StdPeriph_Driver/src/stm32f10x_tim.c ****   
2776:../Libraries/STM32F10x_StdPeriph_Driver/src/stm32f10x_tim.c ****   /* Write to TIMx CCMR1 and CCER registers */
2777:../Libraries/STM32F10x_StdPeriph_Driver/src/stm32f10x_tim.c ****   TIMx->CCMR1 = tmpccmr1 ;
 26391              		.loc 1 2777 0
 26392 00d6 FB68     		ldr	r3, [r7, #12]
 26393 00d8 BA8A     		ldrh	r2, [r7, #20]	@ movhi
 26394 00da 1A83     		strh	r2, [r3, #24]	@ movhi
2778:../Libraries/STM32F10x_StdPeriph_Driver/src/stm32f10x_tim.c ****   TIMx->CCER = tmpccer;
 26395              		.loc 1 2778 0
 26396 00dc FB68     		ldr	r3, [r7, #12]
 26397 00de FA8A     		ldrh	r2, [r7, #22]	@ movhi
 26398 00e0 1A84     		strh	r2, [r3, #32]	@ movhi
2779:../Libraries/STM32F10x_StdPeriph_Driver/src/stm32f10x_tim.c **** }
 26399              		.loc 1 2779 0
 26400 00e2 07F11C07 		add	r7, r7, #28
 26401 00e6 BD46     		mov	sp, r7
 26402 00e8 80BC     		pop	{r7}
 26403 00ea 7047     		bx	lr
 26404              	.L182:
 26405              		.align	2
 26406              	.L181:
 26407 00ec 002C0140 		.word	1073818624
 26408 00f0 00340140 		.word	1073820672
 26409 00f4 00040040 		.word	1073742848
 26410 00f8 00080040 		.word	1073743872
 26411 00fc 000C0040 		.word	1073744896
 26412              		.cfi_endproc
 26413              	.LFE117:
 26415              		.section	.text.TI3_Config,"ax",%progbits
 26416              		.align	2
 26417              		.thumb
 26418              		.thumb_func
 26420              	TI3_Config:
 26421              	.LFB118:
2780:../Libraries/STM32F10x_StdPeriph_Driver/src/stm32f10x_tim.c **** 
2781:../Libraries/STM32F10x_StdPeriph_Driver/src/stm32f10x_tim.c **** /**
2782:../Libraries/STM32F10x_StdPeriph_Driver/src/stm32f10x_tim.c ****   * @brief  Configure the TI3 as Input.
2783:../Libraries/STM32F10x_StdPeriph_Driver/src/stm32f10x_tim.c ****   * @param  TIMx: where x can be 1, 2, 3, 4, 5 or 8 to select the TIM peripheral.
2784:../Libraries/STM32F10x_StdPeriph_Driver/src/stm32f10x_tim.c ****   * @param  TIM_ICPolarity : The Input Polarity.
2785:../Libraries/STM32F10x_StdPeriph_Driver/src/stm32f10x_tim.c ****   *   This parameter can be one of the following values:
2786:../Libraries/STM32F10x_StdPeriph_Driver/src/stm32f10x_tim.c ****   *     @arg TIM_ICPolarity_Rising
2787:../Libraries/STM32F10x_StdPeriph_Driver/src/stm32f10x_tim.c ****   *     @arg TIM_ICPolarity_Falling
2788:../Libraries/STM32F10x_StdPeriph_Driver/src/stm32f10x_tim.c ****   * @param  TIM_ICSelection: specifies the input to be used.
2789:../Libraries/STM32F10x_StdPeriph_Driver/src/stm32f10x_tim.c ****   *   This parameter can be one of the following values:
2790:../Libraries/STM32F10x_StdPeriph_Driver/src/stm32f10x_tim.c ****   *     @arg TIM_ICSelection_DirectTI: TIM Input 3 is selected to be connected to IC3.
2791:../Libraries/STM32F10x_StdPeriph_Driver/src/stm32f10x_tim.c ****   *     @arg TIM_ICSelection_IndirectTI: TIM Input 3 is selected to be connected to IC4.
2792:../Libraries/STM32F10x_StdPeriph_Driver/src/stm32f10x_tim.c ****   *     @arg TIM_ICSelection_TRC: TIM Input 3 is selected to be connected to TRC.
2793:../Libraries/STM32F10x_StdPeriph_Driver/src/stm32f10x_tim.c ****   * @param  TIM_ICFilter: Specifies the Input Capture Filter.
2794:../Libraries/STM32F10x_StdPeriph_Driver/src/stm32f10x_tim.c ****   *   This parameter must be a value between 0x00 and 0x0F.
2795:../Libraries/STM32F10x_StdPeriph_Driver/src/stm32f10x_tim.c ****   * @retval None
2796:../Libraries/STM32F10x_StdPeriph_Driver/src/stm32f10x_tim.c ****   */
2797:../Libraries/STM32F10x_StdPeriph_Driver/src/stm32f10x_tim.c **** static void TI3_Config(TIM_TypeDef* TIMx, uint16_t TIM_ICPolarity, uint16_t TIM_ICSelection,
2798:../Libraries/STM32F10x_StdPeriph_Driver/src/stm32f10x_tim.c ****                        uint16_t TIM_ICFilter)
2799:../Libraries/STM32F10x_StdPeriph_Driver/src/stm32f10x_tim.c **** {
 26422              		.loc 1 2799 0
 26423              		.cfi_startproc
 26424              		@ args = 0, pretend = 0, frame = 24
 26425              		@ frame_needed = 1, uses_anonymous_args = 0
 26426              		@ link register save eliminated.
 26427 0000 80B4     		push	{r7}
 26428              	.LCFI267:
 26429              		.cfi_def_cfa_offset 4
 26430 0002 87B0     		sub	sp, sp, #28
 26431              	.LCFI268:
 26432              		.cfi_def_cfa_offset 32
 26433 0004 00AF     		add	r7, sp, #0
 26434              		.cfi_offset 7, -4
 26435              	.LCFI269:
 26436              		.cfi_def_cfa_register 7
 26437 0006 F860     		str	r0, [r7, #12]
 26438 0008 7981     		strh	r1, [r7, #10]	@ movhi
 26439 000a 3A81     		strh	r2, [r7, #8]	@ movhi
 26440 000c FB80     		strh	r3, [r7, #6]	@ movhi
2800:../Libraries/STM32F10x_StdPeriph_Driver/src/stm32f10x_tim.c ****   uint16_t tmpccmr2 = 0, tmpccer = 0, tmp = 0;
 26441              		.loc 1 2800 0
 26442 000e 4FF00003 		mov	r3, #0
 26443 0012 BB82     		strh	r3, [r7, #20]	@ movhi
 26444 0014 4FF00003 		mov	r3, #0
 26445 0018 FB82     		strh	r3, [r7, #22]	@ movhi
 26446 001a 4FF00003 		mov	r3, #0
 26447 001e 7B82     		strh	r3, [r7, #18]	@ movhi
2801:../Libraries/STM32F10x_StdPeriph_Driver/src/stm32f10x_tim.c ****   /* Disable the Channel 3: Reset the CC3E Bit */
2802:../Libraries/STM32F10x_StdPeriph_Driver/src/stm32f10x_tim.c ****   TIMx->CCER &= (uint16_t)~((uint16_t)TIM_CCER_CC3E);
 26448              		.loc 1 2802 0
 26449 0020 FB68     		ldr	r3, [r7, #12]
 26450 0022 1B8C     		ldrh	r3, [r3, #32]	@ movhi
 26451 0024 9BB2     		uxth	r3, r3
 26452 0026 23F48073 		bic	r3, r3, #256
 26453 002a 9AB2     		uxth	r2, r3
 26454 002c FB68     		ldr	r3, [r7, #12]
 26455 002e 1A84     		strh	r2, [r3, #32]	@ movhi
2803:../Libraries/STM32F10x_StdPeriph_Driver/src/stm32f10x_tim.c ****   tmpccmr2 = TIMx->CCMR2;
 26456              		.loc 1 2803 0
 26457 0030 FB68     		ldr	r3, [r7, #12]
 26458 0032 9B8B     		ldrh	r3, [r3, #28]	@ movhi
 26459 0034 BB82     		strh	r3, [r7, #20]	@ movhi
2804:../Libraries/STM32F10x_StdPeriph_Driver/src/stm32f10x_tim.c ****   tmpccer = TIMx->CCER;
 26460              		.loc 1 2804 0
 26461 0036 FB68     		ldr	r3, [r7, #12]
 26462 0038 1B8C     		ldrh	r3, [r3, #32]	@ movhi
 26463 003a FB82     		strh	r3, [r7, #22]	@ movhi
2805:../Libraries/STM32F10x_StdPeriph_Driver/src/stm32f10x_tim.c ****   tmp = (uint16_t)(TIM_ICPolarity << 8);
 26464              		.loc 1 2805 0
 26465 003c 7B89     		ldrh	r3, [r7, #10]	@ movhi
 26466 003e 4FEA0323 		lsl	r3, r3, #8
 26467 0042 7B82     		strh	r3, [r7, #18]	@ movhi
2806:../Libraries/STM32F10x_StdPeriph_Driver/src/stm32f10x_tim.c ****   /* Select the Input and set the filter */
2807:../Libraries/STM32F10x_StdPeriph_Driver/src/stm32f10x_tim.c ****   tmpccmr2 &= (uint16_t)(((uint16_t)~((uint16_t)TIM_CCMR2_CC3S)) & ((uint16_t)~((uint16_t)TIM_CCMR2
 26468              		.loc 1 2807 0
 26469 0044 BB8A     		ldrh	r3, [r7, #20]	@ movhi
 26470 0046 23F0F303 		bic	r3, r3, #243
 26471 004a BB82     		strh	r3, [r7, #20]	@ movhi
2808:../Libraries/STM32F10x_StdPeriph_Driver/src/stm32f10x_tim.c ****   tmpccmr2 |= (uint16_t)(TIM_ICSelection | (uint16_t)(TIM_ICFilter << (uint16_t)4));
 26472              		.loc 1 2808 0
 26473 004c FB88     		ldrh	r3, [r7, #6]	@ movhi
 26474 004e 4FEA0313 		lsl	r3, r3, #4
 26475 0052 9AB2     		uxth	r2, r3
 26476 0054 3B89     		ldrh	r3, [r7, #8]	@ movhi
 26477 0056 42EA0303 		orr	r3, r2, r3
 26478 005a 9AB2     		uxth	r2, r3
 26479 005c BB8A     		ldrh	r3, [r7, #20]	@ movhi
 26480 005e 42EA0303 		orr	r3, r2, r3
 26481 0062 BB82     		strh	r3, [r7, #20]	@ movhi
2809:../Libraries/STM32F10x_StdPeriph_Driver/src/stm32f10x_tim.c ****     
2810:../Libraries/STM32F10x_StdPeriph_Driver/src/stm32f10x_tim.c ****   if((TIMx == TIM1) || (TIMx == TIM8) || (TIMx == TIM2) || (TIMx == TIM3) ||
 26482              		.loc 1 2810 0
 26483 0064 FA68     		ldr	r2, [r7, #12]
 26484 0066 1D4B     		ldr	r3, .L187
 26485 0068 9A42     		cmp	r2, r3
 26486 006a 13D0     		beq	.L184
 26487              		.loc 1 2810 0 is_stmt 0 discriminator 1
 26488 006c FA68     		ldr	r2, [r7, #12]
 26489 006e 1C4B     		ldr	r3, .L187+4
 26490 0070 9A42     		cmp	r2, r3
 26491 0072 0FD0     		beq	.L184
 26492 0074 FB68     		ldr	r3, [r7, #12]
 26493 0076 B3F1804F 		cmp	r3, #1073741824
 26494 007a 0BD0     		beq	.L184
 26495 007c FA68     		ldr	r2, [r7, #12]
 26496 007e 194B     		ldr	r3, .L187+8
 26497 0080 9A42     		cmp	r2, r3
 26498 0082 07D0     		beq	.L184
 26499 0084 FA68     		ldr	r2, [r7, #12]
 26500 0086 184B     		ldr	r3, .L187+12
 26501 0088 9A42     		cmp	r2, r3
 26502 008a 03D0     		beq	.L184
2811:../Libraries/STM32F10x_StdPeriph_Driver/src/stm32f10x_tim.c ****      (TIMx == TIM4) ||(TIMx == TIM5))
 26503              		.loc 1 2811 0 is_stmt 1
 26504 008c FA68     		ldr	r2, [r7, #12]
 26505 008e 174B     		ldr	r3, .L187+16
 26506 0090 9A42     		cmp	r2, r3
 26507 0092 0CD1     		bne	.L185
 26508              	.L184:
2812:../Libraries/STM32F10x_StdPeriph_Driver/src/stm32f10x_tim.c ****   {
2813:../Libraries/STM32F10x_StdPeriph_Driver/src/stm32f10x_tim.c ****     /* Select the Polarity and set the CC3E Bit */
2814:../Libraries/STM32F10x_StdPeriph_Driver/src/stm32f10x_tim.c ****     tmpccer &= (uint16_t)~((uint16_t)(TIM_CCER_CC3P));
 26509              		.loc 1 2814 0
 26510 0094 FB8A     		ldrh	r3, [r7, #22]	@ movhi
 26511 0096 23F40073 		bic	r3, r3, #512
 26512 009a FB82     		strh	r3, [r7, #22]	@ movhi
2815:../Libraries/STM32F10x_StdPeriph_Driver/src/stm32f10x_tim.c ****     tmpccer |= (uint16_t)(tmp | (uint16_t)TIM_CCER_CC3E);
 26513              		.loc 1 2815 0
 26514 009c 7A8A     		ldrh	r2, [r7, #18]	@ movhi
 26515 009e FB8A     		ldrh	r3, [r7, #22]	@ movhi
 26516 00a0 42EA0303 		orr	r3, r2, r3
 26517 00a4 9BB2     		uxth	r3, r3
 26518 00a6 43F48073 		orr	r3, r3, #256
 26519 00aa FB82     		strh	r3, [r7, #22]	@ movhi
 26520 00ac 0BE0     		b	.L186
 26521              	.L185:
2816:../Libraries/STM32F10x_StdPeriph_Driver/src/stm32f10x_tim.c ****   }
2817:../Libraries/STM32F10x_StdPeriph_Driver/src/stm32f10x_tim.c ****   else
2818:../Libraries/STM32F10x_StdPeriph_Driver/src/stm32f10x_tim.c ****   {
2819:../Libraries/STM32F10x_StdPeriph_Driver/src/stm32f10x_tim.c ****     /* Select the Polarity and set the CC3E Bit */
2820:../Libraries/STM32F10x_StdPeriph_Driver/src/stm32f10x_tim.c ****     tmpccer &= (uint16_t)~((uint16_t)(TIM_CCER_CC3P | TIM_CCER_CC3NP));
 26522              		.loc 1 2820 0
 26523 00ae FB8A     		ldrh	r3, [r7, #22]	@ movhi
 26524 00b0 23F42063 		bic	r3, r3, #2560
 26525 00b4 FB82     		strh	r3, [r7, #22]	@ movhi
2821:../Libraries/STM32F10x_StdPeriph_Driver/src/stm32f10x_tim.c ****     tmpccer |= (uint16_t)(TIM_ICPolarity | (uint16_t)TIM_CCER_CC3E);
 26526              		.loc 1 2821 0
 26527 00b6 7A89     		ldrh	r2, [r7, #10]	@ movhi
 26528 00b8 FB8A     		ldrh	r3, [r7, #22]	@ movhi
 26529 00ba 42EA0303 		orr	r3, r2, r3
 26530 00be 9BB2     		uxth	r3, r3
 26531 00c0 43F48073 		orr	r3, r3, #256
 26532 00c4 FB82     		strh	r3, [r7, #22]	@ movhi
 26533              	.L186:
2822:../Libraries/STM32F10x_StdPeriph_Driver/src/stm32f10x_tim.c ****   }
2823:../Libraries/STM32F10x_StdPeriph_Driver/src/stm32f10x_tim.c ****   
2824:../Libraries/STM32F10x_StdPeriph_Driver/src/stm32f10x_tim.c ****   /* Write to TIMx CCMR2 and CCER registers */
2825:../Libraries/STM32F10x_StdPeriph_Driver/src/stm32f10x_tim.c ****   TIMx->CCMR2 = tmpccmr2;
 26534              		.loc 1 2825 0
 26535 00c6 FB68     		ldr	r3, [r7, #12]
 26536 00c8 BA8A     		ldrh	r2, [r7, #20]	@ movhi
 26537 00ca 9A83     		strh	r2, [r3, #28]	@ movhi
2826:../Libraries/STM32F10x_StdPeriph_Driver/src/stm32f10x_tim.c ****   TIMx->CCER = tmpccer;
 26538              		.loc 1 2826 0
 26539 00cc FB68     		ldr	r3, [r7, #12]
 26540 00ce FA8A     		ldrh	r2, [r7, #22]	@ movhi
 26541 00d0 1A84     		strh	r2, [r3, #32]	@ movhi
2827:../Libraries/STM32F10x_StdPeriph_Driver/src/stm32f10x_tim.c **** }
 26542              		.loc 1 2827 0
 26543 00d2 07F11C07 		add	r7, r7, #28
 26544 00d6 BD46     		mov	sp, r7
 26545 00d8 80BC     		pop	{r7}
 26546 00da 7047     		bx	lr
 26547              	.L188:
 26548              		.align	2
 26549              	.L187:
 26550 00dc 002C0140 		.word	1073818624
 26551 00e0 00340140 		.word	1073820672
 26552 00e4 00040040 		.word	1073742848
 26553 00e8 00080040 		.word	1073743872
 26554 00ec 000C0040 		.word	1073744896
 26555              		.cfi_endproc
 26556              	.LFE118:
 26558              		.section	.text.TI4_Config,"ax",%progbits
 26559              		.align	2
 26560              		.thumb
 26561              		.thumb_func
 26563              	TI4_Config:
 26564              	.LFB119:
2828:../Libraries/STM32F10x_StdPeriph_Driver/src/stm32f10x_tim.c **** 
2829:../Libraries/STM32F10x_StdPeriph_Driver/src/stm32f10x_tim.c **** /**
2830:../Libraries/STM32F10x_StdPeriph_Driver/src/stm32f10x_tim.c ****   * @brief  Configure the TI4 as Input.
2831:../Libraries/STM32F10x_StdPeriph_Driver/src/stm32f10x_tim.c ****   * @param  TIMx: where x can be 1, 2, 3, 4, 5 or 8 to select the TIM peripheral.
2832:../Libraries/STM32F10x_StdPeriph_Driver/src/stm32f10x_tim.c ****   * @param  TIM_ICPolarity : The Input Polarity.
2833:../Libraries/STM32F10x_StdPeriph_Driver/src/stm32f10x_tim.c ****   *   This parameter can be one of the following values:
2834:../Libraries/STM32F10x_StdPeriph_Driver/src/stm32f10x_tim.c ****   *     @arg TIM_ICPolarity_Rising
2835:../Libraries/STM32F10x_StdPeriph_Driver/src/stm32f10x_tim.c ****   *     @arg TIM_ICPolarity_Falling
2836:../Libraries/STM32F10x_StdPeriph_Driver/src/stm32f10x_tim.c ****   * @param  TIM_ICSelection: specifies the input to be used.
2837:../Libraries/STM32F10x_StdPeriph_Driver/src/stm32f10x_tim.c ****   *   This parameter can be one of the following values:
2838:../Libraries/STM32F10x_StdPeriph_Driver/src/stm32f10x_tim.c ****   *     @arg TIM_ICSelection_DirectTI: TIM Input 4 is selected to be connected to IC4.
2839:../Libraries/STM32F10x_StdPeriph_Driver/src/stm32f10x_tim.c ****   *     @arg TIM_ICSelection_IndirectTI: TIM Input 4 is selected to be connected to IC3.
2840:../Libraries/STM32F10x_StdPeriph_Driver/src/stm32f10x_tim.c ****   *     @arg TIM_ICSelection_TRC: TIM Input 4 is selected to be connected to TRC.
2841:../Libraries/STM32F10x_StdPeriph_Driver/src/stm32f10x_tim.c ****   * @param  TIM_ICFilter: Specifies the Input Capture Filter.
2842:../Libraries/STM32F10x_StdPeriph_Driver/src/stm32f10x_tim.c ****   *   This parameter must be a value between 0x00 and 0x0F.
2843:../Libraries/STM32F10x_StdPeriph_Driver/src/stm32f10x_tim.c ****   * @retval None
2844:../Libraries/STM32F10x_StdPeriph_Driver/src/stm32f10x_tim.c ****   */
2845:../Libraries/STM32F10x_StdPeriph_Driver/src/stm32f10x_tim.c **** static void TI4_Config(TIM_TypeDef* TIMx, uint16_t TIM_ICPolarity, uint16_t TIM_ICSelection,
2846:../Libraries/STM32F10x_StdPeriph_Driver/src/stm32f10x_tim.c ****                        uint16_t TIM_ICFilter)
2847:../Libraries/STM32F10x_StdPeriph_Driver/src/stm32f10x_tim.c **** {
 26565              		.loc 1 2847 0
 26566              		.cfi_startproc
 26567              		@ args = 0, pretend = 0, frame = 24
 26568              		@ frame_needed = 1, uses_anonymous_args = 0
 26569              		@ link register save eliminated.
 26570 0000 80B4     		push	{r7}
 26571              	.LCFI270:
 26572              		.cfi_def_cfa_offset 4
 26573 0002 87B0     		sub	sp, sp, #28
 26574              	.LCFI271:
 26575              		.cfi_def_cfa_offset 32
 26576 0004 00AF     		add	r7, sp, #0
 26577              		.cfi_offset 7, -4
 26578              	.LCFI272:
 26579              		.cfi_def_cfa_register 7
 26580 0006 F860     		str	r0, [r7, #12]
 26581 0008 7981     		strh	r1, [r7, #10]	@ movhi
 26582 000a 3A81     		strh	r2, [r7, #8]	@ movhi
 26583 000c FB80     		strh	r3, [r7, #6]	@ movhi
2848:../Libraries/STM32F10x_StdPeriph_Driver/src/stm32f10x_tim.c ****   uint16_t tmpccmr2 = 0, tmpccer = 0, tmp = 0;
 26584              		.loc 1 2848 0
 26585 000e 4FF00003 		mov	r3, #0
 26586 0012 BB82     		strh	r3, [r7, #20]	@ movhi
 26587 0014 4FF00003 		mov	r3, #0
 26588 0018 FB82     		strh	r3, [r7, #22]	@ movhi
 26589 001a 4FF00003 		mov	r3, #0
 26590 001e 7B82     		strh	r3, [r7, #18]	@ movhi
2849:../Libraries/STM32F10x_StdPeriph_Driver/src/stm32f10x_tim.c **** 
2850:../Libraries/STM32F10x_StdPeriph_Driver/src/stm32f10x_tim.c ****    /* Disable the Channel 4: Reset the CC4E Bit */
2851:../Libraries/STM32F10x_StdPeriph_Driver/src/stm32f10x_tim.c ****   TIMx->CCER &= (uint16_t)~((uint16_t)TIM_CCER_CC4E);
 26591              		.loc 1 2851 0
 26592 0020 FB68     		ldr	r3, [r7, #12]
 26593 0022 1B8C     		ldrh	r3, [r3, #32]	@ movhi
 26594 0024 9BB2     		uxth	r3, r3
 26595 0026 23F48053 		bic	r3, r3, #4096
 26596 002a 9AB2     		uxth	r2, r3
 26597 002c FB68     		ldr	r3, [r7, #12]
 26598 002e 1A84     		strh	r2, [r3, #32]	@ movhi
2852:../Libraries/STM32F10x_StdPeriph_Driver/src/stm32f10x_tim.c ****   tmpccmr2 = TIMx->CCMR2;
 26599              		.loc 1 2852 0
 26600 0030 FB68     		ldr	r3, [r7, #12]
 26601 0032 9B8B     		ldrh	r3, [r3, #28]	@ movhi
 26602 0034 BB82     		strh	r3, [r7, #20]	@ movhi
2853:../Libraries/STM32F10x_StdPeriph_Driver/src/stm32f10x_tim.c ****   tmpccer = TIMx->CCER;
 26603              		.loc 1 2853 0
 26604 0036 FB68     		ldr	r3, [r7, #12]
 26605 0038 1B8C     		ldrh	r3, [r3, #32]	@ movhi
 26606 003a FB82     		strh	r3, [r7, #22]	@ movhi
2854:../Libraries/STM32F10x_StdPeriph_Driver/src/stm32f10x_tim.c ****   tmp = (uint16_t)(TIM_ICPolarity << 12);
 26607              		.loc 1 2854 0
 26608 003c 7B89     		ldrh	r3, [r7, #10]	@ movhi
 26609 003e 4FEA0333 		lsl	r3, r3, #12
 26610 0042 7B82     		strh	r3, [r7, #18]	@ movhi
2855:../Libraries/STM32F10x_StdPeriph_Driver/src/stm32f10x_tim.c ****   /* Select the Input and set the filter */
2856:../Libraries/STM32F10x_StdPeriph_Driver/src/stm32f10x_tim.c ****   tmpccmr2 &= (uint16_t)((uint16_t)(~(uint16_t)TIM_CCMR2_CC4S) & ((uint16_t)~((uint16_t)TIM_CCMR2_I
 26611              		.loc 1 2856 0
 26612 0044 BB8A     		ldrh	r3, [r7, #20]	@ movhi
 26613 0046 23F44073 		bic	r3, r3, #768
 26614 004a 4FEA0353 		lsl	r3, r3, #20
 26615 004e 4FEA1353 		lsr	r3, r3, #20
 26616 0052 BB82     		strh	r3, [r7, #20]	@ movhi
2857:../Libraries/STM32F10x_StdPeriph_Driver/src/stm32f10x_tim.c ****   tmpccmr2 |= (uint16_t)(TIM_ICSelection << 8);
 26617              		.loc 1 2857 0
 26618 0054 3B89     		ldrh	r3, [r7, #8]	@ movhi
 26619 0056 4FEA0323 		lsl	r3, r3, #8
 26620 005a 9AB2     		uxth	r2, r3
 26621 005c BB8A     		ldrh	r3, [r7, #20]	@ movhi
 26622 005e 42EA0303 		orr	r3, r2, r3
 26623 0062 BB82     		strh	r3, [r7, #20]	@ movhi
2858:../Libraries/STM32F10x_StdPeriph_Driver/src/stm32f10x_tim.c ****   tmpccmr2 |= (uint16_t)(TIM_ICFilter << 12);
 26624              		.loc 1 2858 0
 26625 0064 FB88     		ldrh	r3, [r7, #6]	@ movhi
 26626 0066 4FEA0333 		lsl	r3, r3, #12
 26627 006a 9AB2     		uxth	r2, r3
 26628 006c BB8A     		ldrh	r3, [r7, #20]	@ movhi
 26629 006e 42EA0303 		orr	r3, r2, r3
 26630 0072 BB82     		strh	r3, [r7, #20]	@ movhi
2859:../Libraries/STM32F10x_StdPeriph_Driver/src/stm32f10x_tim.c ****   
2860:../Libraries/STM32F10x_StdPeriph_Driver/src/stm32f10x_tim.c ****   if((TIMx == TIM1) || (TIMx == TIM8) || (TIMx == TIM2) || (TIMx == TIM3) ||
 26631              		.loc 1 2860 0
 26632 0074 FA68     		ldr	r2, [r7, #12]
 26633 0076 1F4B     		ldr	r3, .L193
 26634 0078 9A42     		cmp	r2, r3
 26635 007a 13D0     		beq	.L190
 26636              		.loc 1 2860 0 is_stmt 0 discriminator 1
 26637 007c FA68     		ldr	r2, [r7, #12]
 26638 007e 1E4B     		ldr	r3, .L193+4
 26639 0080 9A42     		cmp	r2, r3
 26640 0082 0FD0     		beq	.L190
 26641 0084 FB68     		ldr	r3, [r7, #12]
 26642 0086 B3F1804F 		cmp	r3, #1073741824
 26643 008a 0BD0     		beq	.L190
 26644 008c FA68     		ldr	r2, [r7, #12]
 26645 008e 1B4B     		ldr	r3, .L193+8
 26646 0090 9A42     		cmp	r2, r3
 26647 0092 07D0     		beq	.L190
 26648 0094 FA68     		ldr	r2, [r7, #12]
 26649 0096 1A4B     		ldr	r3, .L193+12
 26650 0098 9A42     		cmp	r2, r3
 26651 009a 03D0     		beq	.L190
2861:../Libraries/STM32F10x_StdPeriph_Driver/src/stm32f10x_tim.c ****      (TIMx == TIM4) ||(TIMx == TIM5))
 26652              		.loc 1 2861 0 is_stmt 1
 26653 009c FA68     		ldr	r2, [r7, #12]
 26654 009e 194B     		ldr	r3, .L193+16
 26655 00a0 9A42     		cmp	r2, r3
 26656 00a2 0CD1     		bne	.L191
 26657              	.L190:
2862:../Libraries/STM32F10x_StdPeriph_Driver/src/stm32f10x_tim.c ****   {
2863:../Libraries/STM32F10x_StdPeriph_Driver/src/stm32f10x_tim.c ****     /* Select the Polarity and set the CC4E Bit */
2864:../Libraries/STM32F10x_StdPeriph_Driver/src/stm32f10x_tim.c ****     tmpccer &= (uint16_t)~((uint16_t)(TIM_CCER_CC4P));
 26658              		.loc 1 2864 0
 26659 00a4 FB8A     		ldrh	r3, [r7, #22]	@ movhi
 26660 00a6 23F40053 		bic	r3, r3, #8192
 26661 00aa FB82     		strh	r3, [r7, #22]	@ movhi
2865:../Libraries/STM32F10x_StdPeriph_Driver/src/stm32f10x_tim.c ****     tmpccer |= (uint16_t)(tmp | (uint16_t)TIM_CCER_CC4E);
 26662              		.loc 1 2865 0
 26663 00ac 7A8A     		ldrh	r2, [r7, #18]	@ movhi
 26664 00ae FB8A     		ldrh	r3, [r7, #22]	@ movhi
 26665 00b0 42EA0303 		orr	r3, r2, r3
 26666 00b4 9BB2     		uxth	r3, r3
 26667 00b6 43F48053 		orr	r3, r3, #4096
 26668 00ba FB82     		strh	r3, [r7, #22]	@ movhi
 26669 00bc 0FE0     		b	.L192
 26670              	.L191:
2866:../Libraries/STM32F10x_StdPeriph_Driver/src/stm32f10x_tim.c ****   }
2867:../Libraries/STM32F10x_StdPeriph_Driver/src/stm32f10x_tim.c ****   else
2868:../Libraries/STM32F10x_StdPeriph_Driver/src/stm32f10x_tim.c ****   {
2869:../Libraries/STM32F10x_StdPeriph_Driver/src/stm32f10x_tim.c ****     /* Select the Polarity and set the CC4E Bit */
2870:../Libraries/STM32F10x_StdPeriph_Driver/src/stm32f10x_tim.c ****     tmpccer &= (uint16_t)~((uint16_t)(TIM_CCER_CC3P | TIM_CCER_CC4NP));
 26671              		.loc 1 2870 0
 26672 00be FB8A     		ldrh	r3, [r7, #22]	@ movhi
 26673 00c0 23F40073 		bic	r3, r3, #512
 26674 00c4 4FEA4343 		lsl	r3, r3, #17
 26675 00c8 4FEA5343 		lsr	r3, r3, #17
 26676 00cc FB82     		strh	r3, [r7, #22]	@ movhi
2871:../Libraries/STM32F10x_StdPeriph_Driver/src/stm32f10x_tim.c ****     tmpccer |= (uint16_t)(TIM_ICPolarity | (uint16_t)TIM_CCER_CC4E);
 26677              		.loc 1 2871 0
 26678 00ce 7A89     		ldrh	r2, [r7, #10]	@ movhi
 26679 00d0 FB8A     		ldrh	r3, [r7, #22]	@ movhi
 26680 00d2 42EA0303 		orr	r3, r2, r3
 26681 00d6 9BB2     		uxth	r3, r3
 26682 00d8 43F48053 		orr	r3, r3, #4096
 26683 00dc FB82     		strh	r3, [r7, #22]	@ movhi
 26684              	.L192:
2872:../Libraries/STM32F10x_StdPeriph_Driver/src/stm32f10x_tim.c ****   }
2873:../Libraries/STM32F10x_StdPeriph_Driver/src/stm32f10x_tim.c ****   /* Write to TIMx CCMR2 and CCER registers */
2874:../Libraries/STM32F10x_StdPeriph_Driver/src/stm32f10x_tim.c ****   TIMx->CCMR2 = tmpccmr2;
 26685              		.loc 1 2874 0
 26686 00de FB68     		ldr	r3, [r7, #12]
 26687 00e0 BA8A     		ldrh	r2, [r7, #20]	@ movhi
 26688 00e2 9A83     		strh	r2, [r3, #28]	@ movhi
2875:../Libraries/STM32F10x_StdPeriph_Driver/src/stm32f10x_tim.c ****   TIMx->CCER = tmpccer;
 26689              		.loc 1 2875 0
 26690 00e4 FB68     		ldr	r3, [r7, #12]
 26691 00e6 FA8A     		ldrh	r2, [r7, #22]	@ movhi
 26692 00e8 1A84     		strh	r2, [r3, #32]	@ movhi
2876:../Libraries/STM32F10x_StdPeriph_Driver/src/stm32f10x_tim.c **** }
 26693              		.loc 1 2876 0
 26694 00ea 07F11C07 		add	r7, r7, #28
 26695 00ee BD46     		mov	sp, r7
 26696 00f0 80BC     		pop	{r7}
 26697 00f2 7047     		bx	lr
 26698              	.L194:
 26699              		.align	2
 26700              	.L193:
 26701 00f4 002C0140 		.word	1073818624
 26702 00f8 00340140 		.word	1073820672
 26703 00fc 00040040 		.word	1073742848
 26704 0100 00080040 		.word	1073743872
 26705 0104 000C0040 		.word	1073744896
 26706              		.cfi_endproc
 26707              	.LFE119:
 26709              		.text
 26710              	.Letext0:
DEFINED SYMBOLS
                            *ABS*:00000000 stm32f10x_tim.c
C:\Users\sMi\AppData\Local\Temp\cc4d3dOs.s:20468  .text.TIM_DeInit:00000000 $t
C:\Users\sMi\AppData\Local\Temp\cc4d3dOs.s:20473  .text.TIM_DeInit:00000000 TIM_DeInit
C:\Users\sMi\AppData\Local\Temp\cc4d3dOs.s:20751  .text.TIM_DeInit:00000250 $d
C:\Users\sMi\AppData\Local\Temp\cc4d3dOs.s:20771  .text.TIM_TimeBaseInit:00000000 $t
C:\Users\sMi\AppData\Local\Temp\cc4d3dOs.s:20776  .text.TIM_TimeBaseInit:00000000 TIM_TimeBaseInit
C:\Users\sMi\AppData\Local\Temp\cc4d3dOs.s:20917  .text.TIM_TimeBaseInit:000000d8 $d
C:\Users\sMi\AppData\Local\Temp\cc4d3dOs.s:20931  .text.TIM_OC1Init:00000000 $t
C:\Users\sMi\AppData\Local\Temp\cc4d3dOs.s:20936  .text.TIM_OC1Init:00000000 TIM_OC1Init
C:\Users\sMi\AppData\Local\Temp\cc4d3dOs.s:21102  .text.TIM_OC1Init:00000118 $d
C:\Users\sMi\AppData\Local\Temp\cc4d3dOs.s:21111  .text.TIM_OC2Init:00000000 $t
C:\Users\sMi\AppData\Local\Temp\cc4d3dOs.s:21116  .text.TIM_OC2Init:00000000 TIM_OC2Init
C:\Users\sMi\AppData\Local\Temp\cc4d3dOs.s:21283  .text.TIM_OC2Init:00000128 $d
C:\Users\sMi\AppData\Local\Temp\cc4d3dOs.s:21289  .text.TIM_OC3Init:00000000 $t
C:\Users\sMi\AppData\Local\Temp\cc4d3dOs.s:21294  .text.TIM_OC3Init:00000000 TIM_OC3Init
C:\Users\sMi\AppData\Local\Temp\cc4d3dOs.s:21459  .text.TIM_OC3Init:00000124 $d
C:\Users\sMi\AppData\Local\Temp\cc4d3dOs.s:21465  .text.TIM_OC4Init:00000000 $t
C:\Users\sMi\AppData\Local\Temp\cc4d3dOs.s:21470  .text.TIM_OC4Init:00000000 TIM_OC4Init
C:\Users\sMi\AppData\Local\Temp\cc4d3dOs.s:21601  .text.TIM_OC4Init:000000dc $d
C:\Users\sMi\AppData\Local\Temp\cc4d3dOs.s:21607  .text.TIM_ICInit:00000000 $t
C:\Users\sMi\AppData\Local\Temp\cc4d3dOs.s:21612  .text.TIM_ICInit:00000000 TIM_ICInit
C:\Users\sMi\AppData\Local\Temp\cc4d3dOs.s:26134  .text.TI1_Config:00000000 TI1_Config
C:\Users\sMi\AppData\Local\Temp\cc4d3dOs.s:25440  .text.TIM_SetIC1Prescaler:00000000 TIM_SetIC1Prescaler
C:\Users\sMi\AppData\Local\Temp\cc4d3dOs.s:26271  .text.TI2_Config:00000000 TI2_Config
C:\Users\sMi\AppData\Local\Temp\cc4d3dOs.s:25491  .text.TIM_SetIC2Prescaler:00000000 TIM_SetIC2Prescaler
C:\Users\sMi\AppData\Local\Temp\cc4d3dOs.s:26420  .text.TI3_Config:00000000 TI3_Config
C:\Users\sMi\AppData\Local\Temp\cc4d3dOs.s:25544  .text.TIM_SetIC3Prescaler:00000000 TIM_SetIC3Prescaler
C:\Users\sMi\AppData\Local\Temp\cc4d3dOs.s:26563  .text.TI4_Config:00000000 TI4_Config
C:\Users\sMi\AppData\Local\Temp\cc4d3dOs.s:25595  .text.TIM_SetIC4Prescaler:00000000 TIM_SetIC4Prescaler
C:\Users\sMi\AppData\Local\Temp\cc4d3dOs.s:21737  .text.TIM_PWMIConfig:00000000 $t
C:\Users\sMi\AppData\Local\Temp\cc4d3dOs.s:21742  .text.TIM_PWMIConfig:00000000 TIM_PWMIConfig
C:\Users\sMi\AppData\Local\Temp\cc4d3dOs.s:21871  .text.TIM_BDTRConfig:00000000 $t
C:\Users\sMi\AppData\Local\Temp\cc4d3dOs.s:21876  .text.TIM_BDTRConfig:00000000 TIM_BDTRConfig
C:\Users\sMi\AppData\Local\Temp\cc4d3dOs.s:21943  .text.TIM_TimeBaseStructInit:00000000 $t
C:\Users\sMi\AppData\Local\Temp\cc4d3dOs.s:21948  .text.TIM_TimeBaseStructInit:00000000 TIM_TimeBaseStructInit
C:\Users\sMi\AppData\Local\Temp\cc4d3dOs.s:21995  .text.TIM_OCStructInit:00000000 $t
C:\Users\sMi\AppData\Local\Temp\cc4d3dOs.s:22000  .text.TIM_OCStructInit:00000000 TIM_OCStructInit
C:\Users\sMi\AppData\Local\Temp\cc4d3dOs.s:22059  .text.TIM_ICStructInit:00000000 $t
C:\Users\sMi\AppData\Local\Temp\cc4d3dOs.s:22064  .text.TIM_ICStructInit:00000000 TIM_ICStructInit
C:\Users\sMi\AppData\Local\Temp\cc4d3dOs.s:22111  .text.TIM_BDTRStructInit:00000000 $t
C:\Users\sMi\AppData\Local\Temp\cc4d3dOs.s:22116  .text.TIM_BDTRStructInit:00000000 TIM_BDTRStructInit
C:\Users\sMi\AppData\Local\Temp\cc4d3dOs.s:22171  .text.TIM_Cmd:00000000 $t
C:\Users\sMi\AppData\Local\Temp\cc4d3dOs.s:22176  .text.TIM_Cmd:00000000 TIM_Cmd
C:\Users\sMi\AppData\Local\Temp\cc4d3dOs.s:22228  .text.TIM_CtrlPWMOutputs:00000000 $t
C:\Users\sMi\AppData\Local\Temp\cc4d3dOs.s:22233  .text.TIM_CtrlPWMOutputs:00000000 TIM_CtrlPWMOutputs
C:\Users\sMi\AppData\Local\Temp\cc4d3dOs.s:22287  .text.TIM_ITConfig:00000000 $t
C:\Users\sMi\AppData\Local\Temp\cc4d3dOs.s:22292  .text.TIM_ITConfig:00000000 TIM_ITConfig
C:\Users\sMi\AppData\Local\Temp\cc4d3dOs.s:22350  .text.TIM_GenerateEvent:00000000 $t
C:\Users\sMi\AppData\Local\Temp\cc4d3dOs.s:22355  .text.TIM_GenerateEvent:00000000 TIM_GenerateEvent
C:\Users\sMi\AppData\Local\Temp\cc4d3dOs.s:22388  .text.TIM_DMAConfig:00000000 $t
C:\Users\sMi\AppData\Local\Temp\cc4d3dOs.s:22393  .text.TIM_DMAConfig:00000000 TIM_DMAConfig
C:\Users\sMi\AppData\Local\Temp\cc4d3dOs.s:22431  .text.TIM_DMACmd:00000000 $t
C:\Users\sMi\AppData\Local\Temp\cc4d3dOs.s:22436  .text.TIM_DMACmd:00000000 TIM_DMACmd
C:\Users\sMi\AppData\Local\Temp\cc4d3dOs.s:22494  .text.TIM_InternalClockConfig:00000000 $t
C:\Users\sMi\AppData\Local\Temp\cc4d3dOs.s:22499  .text.TIM_InternalClockConfig:00000000 TIM_InternalClockConfig
C:\Users\sMi\AppData\Local\Temp\cc4d3dOs.s:22534  .text.TIM_ITRxExternalClockConfig:00000000 $t
C:\Users\sMi\AppData\Local\Temp\cc4d3dOs.s:22539  .text.TIM_ITRxExternalClockConfig:00000000 TIM_ITRxExternalClockConfig
C:\Users\sMi\AppData\Local\Temp\cc4d3dOs.s:22929  .text.TIM_SelectInputTrigger:00000000 TIM_SelectInputTrigger
C:\Users\sMi\AppData\Local\Temp\cc4d3dOs.s:22580  .text.TIM_TIxExternalClockConfig:00000000 $t
C:\Users\sMi\AppData\Local\Temp\cc4d3dOs.s:22585  .text.TIM_TIxExternalClockConfig:00000000 TIM_TIxExternalClockConfig
C:\Users\sMi\AppData\Local\Temp\cc4d3dOs.s:22648  .text.TIM_ETRClockMode1Config:00000000 $t
C:\Users\sMi\AppData\Local\Temp\cc4d3dOs.s:22653  .text.TIM_ETRClockMode1Config:00000000 TIM_ETRClockMode1Config
C:\Users\sMi\AppData\Local\Temp\cc4d3dOs.s:22768  .text.TIM_ETRConfig:00000000 TIM_ETRConfig
C:\Users\sMi\AppData\Local\Temp\cc4d3dOs.s:22715  .text.TIM_ETRClockMode2Config:00000000 $t
C:\Users\sMi\AppData\Local\Temp\cc4d3dOs.s:22720  .text.TIM_ETRClockMode2Config:00000000 TIM_ETRClockMode2Config
C:\Users\sMi\AppData\Local\Temp\cc4d3dOs.s:22763  .text.TIM_ETRConfig:00000000 $t
C:\Users\sMi\AppData\Local\Temp\cc4d3dOs.s:22826  .text.TIM_PrescalerConfig:00000000 $t
C:\Users\sMi\AppData\Local\Temp\cc4d3dOs.s:22831  .text.TIM_PrescalerConfig:00000000 TIM_PrescalerConfig
C:\Users\sMi\AppData\Local\Temp\cc4d3dOs.s:22870  .text.TIM_CounterModeConfig:00000000 $t
C:\Users\sMi\AppData\Local\Temp\cc4d3dOs.s:22875  .text.TIM_CounterModeConfig:00000000 TIM_CounterModeConfig
C:\Users\sMi\AppData\Local\Temp\cc4d3dOs.s:22924  .text.TIM_SelectInputTrigger:00000000 $t
C:\Users\sMi\AppData\Local\Temp\cc4d3dOs.s:22978  .text.TIM_EncoderInterfaceConfig:00000000 $t
C:\Users\sMi\AppData\Local\Temp\cc4d3dOs.s:22983  .text.TIM_EncoderInterfaceConfig:00000000 TIM_EncoderInterfaceConfig
C:\Users\sMi\AppData\Local\Temp\cc4d3dOs.s:23079  .text.TIM_ForcedOC1Config:00000000 $t
C:\Users\sMi\AppData\Local\Temp\cc4d3dOs.s:23084  .text.TIM_ForcedOC1Config:00000000 TIM_ForcedOC1Config
C:\Users\sMi\AppData\Local\Temp\cc4d3dOs.s:23133  .text.TIM_ForcedOC2Config:00000000 $t
C:\Users\sMi\AppData\Local\Temp\cc4d3dOs.s:23138  .text.TIM_ForcedOC2Config:00000000 TIM_ForcedOC2Config
C:\Users\sMi\AppData\Local\Temp\cc4d3dOs.s:23189  .text.TIM_ForcedOC3Config:00000000 $t
C:\Users\sMi\AppData\Local\Temp\cc4d3dOs.s:23194  .text.TIM_ForcedOC3Config:00000000 TIM_ForcedOC3Config
C:\Users\sMi\AppData\Local\Temp\cc4d3dOs.s:23243  .text.TIM_ForcedOC4Config:00000000 $t
C:\Users\sMi\AppData\Local\Temp\cc4d3dOs.s:23248  .text.TIM_ForcedOC4Config:00000000 TIM_ForcedOC4Config
C:\Users\sMi\AppData\Local\Temp\cc4d3dOs.s:23299  .text.TIM_ARRPreloadConfig:00000000 $t
C:\Users\sMi\AppData\Local\Temp\cc4d3dOs.s:23304  .text.TIM_ARRPreloadConfig:00000000 TIM_ARRPreloadConfig
C:\Users\sMi\AppData\Local\Temp\cc4d3dOs.s:23356  .text.TIM_SelectCOM:00000000 $t
C:\Users\sMi\AppData\Local\Temp\cc4d3dOs.s:23361  .text.TIM_SelectCOM:00000000 TIM_SelectCOM
C:\Users\sMi\AppData\Local\Temp\cc4d3dOs.s:23413  .text.TIM_SelectCCDMA:00000000 $t
C:\Users\sMi\AppData\Local\Temp\cc4d3dOs.s:23418  .text.TIM_SelectCCDMA:00000000 TIM_SelectCCDMA
C:\Users\sMi\AppData\Local\Temp\cc4d3dOs.s:23470  .text.TIM_CCPreloadControl:00000000 $t
C:\Users\sMi\AppData\Local\Temp\cc4d3dOs.s:23475  .text.TIM_CCPreloadControl:00000000 TIM_CCPreloadControl
C:\Users\sMi\AppData\Local\Temp\cc4d3dOs.s:23527  .text.TIM_OC1PreloadConfig:00000000 $t
C:\Users\sMi\AppData\Local\Temp\cc4d3dOs.s:23532  .text.TIM_OC1PreloadConfig:00000000 TIM_OC1PreloadConfig
C:\Users\sMi\AppData\Local\Temp\cc4d3dOs.s:23581  .text.TIM_OC2PreloadConfig:00000000 $t
C:\Users\sMi\AppData\Local\Temp\cc4d3dOs.s:23586  .text.TIM_OC2PreloadConfig:00000000 TIM_OC2PreloadConfig
C:\Users\sMi\AppData\Local\Temp\cc4d3dOs.s:23637  .text.TIM_OC3PreloadConfig:00000000 $t
C:\Users\sMi\AppData\Local\Temp\cc4d3dOs.s:23642  .text.TIM_OC3PreloadConfig:00000000 TIM_OC3PreloadConfig
C:\Users\sMi\AppData\Local\Temp\cc4d3dOs.s:23691  .text.TIM_OC4PreloadConfig:00000000 $t
C:\Users\sMi\AppData\Local\Temp\cc4d3dOs.s:23696  .text.TIM_OC4PreloadConfig:00000000 TIM_OC4PreloadConfig
C:\Users\sMi\AppData\Local\Temp\cc4d3dOs.s:23747  .text.TIM_OC1FastConfig:00000000 $t
C:\Users\sMi\AppData\Local\Temp\cc4d3dOs.s:23752  .text.TIM_OC1FastConfig:00000000 TIM_OC1FastConfig
C:\Users\sMi\AppData\Local\Temp\cc4d3dOs.s:23801  .text.TIM_OC2FastConfig:00000000 $t
C:\Users\sMi\AppData\Local\Temp\cc4d3dOs.s:23806  .text.TIM_OC2FastConfig:00000000 TIM_OC2FastConfig
C:\Users\sMi\AppData\Local\Temp\cc4d3dOs.s:23857  .text.TIM_OC3FastConfig:00000000 $t
C:\Users\sMi\AppData\Local\Temp\cc4d3dOs.s:23862  .text.TIM_OC3FastConfig:00000000 TIM_OC3FastConfig
C:\Users\sMi\AppData\Local\Temp\cc4d3dOs.s:23911  .text.TIM_OC4FastConfig:00000000 $t
C:\Users\sMi\AppData\Local\Temp\cc4d3dOs.s:23916  .text.TIM_OC4FastConfig:00000000 TIM_OC4FastConfig
C:\Users\sMi\AppData\Local\Temp\cc4d3dOs.s:23967  .text.TIM_ClearOC1Ref:00000000 $t
C:\Users\sMi\AppData\Local\Temp\cc4d3dOs.s:23972  .text.TIM_ClearOC1Ref:00000000 TIM_ClearOC1Ref
C:\Users\sMi\AppData\Local\Temp\cc4d3dOs.s:24021  .text.TIM_ClearOC2Ref:00000000 $t
C:\Users\sMi\AppData\Local\Temp\cc4d3dOs.s:24026  .text.TIM_ClearOC2Ref:00000000 TIM_ClearOC2Ref
C:\Users\sMi\AppData\Local\Temp\cc4d3dOs.s:24078  .text.TIM_ClearOC3Ref:00000000 $t
C:\Users\sMi\AppData\Local\Temp\cc4d3dOs.s:24083  .text.TIM_ClearOC3Ref:00000000 TIM_ClearOC3Ref
C:\Users\sMi\AppData\Local\Temp\cc4d3dOs.s:24132  .text.TIM_ClearOC4Ref:00000000 $t
C:\Users\sMi\AppData\Local\Temp\cc4d3dOs.s:24137  .text.TIM_ClearOC4Ref:00000000 TIM_ClearOC4Ref
C:\Users\sMi\AppData\Local\Temp\cc4d3dOs.s:24189  .text.TIM_OC1PolarityConfig:00000000 $t
C:\Users\sMi\AppData\Local\Temp\cc4d3dOs.s:24194  .text.TIM_OC1PolarityConfig:00000000 TIM_OC1PolarityConfig
C:\Users\sMi\AppData\Local\Temp\cc4d3dOs.s:24243  .text.TIM_OC1NPolarityConfig:00000000 $t
C:\Users\sMi\AppData\Local\Temp\cc4d3dOs.s:24248  .text.TIM_OC1NPolarityConfig:00000000 TIM_OC1NPolarityConfig
C:\Users\sMi\AppData\Local\Temp\cc4d3dOs.s:24297  .text.TIM_OC2PolarityConfig:00000000 $t
C:\Users\sMi\AppData\Local\Temp\cc4d3dOs.s:24302  .text.TIM_OC2PolarityConfig:00000000 TIM_OC2PolarityConfig
C:\Users\sMi\AppData\Local\Temp\cc4d3dOs.s:24353  .text.TIM_OC2NPolarityConfig:00000000 $t
C:\Users\sMi\AppData\Local\Temp\cc4d3dOs.s:24358  .text.TIM_OC2NPolarityConfig:00000000 TIM_OC2NPolarityConfig
C:\Users\sMi\AppData\Local\Temp\cc4d3dOs.s:24409  .text.TIM_OC3PolarityConfig:00000000 $t
C:\Users\sMi\AppData\Local\Temp\cc4d3dOs.s:24414  .text.TIM_OC3PolarityConfig:00000000 TIM_OC3PolarityConfig
C:\Users\sMi\AppData\Local\Temp\cc4d3dOs.s:24465  .text.TIM_OC3NPolarityConfig:00000000 $t
C:\Users\sMi\AppData\Local\Temp\cc4d3dOs.s:24470  .text.TIM_OC3NPolarityConfig:00000000 TIM_OC3NPolarityConfig
C:\Users\sMi\AppData\Local\Temp\cc4d3dOs.s:24521  .text.TIM_OC4PolarityConfig:00000000 $t
C:\Users\sMi\AppData\Local\Temp\cc4d3dOs.s:24526  .text.TIM_OC4PolarityConfig:00000000 TIM_OC4PolarityConfig
C:\Users\sMi\AppData\Local\Temp\cc4d3dOs.s:24577  .text.TIM_CCxCmd:00000000 $t
C:\Users\sMi\AppData\Local\Temp\cc4d3dOs.s:24582  .text.TIM_CCxCmd:00000000 TIM_CCxCmd
C:\Users\sMi\AppData\Local\Temp\cc4d3dOs.s:24644  .text.TIM_CCxNCmd:00000000 $t
C:\Users\sMi\AppData\Local\Temp\cc4d3dOs.s:24649  .text.TIM_CCxNCmd:00000000 TIM_CCxNCmd
C:\Users\sMi\AppData\Local\Temp\cc4d3dOs.s:24711  .text.TIM_SelectOCxM:00000000 $t
C:\Users\sMi\AppData\Local\Temp\cc4d3dOs.s:24716  .text.TIM_SelectOCxM:00000000 TIM_SelectOCxM
C:\Users\sMi\AppData\Local\Temp\cc4d3dOs.s:24832  .text.TIM_UpdateDisableConfig:00000000 $t
C:\Users\sMi\AppData\Local\Temp\cc4d3dOs.s:24837  .text.TIM_UpdateDisableConfig:00000000 TIM_UpdateDisableConfig
C:\Users\sMi\AppData\Local\Temp\cc4d3dOs.s:24889  .text.TIM_UpdateRequestConfig:00000000 $t
C:\Users\sMi\AppData\Local\Temp\cc4d3dOs.s:24894  .text.TIM_UpdateRequestConfig:00000000 TIM_UpdateRequestConfig
C:\Users\sMi\AppData\Local\Temp\cc4d3dOs.s:24946  .text.TIM_SelectHallSensor:00000000 $t
C:\Users\sMi\AppData\Local\Temp\cc4d3dOs.s:24951  .text.TIM_SelectHallSensor:00000000 TIM_SelectHallSensor
C:\Users\sMi\AppData\Local\Temp\cc4d3dOs.s:25003  .text.TIM_SelectOnePulseMode:00000000 $t
C:\Users\sMi\AppData\Local\Temp\cc4d3dOs.s:25008  .text.TIM_SelectOnePulseMode:00000000 TIM_SelectOnePulseMode
C:\Users\sMi\AppData\Local\Temp\cc4d3dOs.s:25054  .text.TIM_SelectOutputTrigger:00000000 $t
C:\Users\sMi\AppData\Local\Temp\cc4d3dOs.s:25059  .text.TIM_SelectOutputTrigger:00000000 TIM_SelectOutputTrigger
C:\Users\sMi\AppData\Local\Temp\cc4d3dOs.s:25105  .text.TIM_SelectSlaveMode:00000000 $t
C:\Users\sMi\AppData\Local\Temp\cc4d3dOs.s:25110  .text.TIM_SelectSlaveMode:00000000 TIM_SelectSlaveMode
C:\Users\sMi\AppData\Local\Temp\cc4d3dOs.s:25156  .text.TIM_SelectMasterSlaveMode:00000000 $t
C:\Users\sMi\AppData\Local\Temp\cc4d3dOs.s:25161  .text.TIM_SelectMasterSlaveMode:00000000 TIM_SelectMasterSlaveMode
C:\Users\sMi\AppData\Local\Temp\cc4d3dOs.s:25207  .text.TIM_SetCounter:00000000 $t
C:\Users\sMi\AppData\Local\Temp\cc4d3dOs.s:25212  .text.TIM_SetCounter:00000000 TIM_SetCounter
C:\Users\sMi\AppData\Local\Temp\cc4d3dOs.s:25245  .text.TIM_SetAutoreload:00000000 $t
C:\Users\sMi\AppData\Local\Temp\cc4d3dOs.s:25250  .text.TIM_SetAutoreload:00000000 TIM_SetAutoreload
C:\Users\sMi\AppData\Local\Temp\cc4d3dOs.s:25283  .text.TIM_SetCompare1:00000000 $t
C:\Users\sMi\AppData\Local\Temp\cc4d3dOs.s:25288  .text.TIM_SetCompare1:00000000 TIM_SetCompare1
C:\Users\sMi\AppData\Local\Temp\cc4d3dOs.s:25321  .text.TIM_SetCompare2:00000000 $t
C:\Users\sMi\AppData\Local\Temp\cc4d3dOs.s:25326  .text.TIM_SetCompare2:00000000 TIM_SetCompare2
C:\Users\sMi\AppData\Local\Temp\cc4d3dOs.s:25359  .text.TIM_SetCompare3:00000000 $t
C:\Users\sMi\AppData\Local\Temp\cc4d3dOs.s:25364  .text.TIM_SetCompare3:00000000 TIM_SetCompare3
C:\Users\sMi\AppData\Local\Temp\cc4d3dOs.s:25397  .text.TIM_SetCompare4:00000000 $t
C:\Users\sMi\AppData\Local\Temp\cc4d3dOs.s:25402  .text.TIM_SetCompare4:00000000 TIM_SetCompare4
C:\Users\sMi\AppData\Local\Temp\cc4d3dOs.s:25435  .text.TIM_SetIC1Prescaler:00000000 $t
C:\Users\sMi\AppData\Local\Temp\cc4d3dOs.s:25486  .text.TIM_SetIC2Prescaler:00000000 $t
C:\Users\sMi\AppData\Local\Temp\cc4d3dOs.s:25539  .text.TIM_SetIC3Prescaler:00000000 $t
C:\Users\sMi\AppData\Local\Temp\cc4d3dOs.s:25590  .text.TIM_SetIC4Prescaler:00000000 $t
C:\Users\sMi\AppData\Local\Temp\cc4d3dOs.s:25643  .text.TIM_SetClockDivision:00000000 $t
C:\Users\sMi\AppData\Local\Temp\cc4d3dOs.s:25648  .text.TIM_SetClockDivision:00000000 TIM_SetClockDivision
C:\Users\sMi\AppData\Local\Temp\cc4d3dOs.s:25694  .text.TIM_GetCapture1:00000000 $t
C:\Users\sMi\AppData\Local\Temp\cc4d3dOs.s:25699  .text.TIM_GetCapture1:00000000 TIM_GetCapture1
C:\Users\sMi\AppData\Local\Temp\cc4d3dOs.s:25731  .text.TIM_GetCapture2:00000000 $t
C:\Users\sMi\AppData\Local\Temp\cc4d3dOs.s:25736  .text.TIM_GetCapture2:00000000 TIM_GetCapture2
C:\Users\sMi\AppData\Local\Temp\cc4d3dOs.s:25768  .text.TIM_GetCapture3:00000000 $t
C:\Users\sMi\AppData\Local\Temp\cc4d3dOs.s:25773  .text.TIM_GetCapture3:00000000 TIM_GetCapture3
C:\Users\sMi\AppData\Local\Temp\cc4d3dOs.s:25805  .text.TIM_GetCapture4:00000000 $t
C:\Users\sMi\AppData\Local\Temp\cc4d3dOs.s:25810  .text.TIM_GetCapture4:00000000 TIM_GetCapture4
C:\Users\sMi\AppData\Local\Temp\cc4d3dOs.s:25842  .text.TIM_GetCounter:00000000 $t
C:\Users\sMi\AppData\Local\Temp\cc4d3dOs.s:25847  .text.TIM_GetCounter:00000000 TIM_GetCounter
C:\Users\sMi\AppData\Local\Temp\cc4d3dOs.s:25879  .text.TIM_GetPrescaler:00000000 $t
C:\Users\sMi\AppData\Local\Temp\cc4d3dOs.s:25884  .text.TIM_GetPrescaler:00000000 TIM_GetPrescaler
C:\Users\sMi\AppData\Local\Temp\cc4d3dOs.s:25916  .text.TIM_GetFlagStatus:00000000 $t
C:\Users\sMi\AppData\Local\Temp\cc4d3dOs.s:25921  .text.TIM_GetFlagStatus:00000000 TIM_GetFlagStatus
C:\Users\sMi\AppData\Local\Temp\cc4d3dOs.s:25974  .text.TIM_ClearFlag:00000000 $t
C:\Users\sMi\AppData\Local\Temp\cc4d3dOs.s:25979  .text.TIM_ClearFlag:00000000 TIM_ClearFlag
C:\Users\sMi\AppData\Local\Temp\cc4d3dOs.s:26014  .text.TIM_GetITStatus:00000000 $t
C:\Users\sMi\AppData\Local\Temp\cc4d3dOs.s:26019  .text.TIM_GetITStatus:00000000 TIM_GetITStatus
C:\Users\sMi\AppData\Local\Temp\cc4d3dOs.s:26090  .text.TIM_ClearITPendingBit:00000000 $t
C:\Users\sMi\AppData\Local\Temp\cc4d3dOs.s:26095  .text.TIM_ClearITPendingBit:00000000 TIM_ClearITPendingBit
C:\Users\sMi\AppData\Local\Temp\cc4d3dOs.s:26130  .text.TI1_Config:00000000 $t
C:\Users\sMi\AppData\Local\Temp\cc4d3dOs.s:26258  .text.TI1_Config:000000d0 $d
C:\Users\sMi\AppData\Local\Temp\cc4d3dOs.s:26267  .text.TI2_Config:00000000 $t
C:\Users\sMi\AppData\Local\Temp\cc4d3dOs.s:26407  .text.TI2_Config:000000ec $d
C:\Users\sMi\AppData\Local\Temp\cc4d3dOs.s:26416  .text.TI3_Config:00000000 $t
C:\Users\sMi\AppData\Local\Temp\cc4d3dOs.s:26550  .text.TI3_Config:000000dc $d
C:\Users\sMi\AppData\Local\Temp\cc4d3dOs.s:26559  .text.TI4_Config:00000000 $t
C:\Users\sMi\AppData\Local\Temp\cc4d3dOs.s:26701  .text.TI4_Config:000000f4 $d
                     .debug_frame:00000010 $d

UNDEFINED SYMBOLS
RCC_APB2PeriphResetCmd
RCC_APB1PeriphResetCmd
