   1              		.syntax unified
   2              		.cpu cortex-m3
   3              		.fpu softvfp
   4              		.eabi_attribute 20, 1
   5              		.eabi_attribute 21, 1
   6              		.eabi_attribute 23, 3
   7              		.eabi_attribute 24, 1
   8              		.eabi_attribute 25, 1
   9              		.eabi_attribute 26, 1
  10              		.eabi_attribute 30, 6
  11              		.eabi_attribute 18, 4
  12              		.thumb
  13              		.file	"stm32f10x_i2c.c"
  23              	.Ltext0:
  24              		.file 1 "../Libraries/STM32F10x_StdPeriph_Driver/src/stm32f10x_i2c.c"
 19973              		.align	2
 19974              		.global	I2C_DeInit
 19975              		.thumb
 19976              		.thumb_func
 19978              	I2C_DeInit:
 19979              	.LFB29:
   1:../Libraries/STM32F10x_StdPeriph_Driver/src/stm32f10x_i2c.c **** /**
   2:../Libraries/STM32F10x_StdPeriph_Driver/src/stm32f10x_i2c.c ****   ******************************************************************************
   3:../Libraries/STM32F10x_StdPeriph_Driver/src/stm32f10x_i2c.c ****   * @file    stm32f10x_i2c.c
   4:../Libraries/STM32F10x_StdPeriph_Driver/src/stm32f10x_i2c.c ****   * @author  MCD Application Team
   5:../Libraries/STM32F10x_StdPeriph_Driver/src/stm32f10x_i2c.c ****   * @version V3.5.0
   6:../Libraries/STM32F10x_StdPeriph_Driver/src/stm32f10x_i2c.c ****   * @date    11-March-2011
   7:../Libraries/STM32F10x_StdPeriph_Driver/src/stm32f10x_i2c.c ****   * @brief   This file provides all the I2C firmware functions.
   8:../Libraries/STM32F10x_StdPeriph_Driver/src/stm32f10x_i2c.c ****   ******************************************************************************
   9:../Libraries/STM32F10x_StdPeriph_Driver/src/stm32f10x_i2c.c ****   * @attention
  10:../Libraries/STM32F10x_StdPeriph_Driver/src/stm32f10x_i2c.c ****   *
  11:../Libraries/STM32F10x_StdPeriph_Driver/src/stm32f10x_i2c.c ****   * THE PRESENT FIRMWARE WHICH IS FOR GUIDANCE ONLY AIMS AT PROVIDING CUSTOMERS
  12:../Libraries/STM32F10x_StdPeriph_Driver/src/stm32f10x_i2c.c ****   * WITH CODING INFORMATION REGARDING THEIR PRODUCTS IN ORDER FOR THEM TO SAVE
  13:../Libraries/STM32F10x_StdPeriph_Driver/src/stm32f10x_i2c.c ****   * TIME. AS A RESULT, STMICROELECTRONICS SHALL NOT BE HELD LIABLE FOR ANY
  14:../Libraries/STM32F10x_StdPeriph_Driver/src/stm32f10x_i2c.c ****   * DIRECT, INDIRECT OR CONSEQUENTIAL DAMAGES WITH RESPECT TO ANY CLAIMS ARISING
  15:../Libraries/STM32F10x_StdPeriph_Driver/src/stm32f10x_i2c.c ****   * FROM THE CONTENT OF SUCH FIRMWARE AND/OR THE USE MADE BY CUSTOMERS OF THE
  16:../Libraries/STM32F10x_StdPeriph_Driver/src/stm32f10x_i2c.c ****   * CODING INFORMATION CONTAINED HEREIN IN CONNECTION WITH THEIR PRODUCTS.
  17:../Libraries/STM32F10x_StdPeriph_Driver/src/stm32f10x_i2c.c ****   *
  18:../Libraries/STM32F10x_StdPeriph_Driver/src/stm32f10x_i2c.c ****   * <h2><center>&copy; COPYRIGHT 2011 STMicroelectronics</center></h2>
  19:../Libraries/STM32F10x_StdPeriph_Driver/src/stm32f10x_i2c.c ****   ******************************************************************************
  20:../Libraries/STM32F10x_StdPeriph_Driver/src/stm32f10x_i2c.c ****   */
  21:../Libraries/STM32F10x_StdPeriph_Driver/src/stm32f10x_i2c.c **** 
  22:../Libraries/STM32F10x_StdPeriph_Driver/src/stm32f10x_i2c.c **** /* Includes ------------------------------------------------------------------*/
  23:../Libraries/STM32F10x_StdPeriph_Driver/src/stm32f10x_i2c.c **** #include "stm32f10x_i2c.h"
  24:../Libraries/STM32F10x_StdPeriph_Driver/src/stm32f10x_i2c.c **** #include "stm32f10x_rcc.h"
  25:../Libraries/STM32F10x_StdPeriph_Driver/src/stm32f10x_i2c.c **** 
  26:../Libraries/STM32F10x_StdPeriph_Driver/src/stm32f10x_i2c.c **** 
  27:../Libraries/STM32F10x_StdPeriph_Driver/src/stm32f10x_i2c.c **** /** @addtogroup STM32F10x_StdPeriph_Driver
  28:../Libraries/STM32F10x_StdPeriph_Driver/src/stm32f10x_i2c.c ****   * @{
  29:../Libraries/STM32F10x_StdPeriph_Driver/src/stm32f10x_i2c.c ****   */
  30:../Libraries/STM32F10x_StdPeriph_Driver/src/stm32f10x_i2c.c **** 
  31:../Libraries/STM32F10x_StdPeriph_Driver/src/stm32f10x_i2c.c **** /** @defgroup I2C 
  32:../Libraries/STM32F10x_StdPeriph_Driver/src/stm32f10x_i2c.c ****   * @brief I2C driver modules
  33:../Libraries/STM32F10x_StdPeriph_Driver/src/stm32f10x_i2c.c ****   * @{
  34:../Libraries/STM32F10x_StdPeriph_Driver/src/stm32f10x_i2c.c ****   */ 
  35:../Libraries/STM32F10x_StdPeriph_Driver/src/stm32f10x_i2c.c **** 
  36:../Libraries/STM32F10x_StdPeriph_Driver/src/stm32f10x_i2c.c **** /** @defgroup I2C_Private_TypesDefinitions
  37:../Libraries/STM32F10x_StdPeriph_Driver/src/stm32f10x_i2c.c ****   * @{
  38:../Libraries/STM32F10x_StdPeriph_Driver/src/stm32f10x_i2c.c ****   */
  39:../Libraries/STM32F10x_StdPeriph_Driver/src/stm32f10x_i2c.c **** 
  40:../Libraries/STM32F10x_StdPeriph_Driver/src/stm32f10x_i2c.c **** /**
  41:../Libraries/STM32F10x_StdPeriph_Driver/src/stm32f10x_i2c.c ****   * @}
  42:../Libraries/STM32F10x_StdPeriph_Driver/src/stm32f10x_i2c.c ****   */
  43:../Libraries/STM32F10x_StdPeriph_Driver/src/stm32f10x_i2c.c **** 
  44:../Libraries/STM32F10x_StdPeriph_Driver/src/stm32f10x_i2c.c **** /** @defgroup I2C_Private_Defines
  45:../Libraries/STM32F10x_StdPeriph_Driver/src/stm32f10x_i2c.c ****   * @{
  46:../Libraries/STM32F10x_StdPeriph_Driver/src/stm32f10x_i2c.c ****   */
  47:../Libraries/STM32F10x_StdPeriph_Driver/src/stm32f10x_i2c.c **** 
  48:../Libraries/STM32F10x_StdPeriph_Driver/src/stm32f10x_i2c.c **** /* I2C SPE mask */
  49:../Libraries/STM32F10x_StdPeriph_Driver/src/stm32f10x_i2c.c **** #define CR1_PE_Set              ((uint16_t)0x0001)
  50:../Libraries/STM32F10x_StdPeriph_Driver/src/stm32f10x_i2c.c **** #define CR1_PE_Reset            ((uint16_t)0xFFFE)
  51:../Libraries/STM32F10x_StdPeriph_Driver/src/stm32f10x_i2c.c **** 
  52:../Libraries/STM32F10x_StdPeriph_Driver/src/stm32f10x_i2c.c **** /* I2C START mask */
  53:../Libraries/STM32F10x_StdPeriph_Driver/src/stm32f10x_i2c.c **** #define CR1_START_Set           ((uint16_t)0x0100)
  54:../Libraries/STM32F10x_StdPeriph_Driver/src/stm32f10x_i2c.c **** #define CR1_START_Reset         ((uint16_t)0xFEFF)
  55:../Libraries/STM32F10x_StdPeriph_Driver/src/stm32f10x_i2c.c **** 
  56:../Libraries/STM32F10x_StdPeriph_Driver/src/stm32f10x_i2c.c **** /* I2C STOP mask */
  57:../Libraries/STM32F10x_StdPeriph_Driver/src/stm32f10x_i2c.c **** #define CR1_STOP_Set            ((uint16_t)0x0200)
  58:../Libraries/STM32F10x_StdPeriph_Driver/src/stm32f10x_i2c.c **** #define CR1_STOP_Reset          ((uint16_t)0xFDFF)
  59:../Libraries/STM32F10x_StdPeriph_Driver/src/stm32f10x_i2c.c **** 
  60:../Libraries/STM32F10x_StdPeriph_Driver/src/stm32f10x_i2c.c **** /* I2C ACK mask */
  61:../Libraries/STM32F10x_StdPeriph_Driver/src/stm32f10x_i2c.c **** #define CR1_ACK_Set             ((uint16_t)0x0400)
  62:../Libraries/STM32F10x_StdPeriph_Driver/src/stm32f10x_i2c.c **** #define CR1_ACK_Reset           ((uint16_t)0xFBFF)
  63:../Libraries/STM32F10x_StdPeriph_Driver/src/stm32f10x_i2c.c **** 
  64:../Libraries/STM32F10x_StdPeriph_Driver/src/stm32f10x_i2c.c **** /* I2C ENGC mask */
  65:../Libraries/STM32F10x_StdPeriph_Driver/src/stm32f10x_i2c.c **** #define CR1_ENGC_Set            ((uint16_t)0x0040)
  66:../Libraries/STM32F10x_StdPeriph_Driver/src/stm32f10x_i2c.c **** #define CR1_ENGC_Reset          ((uint16_t)0xFFBF)
  67:../Libraries/STM32F10x_StdPeriph_Driver/src/stm32f10x_i2c.c **** 
  68:../Libraries/STM32F10x_StdPeriph_Driver/src/stm32f10x_i2c.c **** /* I2C SWRST mask */
  69:../Libraries/STM32F10x_StdPeriph_Driver/src/stm32f10x_i2c.c **** #define CR1_SWRST_Set           ((uint16_t)0x8000)
  70:../Libraries/STM32F10x_StdPeriph_Driver/src/stm32f10x_i2c.c **** #define CR1_SWRST_Reset         ((uint16_t)0x7FFF)
  71:../Libraries/STM32F10x_StdPeriph_Driver/src/stm32f10x_i2c.c **** 
  72:../Libraries/STM32F10x_StdPeriph_Driver/src/stm32f10x_i2c.c **** /* I2C PEC mask */
  73:../Libraries/STM32F10x_StdPeriph_Driver/src/stm32f10x_i2c.c **** #define CR1_PEC_Set             ((uint16_t)0x1000)
  74:../Libraries/STM32F10x_StdPeriph_Driver/src/stm32f10x_i2c.c **** #define CR1_PEC_Reset           ((uint16_t)0xEFFF)
  75:../Libraries/STM32F10x_StdPeriph_Driver/src/stm32f10x_i2c.c **** 
  76:../Libraries/STM32F10x_StdPeriph_Driver/src/stm32f10x_i2c.c **** /* I2C ENPEC mask */
  77:../Libraries/STM32F10x_StdPeriph_Driver/src/stm32f10x_i2c.c **** #define CR1_ENPEC_Set           ((uint16_t)0x0020)
  78:../Libraries/STM32F10x_StdPeriph_Driver/src/stm32f10x_i2c.c **** #define CR1_ENPEC_Reset         ((uint16_t)0xFFDF)
  79:../Libraries/STM32F10x_StdPeriph_Driver/src/stm32f10x_i2c.c **** 
  80:../Libraries/STM32F10x_StdPeriph_Driver/src/stm32f10x_i2c.c **** /* I2C ENARP mask */
  81:../Libraries/STM32F10x_StdPeriph_Driver/src/stm32f10x_i2c.c **** #define CR1_ENARP_Set           ((uint16_t)0x0010)
  82:../Libraries/STM32F10x_StdPeriph_Driver/src/stm32f10x_i2c.c **** #define CR1_ENARP_Reset         ((uint16_t)0xFFEF)
  83:../Libraries/STM32F10x_StdPeriph_Driver/src/stm32f10x_i2c.c **** 
  84:../Libraries/STM32F10x_StdPeriph_Driver/src/stm32f10x_i2c.c **** /* I2C NOSTRETCH mask */
  85:../Libraries/STM32F10x_StdPeriph_Driver/src/stm32f10x_i2c.c **** #define CR1_NOSTRETCH_Set       ((uint16_t)0x0080)
  86:../Libraries/STM32F10x_StdPeriph_Driver/src/stm32f10x_i2c.c **** #define CR1_NOSTRETCH_Reset     ((uint16_t)0xFF7F)
  87:../Libraries/STM32F10x_StdPeriph_Driver/src/stm32f10x_i2c.c **** 
  88:../Libraries/STM32F10x_StdPeriph_Driver/src/stm32f10x_i2c.c **** /* I2C registers Masks */
  89:../Libraries/STM32F10x_StdPeriph_Driver/src/stm32f10x_i2c.c **** #define CR1_CLEAR_Mask          ((uint16_t)0xFBF5)
  90:../Libraries/STM32F10x_StdPeriph_Driver/src/stm32f10x_i2c.c **** 
  91:../Libraries/STM32F10x_StdPeriph_Driver/src/stm32f10x_i2c.c **** /* I2C DMAEN mask */
  92:../Libraries/STM32F10x_StdPeriph_Driver/src/stm32f10x_i2c.c **** #define CR2_DMAEN_Set           ((uint16_t)0x0800)
  93:../Libraries/STM32F10x_StdPeriph_Driver/src/stm32f10x_i2c.c **** #define CR2_DMAEN_Reset         ((uint16_t)0xF7FF)
  94:../Libraries/STM32F10x_StdPeriph_Driver/src/stm32f10x_i2c.c **** 
  95:../Libraries/STM32F10x_StdPeriph_Driver/src/stm32f10x_i2c.c **** /* I2C LAST mask */
  96:../Libraries/STM32F10x_StdPeriph_Driver/src/stm32f10x_i2c.c **** #define CR2_LAST_Set            ((uint16_t)0x1000)
  97:../Libraries/STM32F10x_StdPeriph_Driver/src/stm32f10x_i2c.c **** #define CR2_LAST_Reset          ((uint16_t)0xEFFF)
  98:../Libraries/STM32F10x_StdPeriph_Driver/src/stm32f10x_i2c.c **** 
  99:../Libraries/STM32F10x_StdPeriph_Driver/src/stm32f10x_i2c.c **** /* I2C FREQ mask */
 100:../Libraries/STM32F10x_StdPeriph_Driver/src/stm32f10x_i2c.c **** #define CR2_FREQ_Reset          ((uint16_t)0xFFC0)
 101:../Libraries/STM32F10x_StdPeriph_Driver/src/stm32f10x_i2c.c **** 
 102:../Libraries/STM32F10x_StdPeriph_Driver/src/stm32f10x_i2c.c **** /* I2C ADD0 mask */
 103:../Libraries/STM32F10x_StdPeriph_Driver/src/stm32f10x_i2c.c **** #define OAR1_ADD0_Set           ((uint16_t)0x0001)
 104:../Libraries/STM32F10x_StdPeriph_Driver/src/stm32f10x_i2c.c **** #define OAR1_ADD0_Reset         ((uint16_t)0xFFFE)
 105:../Libraries/STM32F10x_StdPeriph_Driver/src/stm32f10x_i2c.c **** 
 106:../Libraries/STM32F10x_StdPeriph_Driver/src/stm32f10x_i2c.c **** /* I2C ENDUAL mask */
 107:../Libraries/STM32F10x_StdPeriph_Driver/src/stm32f10x_i2c.c **** #define OAR2_ENDUAL_Set         ((uint16_t)0x0001)
 108:../Libraries/STM32F10x_StdPeriph_Driver/src/stm32f10x_i2c.c **** #define OAR2_ENDUAL_Reset       ((uint16_t)0xFFFE)
 109:../Libraries/STM32F10x_StdPeriph_Driver/src/stm32f10x_i2c.c **** 
 110:../Libraries/STM32F10x_StdPeriph_Driver/src/stm32f10x_i2c.c **** /* I2C ADD2 mask */
 111:../Libraries/STM32F10x_StdPeriph_Driver/src/stm32f10x_i2c.c **** #define OAR2_ADD2_Reset         ((uint16_t)0xFF01)
 112:../Libraries/STM32F10x_StdPeriph_Driver/src/stm32f10x_i2c.c **** 
 113:../Libraries/STM32F10x_StdPeriph_Driver/src/stm32f10x_i2c.c **** /* I2C F/S mask */
 114:../Libraries/STM32F10x_StdPeriph_Driver/src/stm32f10x_i2c.c **** #define CCR_FS_Set              ((uint16_t)0x8000)
 115:../Libraries/STM32F10x_StdPeriph_Driver/src/stm32f10x_i2c.c **** 
 116:../Libraries/STM32F10x_StdPeriph_Driver/src/stm32f10x_i2c.c **** /* I2C CCR mask */
 117:../Libraries/STM32F10x_StdPeriph_Driver/src/stm32f10x_i2c.c **** #define CCR_CCR_Set             ((uint16_t)0x0FFF)
 118:../Libraries/STM32F10x_StdPeriph_Driver/src/stm32f10x_i2c.c **** 
 119:../Libraries/STM32F10x_StdPeriph_Driver/src/stm32f10x_i2c.c **** /* I2C FLAG mask */
 120:../Libraries/STM32F10x_StdPeriph_Driver/src/stm32f10x_i2c.c **** #define FLAG_Mask               ((uint32_t)0x00FFFFFF)
 121:../Libraries/STM32F10x_StdPeriph_Driver/src/stm32f10x_i2c.c **** 
 122:../Libraries/STM32F10x_StdPeriph_Driver/src/stm32f10x_i2c.c **** /* I2C Interrupt Enable mask */
 123:../Libraries/STM32F10x_StdPeriph_Driver/src/stm32f10x_i2c.c **** #define ITEN_Mask               ((uint32_t)0x07000000)
 124:../Libraries/STM32F10x_StdPeriph_Driver/src/stm32f10x_i2c.c **** 
 125:../Libraries/STM32F10x_StdPeriph_Driver/src/stm32f10x_i2c.c **** /**
 126:../Libraries/STM32F10x_StdPeriph_Driver/src/stm32f10x_i2c.c ****   * @}
 127:../Libraries/STM32F10x_StdPeriph_Driver/src/stm32f10x_i2c.c ****   */
 128:../Libraries/STM32F10x_StdPeriph_Driver/src/stm32f10x_i2c.c **** 
 129:../Libraries/STM32F10x_StdPeriph_Driver/src/stm32f10x_i2c.c **** /** @defgroup I2C_Private_Macros
 130:../Libraries/STM32F10x_StdPeriph_Driver/src/stm32f10x_i2c.c ****   * @{
 131:../Libraries/STM32F10x_StdPeriph_Driver/src/stm32f10x_i2c.c ****   */
 132:../Libraries/STM32F10x_StdPeriph_Driver/src/stm32f10x_i2c.c **** 
 133:../Libraries/STM32F10x_StdPeriph_Driver/src/stm32f10x_i2c.c **** /**
 134:../Libraries/STM32F10x_StdPeriph_Driver/src/stm32f10x_i2c.c ****   * @}
 135:../Libraries/STM32F10x_StdPeriph_Driver/src/stm32f10x_i2c.c ****   */
 136:../Libraries/STM32F10x_StdPeriph_Driver/src/stm32f10x_i2c.c **** 
 137:../Libraries/STM32F10x_StdPeriph_Driver/src/stm32f10x_i2c.c **** /** @defgroup I2C_Private_Variables
 138:../Libraries/STM32F10x_StdPeriph_Driver/src/stm32f10x_i2c.c ****   * @{
 139:../Libraries/STM32F10x_StdPeriph_Driver/src/stm32f10x_i2c.c ****   */
 140:../Libraries/STM32F10x_StdPeriph_Driver/src/stm32f10x_i2c.c **** 
 141:../Libraries/STM32F10x_StdPeriph_Driver/src/stm32f10x_i2c.c **** /**
 142:../Libraries/STM32F10x_StdPeriph_Driver/src/stm32f10x_i2c.c ****   * @}
 143:../Libraries/STM32F10x_StdPeriph_Driver/src/stm32f10x_i2c.c ****   */
 144:../Libraries/STM32F10x_StdPeriph_Driver/src/stm32f10x_i2c.c **** 
 145:../Libraries/STM32F10x_StdPeriph_Driver/src/stm32f10x_i2c.c **** /** @defgroup I2C_Private_FunctionPrototypes
 146:../Libraries/STM32F10x_StdPeriph_Driver/src/stm32f10x_i2c.c ****   * @{
 147:../Libraries/STM32F10x_StdPeriph_Driver/src/stm32f10x_i2c.c ****   */
 148:../Libraries/STM32F10x_StdPeriph_Driver/src/stm32f10x_i2c.c **** 
 149:../Libraries/STM32F10x_StdPeriph_Driver/src/stm32f10x_i2c.c **** /**
 150:../Libraries/STM32F10x_StdPeriph_Driver/src/stm32f10x_i2c.c ****   * @}
 151:../Libraries/STM32F10x_StdPeriph_Driver/src/stm32f10x_i2c.c ****   */
 152:../Libraries/STM32F10x_StdPeriph_Driver/src/stm32f10x_i2c.c **** 
 153:../Libraries/STM32F10x_StdPeriph_Driver/src/stm32f10x_i2c.c **** /** @defgroup I2C_Private_Functions
 154:../Libraries/STM32F10x_StdPeriph_Driver/src/stm32f10x_i2c.c ****   * @{
 155:../Libraries/STM32F10x_StdPeriph_Driver/src/stm32f10x_i2c.c ****   */
 156:../Libraries/STM32F10x_StdPeriph_Driver/src/stm32f10x_i2c.c **** 
 157:../Libraries/STM32F10x_StdPeriph_Driver/src/stm32f10x_i2c.c **** /**
 158:../Libraries/STM32F10x_StdPeriph_Driver/src/stm32f10x_i2c.c ****   * @brief  Deinitializes the I2Cx peripheral registers to their default reset values.
 159:../Libraries/STM32F10x_StdPeriph_Driver/src/stm32f10x_i2c.c ****   * @param  I2Cx: where x can be 1 or 2 to select the I2C peripheral.
 160:../Libraries/STM32F10x_StdPeriph_Driver/src/stm32f10x_i2c.c ****   * @retval None
 161:../Libraries/STM32F10x_StdPeriph_Driver/src/stm32f10x_i2c.c ****   */
 162:../Libraries/STM32F10x_StdPeriph_Driver/src/stm32f10x_i2c.c **** void I2C_DeInit(I2C_TypeDef* I2Cx)
 163:../Libraries/STM32F10x_StdPeriph_Driver/src/stm32f10x_i2c.c **** {
 19980              		.loc 1 163 0
 19981              		.cfi_startproc
 19982              		@ args = 0, pretend = 0, frame = 8
 19983              		@ frame_needed = 1, uses_anonymous_args = 0
 19984 0000 80B5     		push	{r7, lr}
 19985              	.LCFI0:
 19986              		.cfi_def_cfa_offset 8
 19987 0002 82B0     		sub	sp, sp, #8
 19988              	.LCFI1:
 19989              		.cfi_def_cfa_offset 16
 19990 0004 00AF     		add	r7, sp, #0
 19991              		.cfi_offset 14, -4
 19992              		.cfi_offset 7, -8
 19993              	.LCFI2:
 19994              		.cfi_def_cfa_register 7
 19995 0006 7860     		str	r0, [r7, #4]
 164:../Libraries/STM32F10x_StdPeriph_Driver/src/stm32f10x_i2c.c ****   /* Check the parameters */
 165:../Libraries/STM32F10x_StdPeriph_Driver/src/stm32f10x_i2c.c ****   assert_param(IS_I2C_ALL_PERIPH(I2Cx));
 166:../Libraries/STM32F10x_StdPeriph_Driver/src/stm32f10x_i2c.c **** 
 167:../Libraries/STM32F10x_StdPeriph_Driver/src/stm32f10x_i2c.c ****   if (I2Cx == I2C1)
 19996              		.loc 1 167 0
 19997 0008 7A68     		ldr	r2, [r7, #4]
 19998 000a 104B     		ldr	r3, .L4
 19999 000c 9A42     		cmp	r2, r3
 20000 000e 0CD1     		bne	.L2
 168:../Libraries/STM32F10x_StdPeriph_Driver/src/stm32f10x_i2c.c ****   {
 169:../Libraries/STM32F10x_StdPeriph_Driver/src/stm32f10x_i2c.c ****     /* Enable I2C1 reset state */
 170:../Libraries/STM32F10x_StdPeriph_Driver/src/stm32f10x_i2c.c ****     RCC_APB1PeriphResetCmd(RCC_APB1Periph_I2C1, ENABLE);
 20001              		.loc 1 170 0
 20002 0010 4FF40010 		mov	r0, #2097152
 20003 0014 4FF00101 		mov	r1, #1
 20004 0018 FFF7FEFF 		bl	RCC_APB1PeriphResetCmd
 171:../Libraries/STM32F10x_StdPeriph_Driver/src/stm32f10x_i2c.c ****     /* Release I2C1 from reset state */
 172:../Libraries/STM32F10x_StdPeriph_Driver/src/stm32f10x_i2c.c ****     RCC_APB1PeriphResetCmd(RCC_APB1Periph_I2C1, DISABLE);
 20005              		.loc 1 172 0
 20006 001c 4FF40010 		mov	r0, #2097152
 20007 0020 4FF00001 		mov	r1, #0
 20008 0024 FFF7FEFF 		bl	RCC_APB1PeriphResetCmd
 20009 0028 0BE0     		b	.L1
 20010              	.L2:
 173:../Libraries/STM32F10x_StdPeriph_Driver/src/stm32f10x_i2c.c ****   }
 174:../Libraries/STM32F10x_StdPeriph_Driver/src/stm32f10x_i2c.c ****   else
 175:../Libraries/STM32F10x_StdPeriph_Driver/src/stm32f10x_i2c.c ****   {
 176:../Libraries/STM32F10x_StdPeriph_Driver/src/stm32f10x_i2c.c ****     /* Enable I2C2 reset state */
 177:../Libraries/STM32F10x_StdPeriph_Driver/src/stm32f10x_i2c.c ****     RCC_APB1PeriphResetCmd(RCC_APB1Periph_I2C2, ENABLE);
 20011              		.loc 1 177 0
 20012 002a 4FF48000 		mov	r0, #4194304
 20013 002e 4FF00101 		mov	r1, #1
 20014 0032 FFF7FEFF 		bl	RCC_APB1PeriphResetCmd
 178:../Libraries/STM32F10x_StdPeriph_Driver/src/stm32f10x_i2c.c ****     /* Release I2C2 from reset state */
 179:../Libraries/STM32F10x_StdPeriph_Driver/src/stm32f10x_i2c.c ****     RCC_APB1PeriphResetCmd(RCC_APB1Periph_I2C2, DISABLE);
 20015              		.loc 1 179 0
 20016 0036 4FF48000 		mov	r0, #4194304
 20017 003a 4FF00001 		mov	r1, #0
 20018 003e FFF7FEFF 		bl	RCC_APB1PeriphResetCmd
 20019              	.L1:
 180:../Libraries/STM32F10x_StdPeriph_Driver/src/stm32f10x_i2c.c ****   }
 181:../Libraries/STM32F10x_StdPeriph_Driver/src/stm32f10x_i2c.c **** }
 20020              		.loc 1 181 0
 20021 0042 07F10807 		add	r7, r7, #8
 20022 0046 BD46     		mov	sp, r7
 20023 0048 80BD     		pop	{r7, pc}
 20024              	.L5:
 20025 004a 00BF     		.align	2
 20026              	.L4:
 20027 004c 00540040 		.word	1073763328
 20028              		.cfi_endproc
 20029              	.LFE29:
 20031              		.section	.text.I2C_Init,"ax",%progbits
 20032              		.align	2
 20033              		.global	I2C_Init
 20034              		.thumb
 20035              		.thumb_func
 20037              	I2C_Init:
 20038              	.LFB30:
 182:../Libraries/STM32F10x_StdPeriph_Driver/src/stm32f10x_i2c.c **** 
 183:../Libraries/STM32F10x_StdPeriph_Driver/src/stm32f10x_i2c.c **** /**
 184:../Libraries/STM32F10x_StdPeriph_Driver/src/stm32f10x_i2c.c ****   * @brief  Initializes the I2Cx peripheral according to the specified 
 185:../Libraries/STM32F10x_StdPeriph_Driver/src/stm32f10x_i2c.c ****   *   parameters in the I2C_InitStruct.
 186:../Libraries/STM32F10x_StdPeriph_Driver/src/stm32f10x_i2c.c ****   * @param  I2Cx: where x can be 1 or 2 to select the I2C peripheral.
 187:../Libraries/STM32F10x_StdPeriph_Driver/src/stm32f10x_i2c.c ****   * @param  I2C_InitStruct: pointer to a I2C_InitTypeDef structure that
 188:../Libraries/STM32F10x_StdPeriph_Driver/src/stm32f10x_i2c.c ****   *   contains the configuration information for the specified I2C peripheral.
 189:../Libraries/STM32F10x_StdPeriph_Driver/src/stm32f10x_i2c.c ****   * @retval None
 190:../Libraries/STM32F10x_StdPeriph_Driver/src/stm32f10x_i2c.c ****   */
 191:../Libraries/STM32F10x_StdPeriph_Driver/src/stm32f10x_i2c.c **** void I2C_Init(I2C_TypeDef* I2Cx, I2C_InitTypeDef* I2C_InitStruct)
 192:../Libraries/STM32F10x_StdPeriph_Driver/src/stm32f10x_i2c.c **** {
 20039              		.loc 1 192 0
 20040              		.cfi_startproc
 20041              		@ args = 0, pretend = 0, frame = 40
 20042              		@ frame_needed = 1, uses_anonymous_args = 0
 20043 0000 80B5     		push	{r7, lr}
 20044              	.LCFI3:
 20045              		.cfi_def_cfa_offset 8
 20046 0002 8AB0     		sub	sp, sp, #40
 20047              	.LCFI4:
 20048              		.cfi_def_cfa_offset 48
 20049 0004 00AF     		add	r7, sp, #0
 20050              		.cfi_offset 14, -4
 20051              		.cfi_offset 7, -8
 20052              	.LCFI5:
 20053              		.cfi_def_cfa_register 7
 20054 0006 7860     		str	r0, [r7, #4]
 20055 0008 3960     		str	r1, [r7, #0]
 193:../Libraries/STM32F10x_StdPeriph_Driver/src/stm32f10x_i2c.c ****   uint16_t tmpreg = 0, freqrange = 0;
 20056              		.loc 1 193 0
 20057 000a 4FF00003 		mov	r3, #0
 20058 000e FB84     		strh	r3, [r7, #38]	@ movhi
 20059 0010 4FF00003 		mov	r3, #0
 20060 0014 7B84     		strh	r3, [r7, #34]	@ movhi
 194:../Libraries/STM32F10x_StdPeriph_Driver/src/stm32f10x_i2c.c ****   uint16_t result = 0x04;
 20061              		.loc 1 194 0
 20062 0016 4FF00403 		mov	r3, #4
 20063 001a BB84     		strh	r3, [r7, #36]	@ movhi
 195:../Libraries/STM32F10x_StdPeriph_Driver/src/stm32f10x_i2c.c ****   uint32_t pclk1 = 8000000;
 20064              		.loc 1 195 0
 20065 001c 604B     		ldr	r3, .L13
 20066 001e FB61     		str	r3, [r7, #28]
 196:../Libraries/STM32F10x_StdPeriph_Driver/src/stm32f10x_i2c.c ****   RCC_ClocksTypeDef  rcc_clocks;
 197:../Libraries/STM32F10x_StdPeriph_Driver/src/stm32f10x_i2c.c ****   /* Check the parameters */
 198:../Libraries/STM32F10x_StdPeriph_Driver/src/stm32f10x_i2c.c ****   assert_param(IS_I2C_ALL_PERIPH(I2Cx));
 199:../Libraries/STM32F10x_StdPeriph_Driver/src/stm32f10x_i2c.c ****   assert_param(IS_I2C_CLOCK_SPEED(I2C_InitStruct->I2C_ClockSpeed));
 200:../Libraries/STM32F10x_StdPeriph_Driver/src/stm32f10x_i2c.c ****   assert_param(IS_I2C_MODE(I2C_InitStruct->I2C_Mode));
 201:../Libraries/STM32F10x_StdPeriph_Driver/src/stm32f10x_i2c.c ****   assert_param(IS_I2C_DUTY_CYCLE(I2C_InitStruct->I2C_DutyCycle));
 202:../Libraries/STM32F10x_StdPeriph_Driver/src/stm32f10x_i2c.c ****   assert_param(IS_I2C_OWN_ADDRESS1(I2C_InitStruct->I2C_OwnAddress1));
 203:../Libraries/STM32F10x_StdPeriph_Driver/src/stm32f10x_i2c.c ****   assert_param(IS_I2C_ACK_STATE(I2C_InitStruct->I2C_Ack));
 204:../Libraries/STM32F10x_StdPeriph_Driver/src/stm32f10x_i2c.c ****   assert_param(IS_I2C_ACKNOWLEDGE_ADDRESS(I2C_InitStruct->I2C_AcknowledgedAddress));
 205:../Libraries/STM32F10x_StdPeriph_Driver/src/stm32f10x_i2c.c **** 
 206:../Libraries/STM32F10x_StdPeriph_Driver/src/stm32f10x_i2c.c **** /*---------------------------- I2Cx CR2 Configuration ------------------------*/
 207:../Libraries/STM32F10x_StdPeriph_Driver/src/stm32f10x_i2c.c ****   /* Get the I2Cx CR2 value */
 208:../Libraries/STM32F10x_StdPeriph_Driver/src/stm32f10x_i2c.c ****   tmpreg = I2Cx->CR2;
 20067              		.loc 1 208 0
 20068 0020 7B68     		ldr	r3, [r7, #4]
 20069 0022 9B88     		ldrh	r3, [r3, #4]	@ movhi
 20070 0024 FB84     		strh	r3, [r7, #38]	@ movhi
 209:../Libraries/STM32F10x_StdPeriph_Driver/src/stm32f10x_i2c.c ****   /* Clear frequency FREQ[5:0] bits */
 210:../Libraries/STM32F10x_StdPeriph_Driver/src/stm32f10x_i2c.c ****   tmpreg &= CR2_FREQ_Reset;
 20071              		.loc 1 210 0
 20072 0026 FB8C     		ldrh	r3, [r7, #38]	@ movhi
 20073 0028 23F03F03 		bic	r3, r3, #63
 20074 002c FB84     		strh	r3, [r7, #38]	@ movhi
 211:../Libraries/STM32F10x_StdPeriph_Driver/src/stm32f10x_i2c.c ****   /* Get pclk1 frequency value */
 212:../Libraries/STM32F10x_StdPeriph_Driver/src/stm32f10x_i2c.c ****   RCC_GetClocksFreq(&rcc_clocks);
 20075              		.loc 1 212 0
 20076 002e 07F10803 		add	r3, r7, #8
 20077 0032 1846     		mov	r0, r3
 20078 0034 FFF7FEFF 		bl	RCC_GetClocksFreq
 213:../Libraries/STM32F10x_StdPeriph_Driver/src/stm32f10x_i2c.c ****   pclk1 = rcc_clocks.PCLK1_Frequency;
 20079              		.loc 1 213 0
 20080 0038 3B69     		ldr	r3, [r7, #16]
 20081 003a FB61     		str	r3, [r7, #28]
 214:../Libraries/STM32F10x_StdPeriph_Driver/src/stm32f10x_i2c.c ****   /* Set frequency bits depending on pclk1 value */
 215:../Libraries/STM32F10x_StdPeriph_Driver/src/stm32f10x_i2c.c ****   freqrange = (uint16_t)(pclk1 / 1000000);
 20082              		.loc 1 215 0
 20083 003c FA69     		ldr	r2, [r7, #28]
 20084 003e 594B     		ldr	r3, .L13+4
 20085 0040 A3FB0213 		umull	r1, r3, r3, r2
 20086 0044 4FEA9343 		lsr	r3, r3, #18
 20087 0048 7B84     		strh	r3, [r7, #34]	@ movhi
 216:../Libraries/STM32F10x_StdPeriph_Driver/src/stm32f10x_i2c.c ****   tmpreg |= freqrange;
 20088              		.loc 1 216 0
 20089 004a FA8C     		ldrh	r2, [r7, #38]	@ movhi
 20090 004c 7B8C     		ldrh	r3, [r7, #34]	@ movhi
 20091 004e 42EA0303 		orr	r3, r2, r3
 20092 0052 FB84     		strh	r3, [r7, #38]	@ movhi
 217:../Libraries/STM32F10x_StdPeriph_Driver/src/stm32f10x_i2c.c ****   /* Write to I2Cx CR2 */
 218:../Libraries/STM32F10x_StdPeriph_Driver/src/stm32f10x_i2c.c ****   I2Cx->CR2 = tmpreg;
 20093              		.loc 1 218 0
 20094 0054 7B68     		ldr	r3, [r7, #4]
 20095 0056 FA8C     		ldrh	r2, [r7, #38]	@ movhi
 20096 0058 9A80     		strh	r2, [r3, #4]	@ movhi
 219:../Libraries/STM32F10x_StdPeriph_Driver/src/stm32f10x_i2c.c **** 
 220:../Libraries/STM32F10x_StdPeriph_Driver/src/stm32f10x_i2c.c **** /*---------------------------- I2Cx CCR Configuration ------------------------*/
 221:../Libraries/STM32F10x_StdPeriph_Driver/src/stm32f10x_i2c.c ****   /* Disable the selected I2C peripheral to configure TRISE */
 222:../Libraries/STM32F10x_StdPeriph_Driver/src/stm32f10x_i2c.c ****   I2Cx->CR1 &= CR1_PE_Reset;
 20097              		.loc 1 222 0
 20098 005a 7B68     		ldr	r3, [r7, #4]
 20099 005c 1B88     		ldrh	r3, [r3, #0]	@ movhi
 20100 005e 9BB2     		uxth	r3, r3
 20101 0060 23F00103 		bic	r3, r3, #1
 20102 0064 9AB2     		uxth	r2, r3
 20103 0066 7B68     		ldr	r3, [r7, #4]
 20104 0068 1A80     		strh	r2, [r3, #0]	@ movhi
 223:../Libraries/STM32F10x_StdPeriph_Driver/src/stm32f10x_i2c.c ****   /* Reset tmpreg value */
 224:../Libraries/STM32F10x_StdPeriph_Driver/src/stm32f10x_i2c.c ****   /* Clear F/S, DUTY and CCR[11:0] bits */
 225:../Libraries/STM32F10x_StdPeriph_Driver/src/stm32f10x_i2c.c ****   tmpreg = 0;
 20105              		.loc 1 225 0
 20106 006a 4FF00003 		mov	r3, #0
 20107 006e FB84     		strh	r3, [r7, #38]	@ movhi
 226:../Libraries/STM32F10x_StdPeriph_Driver/src/stm32f10x_i2c.c **** 
 227:../Libraries/STM32F10x_StdPeriph_Driver/src/stm32f10x_i2c.c ****   /* Configure speed in standard mode */
 228:../Libraries/STM32F10x_StdPeriph_Driver/src/stm32f10x_i2c.c ****   if (I2C_InitStruct->I2C_ClockSpeed <= 100000)
 20108              		.loc 1 228 0
 20109 0070 3B68     		ldr	r3, [r7, #0]
 20110 0072 1A68     		ldr	r2, [r3, #0]
 20111 0074 4C4B     		ldr	r3, .L13+8
 20112 0076 9A42     		cmp	r2, r3
 20113 0078 19D8     		bhi	.L7
 229:../Libraries/STM32F10x_StdPeriph_Driver/src/stm32f10x_i2c.c ****   {
 230:../Libraries/STM32F10x_StdPeriph_Driver/src/stm32f10x_i2c.c ****     /* Standard mode speed calculate */
 231:../Libraries/STM32F10x_StdPeriph_Driver/src/stm32f10x_i2c.c ****     result = (uint16_t)(pclk1 / (I2C_InitStruct->I2C_ClockSpeed << 1));
 20114              		.loc 1 231 0
 20115 007a 3B68     		ldr	r3, [r7, #0]
 20116 007c 1B68     		ldr	r3, [r3, #0]
 20117 007e 4FEA4303 		lsl	r3, r3, #1
 20118 0082 FA69     		ldr	r2, [r7, #28]
 20119 0084 B2FBF3F3 		udiv	r3, r2, r3
 20120 0088 BB84     		strh	r3, [r7, #36]	@ movhi
 232:../Libraries/STM32F10x_StdPeriph_Driver/src/stm32f10x_i2c.c ****     /* Test if CCR value is under 0x4*/
 233:../Libraries/STM32F10x_StdPeriph_Driver/src/stm32f10x_i2c.c ****     if (result < 0x04)
 20121              		.loc 1 233 0
 20122 008a BB8C     		ldrh	r3, [r7, #36]
 20123 008c 032B     		cmp	r3, #3
 20124 008e 02D8     		bhi	.L8
 234:../Libraries/STM32F10x_StdPeriph_Driver/src/stm32f10x_i2c.c ****     {
 235:../Libraries/STM32F10x_StdPeriph_Driver/src/stm32f10x_i2c.c ****       /* Set minimum allowed value */
 236:../Libraries/STM32F10x_StdPeriph_Driver/src/stm32f10x_i2c.c ****       result = 0x04;  
 20125              		.loc 1 236 0
 20126 0090 4FF00403 		mov	r3, #4
 20127 0094 BB84     		strh	r3, [r7, #36]	@ movhi
 20128              	.L8:
 237:../Libraries/STM32F10x_StdPeriph_Driver/src/stm32f10x_i2c.c ****     }
 238:../Libraries/STM32F10x_StdPeriph_Driver/src/stm32f10x_i2c.c ****     /* Set speed value for standard mode */
 239:../Libraries/STM32F10x_StdPeriph_Driver/src/stm32f10x_i2c.c ****     tmpreg |= result;	  
 20129              		.loc 1 239 0
 20130 0096 FA8C     		ldrh	r2, [r7, #38]	@ movhi
 20131 0098 BB8C     		ldrh	r3, [r7, #36]	@ movhi
 20132 009a 42EA0303 		orr	r3, r2, r3
 20133 009e FB84     		strh	r3, [r7, #38]	@ movhi
 240:../Libraries/STM32F10x_StdPeriph_Driver/src/stm32f10x_i2c.c ****     /* Set Maximum Rise Time for standard mode */
 241:../Libraries/STM32F10x_StdPeriph_Driver/src/stm32f10x_i2c.c ****     I2Cx->TRISE = freqrange + 1; 
 20134              		.loc 1 241 0
 20135 00a0 7B8C     		ldrh	r3, [r7, #34]	@ movhi
 20136 00a2 03F10103 		add	r3, r3, #1
 20137 00a6 9AB2     		uxth	r2, r3
 20138 00a8 7B68     		ldr	r3, [r7, #4]
 20139 00aa 1A84     		strh	r2, [r3, #32]	@ movhi
 20140 00ac 49E0     		b	.L9
 20141              	.L7:
 242:../Libraries/STM32F10x_StdPeriph_Driver/src/stm32f10x_i2c.c ****   }
 243:../Libraries/STM32F10x_StdPeriph_Driver/src/stm32f10x_i2c.c ****   /* Configure speed in fast mode */
 244:../Libraries/STM32F10x_StdPeriph_Driver/src/stm32f10x_i2c.c ****   else /*(I2C_InitStruct->I2C_ClockSpeed <= 400000)*/
 245:../Libraries/STM32F10x_StdPeriph_Driver/src/stm32f10x_i2c.c ****   {
 246:../Libraries/STM32F10x_StdPeriph_Driver/src/stm32f10x_i2c.c ****     if (I2C_InitStruct->I2C_DutyCycle == I2C_DutyCycle_2)
 20142              		.loc 1 246 0
 20143 00ae 3B68     		ldr	r3, [r7, #0]
 20144 00b0 DA88     		ldrh	r2, [r3, #6]
 20145 00b2 4BF6FF73 		movw	r3, #49151
 20146 00b6 9A42     		cmp	r2, r3
 20147 00b8 0AD1     		bne	.L10
 247:../Libraries/STM32F10x_StdPeriph_Driver/src/stm32f10x_i2c.c ****     {
 248:../Libraries/STM32F10x_StdPeriph_Driver/src/stm32f10x_i2c.c ****       /* Fast mode speed calculate: Tlow/Thigh = 2 */
 249:../Libraries/STM32F10x_StdPeriph_Driver/src/stm32f10x_i2c.c ****       result = (uint16_t)(pclk1 / (I2C_InitStruct->I2C_ClockSpeed * 3));
 20148              		.loc 1 249 0
 20149 00ba 3B68     		ldr	r3, [r7, #0]
 20150 00bc 1A68     		ldr	r2, [r3, #0]
 20151 00be 1346     		mov	r3, r2
 20152 00c0 4FEA4303 		lsl	r3, r3, #1
 20153 00c4 9B18     		adds	r3, r3, r2
 20154 00c6 FA69     		ldr	r2, [r7, #28]
 20155 00c8 B2FBF3F3 		udiv	r3, r2, r3
 20156 00cc BB84     		strh	r3, [r7, #36]	@ movhi
 20157 00ce 10E0     		b	.L11
 20158              	.L10:
 250:../Libraries/STM32F10x_StdPeriph_Driver/src/stm32f10x_i2c.c ****     }
 251:../Libraries/STM32F10x_StdPeriph_Driver/src/stm32f10x_i2c.c ****     else /*I2C_InitStruct->I2C_DutyCycle == I2C_DutyCycle_16_9*/
 252:../Libraries/STM32F10x_StdPeriph_Driver/src/stm32f10x_i2c.c ****     {
 253:../Libraries/STM32F10x_StdPeriph_Driver/src/stm32f10x_i2c.c ****       /* Fast mode speed calculate: Tlow/Thigh = 16/9 */
 254:../Libraries/STM32F10x_StdPeriph_Driver/src/stm32f10x_i2c.c ****       result = (uint16_t)(pclk1 / (I2C_InitStruct->I2C_ClockSpeed * 25));
 20159              		.loc 1 254 0
 20160 00d0 3B68     		ldr	r3, [r7, #0]
 20161 00d2 1A68     		ldr	r2, [r3, #0]
 20162 00d4 1346     		mov	r3, r2
 20163 00d6 4FEA8303 		lsl	r3, r3, #2
 20164 00da 9B18     		adds	r3, r3, r2
 20165 00dc 4FEA8302 		lsl	r2, r3, #2
 20166 00e0 9B18     		adds	r3, r3, r2
 20167 00e2 FA69     		ldr	r2, [r7, #28]
 20168 00e4 B2FBF3F3 		udiv	r3, r2, r3
 20169 00e8 BB84     		strh	r3, [r7, #36]	@ movhi
 255:../Libraries/STM32F10x_StdPeriph_Driver/src/stm32f10x_i2c.c ****       /* Set DUTY bit */
 256:../Libraries/STM32F10x_StdPeriph_Driver/src/stm32f10x_i2c.c ****       result |= I2C_DutyCycle_16_9;
 20170              		.loc 1 256 0
 20171 00ea BB8C     		ldrh	r3, [r7, #36]	@ movhi
 20172 00ec 43F48043 		orr	r3, r3, #16384
 20173 00f0 BB84     		strh	r3, [r7, #36]	@ movhi
 20174              	.L11:
 257:../Libraries/STM32F10x_StdPeriph_Driver/src/stm32f10x_i2c.c ****     }
 258:../Libraries/STM32F10x_StdPeriph_Driver/src/stm32f10x_i2c.c **** 
 259:../Libraries/STM32F10x_StdPeriph_Driver/src/stm32f10x_i2c.c ****     /* Test if CCR value is under 0x1*/
 260:../Libraries/STM32F10x_StdPeriph_Driver/src/stm32f10x_i2c.c ****     if ((result & CCR_CCR_Set) == 0)
 20175              		.loc 1 260 0
 20176 00f2 BB8C     		ldrh	r3, [r7, #36]
 20177 00f4 4FEA0353 		lsl	r3, r3, #20
 20178 00f8 4FEA1353 		lsr	r3, r3, #20
 20179 00fc 002B     		cmp	r3, #0
 20180 00fe 03D1     		bne	.L12
 261:../Libraries/STM32F10x_StdPeriph_Driver/src/stm32f10x_i2c.c ****     {
 262:../Libraries/STM32F10x_StdPeriph_Driver/src/stm32f10x_i2c.c ****       /* Set minimum allowed value */
 263:../Libraries/STM32F10x_StdPeriph_Driver/src/stm32f10x_i2c.c ****       result |= (uint16_t)0x0001;  
 20181              		.loc 1 263 0
 20182 0100 BB8C     		ldrh	r3, [r7, #36]	@ movhi
 20183 0102 43F00103 		orr	r3, r3, #1
 20184 0106 BB84     		strh	r3, [r7, #36]	@ movhi
 20185              	.L12:
 264:../Libraries/STM32F10x_StdPeriph_Driver/src/stm32f10x_i2c.c ****     }
 265:../Libraries/STM32F10x_StdPeriph_Driver/src/stm32f10x_i2c.c ****     /* Set speed value and set F/S bit for fast mode */
 266:../Libraries/STM32F10x_StdPeriph_Driver/src/stm32f10x_i2c.c ****     tmpreg |= (uint16_t)(result | CCR_FS_Set);
 20186              		.loc 1 266 0
 20187 0108 BA8C     		ldrh	r2, [r7, #36]	@ movhi
 20188 010a FB8C     		ldrh	r3, [r7, #38]	@ movhi
 20189 010c 42EA0303 		orr	r3, r2, r3
 20190 0110 9BB2     		uxth	r3, r3
 20191 0112 6FEA4343 		mvn	r3, r3, lsl #17
 20192 0116 6FEA5343 		mvn	r3, r3, lsr #17
 20193 011a FB84     		strh	r3, [r7, #38]	@ movhi
 267:../Libraries/STM32F10x_StdPeriph_Driver/src/stm32f10x_i2c.c ****     /* Set Maximum Rise Time for fast mode */
 268:../Libraries/STM32F10x_StdPeriph_Driver/src/stm32f10x_i2c.c ****     I2Cx->TRISE = (uint16_t)(((freqrange * (uint16_t)300) / (uint16_t)1000) + (uint16_t)1);  
 20194              		.loc 1 268 0
 20195 011c 7B8C     		ldrh	r3, [r7, #34]
 20196 011e 4FF49672 		mov	r2, #300
 20197 0122 02FB03F3 		mul	r3, r2, r3
 20198 0126 214A     		ldr	r2, .L13+12
 20199 0128 82FB0312 		smull	r1, r2, r2, r3
 20200 012c 4FEAA212 		asr	r2, r2, #6
 20201 0130 4FEAE373 		asr	r3, r3, #31
 20202 0134 D31A     		subs	r3, r2, r3
 20203 0136 9BB2     		uxth	r3, r3
 20204 0138 03F10103 		add	r3, r3, #1
 20205 013c 9AB2     		uxth	r2, r3
 20206 013e 7B68     		ldr	r3, [r7, #4]
 20207 0140 1A84     		strh	r2, [r3, #32]	@ movhi
 20208              	.L9:
 269:../Libraries/STM32F10x_StdPeriph_Driver/src/stm32f10x_i2c.c ****   }
 270:../Libraries/STM32F10x_StdPeriph_Driver/src/stm32f10x_i2c.c **** 
 271:../Libraries/STM32F10x_StdPeriph_Driver/src/stm32f10x_i2c.c ****   /* Write to I2Cx CCR */
 272:../Libraries/STM32F10x_StdPeriph_Driver/src/stm32f10x_i2c.c ****   I2Cx->CCR = tmpreg;
 20209              		.loc 1 272 0
 20210 0142 7B68     		ldr	r3, [r7, #4]
 20211 0144 FA8C     		ldrh	r2, [r7, #38]	@ movhi
 20212 0146 9A83     		strh	r2, [r3, #28]	@ movhi
 273:../Libraries/STM32F10x_StdPeriph_Driver/src/stm32f10x_i2c.c ****   /* Enable the selected I2C peripheral */
 274:../Libraries/STM32F10x_StdPeriph_Driver/src/stm32f10x_i2c.c ****   I2Cx->CR1 |= CR1_PE_Set;
 20213              		.loc 1 274 0
 20214 0148 7B68     		ldr	r3, [r7, #4]
 20215 014a 1B88     		ldrh	r3, [r3, #0]	@ movhi
 20216 014c 9BB2     		uxth	r3, r3
 20217 014e 43F00103 		orr	r3, r3, #1
 20218 0152 9AB2     		uxth	r2, r3
 20219 0154 7B68     		ldr	r3, [r7, #4]
 20220 0156 1A80     		strh	r2, [r3, #0]	@ movhi
 275:../Libraries/STM32F10x_StdPeriph_Driver/src/stm32f10x_i2c.c **** 
 276:../Libraries/STM32F10x_StdPeriph_Driver/src/stm32f10x_i2c.c **** /*---------------------------- I2Cx CR1 Configuration ------------------------*/
 277:../Libraries/STM32F10x_StdPeriph_Driver/src/stm32f10x_i2c.c ****   /* Get the I2Cx CR1 value */
 278:../Libraries/STM32F10x_StdPeriph_Driver/src/stm32f10x_i2c.c ****   tmpreg = I2Cx->CR1;
 20221              		.loc 1 278 0
 20222 0158 7B68     		ldr	r3, [r7, #4]
 20223 015a 1B88     		ldrh	r3, [r3, #0]	@ movhi
 20224 015c FB84     		strh	r3, [r7, #38]	@ movhi
 279:../Libraries/STM32F10x_StdPeriph_Driver/src/stm32f10x_i2c.c ****   /* Clear ACK, SMBTYPE and  SMBUS bits */
 280:../Libraries/STM32F10x_StdPeriph_Driver/src/stm32f10x_i2c.c ****   tmpreg &= CR1_CLEAR_Mask;
 20225              		.loc 1 280 0
 20226 015e FB8C     		ldrh	r3, [r7, #38]	@ movhi
 20227 0160 23F48063 		bic	r3, r3, #1024
 20228 0164 23F00A03 		bic	r3, r3, #10
 20229 0168 FB84     		strh	r3, [r7, #38]	@ movhi
 281:../Libraries/STM32F10x_StdPeriph_Driver/src/stm32f10x_i2c.c ****   /* Configure I2Cx: mode and acknowledgement */
 282:../Libraries/STM32F10x_StdPeriph_Driver/src/stm32f10x_i2c.c ****   /* Set SMBTYPE and SMBUS bits according to I2C_Mode value */
 283:../Libraries/STM32F10x_StdPeriph_Driver/src/stm32f10x_i2c.c ****   /* Set ACK bit according to I2C_Ack value */
 284:../Libraries/STM32F10x_StdPeriph_Driver/src/stm32f10x_i2c.c ****   tmpreg |= (uint16_t)((uint32_t)I2C_InitStruct->I2C_Mode | I2C_InitStruct->I2C_Ack);
 20230              		.loc 1 284 0
 20231 016a 3B68     		ldr	r3, [r7, #0]
 20232 016c 9A88     		ldrh	r2, [r3, #4]
 20233 016e 3B68     		ldr	r3, [r7, #0]
 20234 0170 5B89     		ldrh	r3, [r3, #10]
 20235 0172 42EA0303 		orr	r3, r2, r3
 20236 0176 9AB2     		uxth	r2, r3
 20237 0178 FB8C     		ldrh	r3, [r7, #38]	@ movhi
 20238 017a 42EA0303 		orr	r3, r2, r3
 20239 017e FB84     		strh	r3, [r7, #38]	@ movhi
 285:../Libraries/STM32F10x_StdPeriph_Driver/src/stm32f10x_i2c.c ****   /* Write to I2Cx CR1 */
 286:../Libraries/STM32F10x_StdPeriph_Driver/src/stm32f10x_i2c.c ****   I2Cx->CR1 = tmpreg;
 20240              		.loc 1 286 0
 20241 0180 7B68     		ldr	r3, [r7, #4]
 20242 0182 FA8C     		ldrh	r2, [r7, #38]	@ movhi
 20243 0184 1A80     		strh	r2, [r3, #0]	@ movhi
 287:../Libraries/STM32F10x_StdPeriph_Driver/src/stm32f10x_i2c.c **** 
 288:../Libraries/STM32F10x_StdPeriph_Driver/src/stm32f10x_i2c.c **** /*---------------------------- I2Cx OAR1 Configuration -----------------------*/
 289:../Libraries/STM32F10x_StdPeriph_Driver/src/stm32f10x_i2c.c ****   /* Set I2Cx Own Address1 and acknowledged address */
 290:../Libraries/STM32F10x_StdPeriph_Driver/src/stm32f10x_i2c.c ****   I2Cx->OAR1 = (I2C_InitStruct->I2C_AcknowledgedAddress | I2C_InitStruct->I2C_OwnAddress1);
 20244              		.loc 1 290 0
 20245 0186 3B68     		ldr	r3, [r7, #0]
 20246 0188 9A89     		ldrh	r2, [r3, #12]
 20247 018a 3B68     		ldr	r3, [r7, #0]
 20248 018c 1B89     		ldrh	r3, [r3, #8]
 20249 018e 42EA0303 		orr	r3, r2, r3
 20250 0192 9AB2     		uxth	r2, r3
 20251 0194 7B68     		ldr	r3, [r7, #4]
 20252 0196 1A81     		strh	r2, [r3, #8]	@ movhi
 291:../Libraries/STM32F10x_StdPeriph_Driver/src/stm32f10x_i2c.c **** }
 20253              		.loc 1 291 0
 20254 0198 07F12807 		add	r7, r7, #40
 20255 019c BD46     		mov	sp, r7
 20256 019e 80BD     		pop	{r7, pc}
 20257              	.L14:
 20258              		.align	2
 20259              	.L13:
 20260 01a0 00127A00 		.word	8000000
 20261 01a4 83DE1B43 		.word	1125899907
 20262 01a8 A0860100 		.word	100000
 20263 01ac D34D6210 		.word	274877907
 20264              		.cfi_endproc
 20265              	.LFE30:
 20267              		.section	.text.I2C_StructInit,"ax",%progbits
 20268              		.align	2
 20269              		.global	I2C_StructInit
 20270              		.thumb
 20271              		.thumb_func
 20273              	I2C_StructInit:
 20274              	.LFB31:
 292:../Libraries/STM32F10x_StdPeriph_Driver/src/stm32f10x_i2c.c **** 
 293:../Libraries/STM32F10x_StdPeriph_Driver/src/stm32f10x_i2c.c **** /**
 294:../Libraries/STM32F10x_StdPeriph_Driver/src/stm32f10x_i2c.c ****   * @brief  Fills each I2C_InitStruct member with its default value.
 295:../Libraries/STM32F10x_StdPeriph_Driver/src/stm32f10x_i2c.c ****   * @param  I2C_InitStruct: pointer to an I2C_InitTypeDef structure which will be initialized.
 296:../Libraries/STM32F10x_StdPeriph_Driver/src/stm32f10x_i2c.c ****   * @retval None
 297:../Libraries/STM32F10x_StdPeriph_Driver/src/stm32f10x_i2c.c ****   */
 298:../Libraries/STM32F10x_StdPeriph_Driver/src/stm32f10x_i2c.c **** void I2C_StructInit(I2C_InitTypeDef* I2C_InitStruct)
 299:../Libraries/STM32F10x_StdPeriph_Driver/src/stm32f10x_i2c.c **** {
 20275              		.loc 1 299 0
 20276              		.cfi_startproc
 20277              		@ args = 0, pretend = 0, frame = 8
 20278              		@ frame_needed = 1, uses_anonymous_args = 0
 20279              		@ link register save eliminated.
 20280 0000 80B4     		push	{r7}
 20281              	.LCFI6:
 20282              		.cfi_def_cfa_offset 4
 20283 0002 83B0     		sub	sp, sp, #12
 20284              	.LCFI7:
 20285              		.cfi_def_cfa_offset 16
 20286 0004 00AF     		add	r7, sp, #0
 20287              		.cfi_offset 7, -4
 20288              	.LCFI8:
 20289              		.cfi_def_cfa_register 7
 20290 0006 7860     		str	r0, [r7, #4]
 300:../Libraries/STM32F10x_StdPeriph_Driver/src/stm32f10x_i2c.c **** /*---------------- Reset I2C init structure parameters values ----------------*/
 301:../Libraries/STM32F10x_StdPeriph_Driver/src/stm32f10x_i2c.c ****   /* initialize the I2C_ClockSpeed member */
 302:../Libraries/STM32F10x_StdPeriph_Driver/src/stm32f10x_i2c.c ****   I2C_InitStruct->I2C_ClockSpeed = 5000;
 20291              		.loc 1 302 0
 20292 0008 7B68     		ldr	r3, [r7, #4]
 20293 000a 41F28832 		movw	r2, #5000
 20294 000e 1A60     		str	r2, [r3, #0]
 303:../Libraries/STM32F10x_StdPeriph_Driver/src/stm32f10x_i2c.c ****   /* Initialize the I2C_Mode member */
 304:../Libraries/STM32F10x_StdPeriph_Driver/src/stm32f10x_i2c.c ****   I2C_InitStruct->I2C_Mode = I2C_Mode_I2C;
 20295              		.loc 1 304 0
 20296 0010 7B68     		ldr	r3, [r7, #4]
 20297 0012 4FF00002 		mov	r2, #0
 20298 0016 9A80     		strh	r2, [r3, #4]	@ movhi
 305:../Libraries/STM32F10x_StdPeriph_Driver/src/stm32f10x_i2c.c ****   /* Initialize the I2C_DutyCycle member */
 306:../Libraries/STM32F10x_StdPeriph_Driver/src/stm32f10x_i2c.c ****   I2C_InitStruct->I2C_DutyCycle = I2C_DutyCycle_2;
 20299              		.loc 1 306 0
 20300 0018 7B68     		ldr	r3, [r7, #4]
 20301 001a 4BF6FF72 		movw	r2, #49151
 20302 001e DA80     		strh	r2, [r3, #6]	@ movhi
 307:../Libraries/STM32F10x_StdPeriph_Driver/src/stm32f10x_i2c.c ****   /* Initialize the I2C_OwnAddress1 member */
 308:../Libraries/STM32F10x_StdPeriph_Driver/src/stm32f10x_i2c.c ****   I2C_InitStruct->I2C_OwnAddress1 = 0;
 20303              		.loc 1 308 0
 20304 0020 7B68     		ldr	r3, [r7, #4]
 20305 0022 4FF00002 		mov	r2, #0
 20306 0026 1A81     		strh	r2, [r3, #8]	@ movhi
 309:../Libraries/STM32F10x_StdPeriph_Driver/src/stm32f10x_i2c.c ****   /* Initialize the I2C_Ack member */
 310:../Libraries/STM32F10x_StdPeriph_Driver/src/stm32f10x_i2c.c ****   I2C_InitStruct->I2C_Ack = I2C_Ack_Disable;
 20307              		.loc 1 310 0
 20308 0028 7B68     		ldr	r3, [r7, #4]
 20309 002a 4FF00002 		mov	r2, #0
 20310 002e 5A81     		strh	r2, [r3, #10]	@ movhi
 311:../Libraries/STM32F10x_StdPeriph_Driver/src/stm32f10x_i2c.c ****   /* Initialize the I2C_AcknowledgedAddress member */
 312:../Libraries/STM32F10x_StdPeriph_Driver/src/stm32f10x_i2c.c ****   I2C_InitStruct->I2C_AcknowledgedAddress = I2C_AcknowledgedAddress_7bit;
 20311              		.loc 1 312 0
 20312 0030 7B68     		ldr	r3, [r7, #4]
 20313 0032 4FF48042 		mov	r2, #16384
 20314 0036 9A81     		strh	r2, [r3, #12]	@ movhi
 313:../Libraries/STM32F10x_StdPeriph_Driver/src/stm32f10x_i2c.c **** }
 20315              		.loc 1 313 0
 20316 0038 07F10C07 		add	r7, r7, #12
 20317 003c BD46     		mov	sp, r7
 20318 003e 80BC     		pop	{r7}
 20319 0040 7047     		bx	lr
 20320              		.cfi_endproc
 20321              	.LFE31:
 20323 0042 00BF     		.section	.text.I2C_Cmd,"ax",%progbits
 20324              		.align	2
 20325              		.global	I2C_Cmd
 20326              		.thumb
 20327              		.thumb_func
 20329              	I2C_Cmd:
 20330              	.LFB32:
 314:../Libraries/STM32F10x_StdPeriph_Driver/src/stm32f10x_i2c.c **** 
 315:../Libraries/STM32F10x_StdPeriph_Driver/src/stm32f10x_i2c.c **** /**
 316:../Libraries/STM32F10x_StdPeriph_Driver/src/stm32f10x_i2c.c ****   * @brief  Enables or disables the specified I2C peripheral.
 317:../Libraries/STM32F10x_StdPeriph_Driver/src/stm32f10x_i2c.c ****   * @param  I2Cx: where x can be 1 or 2 to select the I2C peripheral.
 318:../Libraries/STM32F10x_StdPeriph_Driver/src/stm32f10x_i2c.c ****   * @param  NewState: new state of the I2Cx peripheral. 
 319:../Libraries/STM32F10x_StdPeriph_Driver/src/stm32f10x_i2c.c ****   *   This parameter can be: ENABLE or DISABLE.
 320:../Libraries/STM32F10x_StdPeriph_Driver/src/stm32f10x_i2c.c ****   * @retval None
 321:../Libraries/STM32F10x_StdPeriph_Driver/src/stm32f10x_i2c.c ****   */
 322:../Libraries/STM32F10x_StdPeriph_Driver/src/stm32f10x_i2c.c **** void I2C_Cmd(I2C_TypeDef* I2Cx, FunctionalState NewState)
 323:../Libraries/STM32F10x_StdPeriph_Driver/src/stm32f10x_i2c.c **** {
 20331              		.loc 1 323 0
 20332              		.cfi_startproc
 20333              		@ args = 0, pretend = 0, frame = 8
 20334              		@ frame_needed = 1, uses_anonymous_args = 0
 20335              		@ link register save eliminated.
 20336 0000 80B4     		push	{r7}
 20337              	.LCFI9:
 20338              		.cfi_def_cfa_offset 4
 20339 0002 83B0     		sub	sp, sp, #12
 20340              	.LCFI10:
 20341              		.cfi_def_cfa_offset 16
 20342 0004 00AF     		add	r7, sp, #0
 20343              		.cfi_offset 7, -4
 20344              	.LCFI11:
 20345              		.cfi_def_cfa_register 7
 20346 0006 7860     		str	r0, [r7, #4]
 20347 0008 0B46     		mov	r3, r1
 20348 000a FB70     		strb	r3, [r7, #3]
 324:../Libraries/STM32F10x_StdPeriph_Driver/src/stm32f10x_i2c.c ****   /* Check the parameters */
 325:../Libraries/STM32F10x_StdPeriph_Driver/src/stm32f10x_i2c.c ****   assert_param(IS_I2C_ALL_PERIPH(I2Cx));
 326:../Libraries/STM32F10x_StdPeriph_Driver/src/stm32f10x_i2c.c ****   assert_param(IS_FUNCTIONAL_STATE(NewState));
 327:../Libraries/STM32F10x_StdPeriph_Driver/src/stm32f10x_i2c.c ****   if (NewState != DISABLE)
 20349              		.loc 1 327 0
 20350 000c FB78     		ldrb	r3, [r7, #3]	@ zero_extendqisi2
 20351 000e 002B     		cmp	r3, #0
 20352 0010 08D0     		beq	.L17
 328:../Libraries/STM32F10x_StdPeriph_Driver/src/stm32f10x_i2c.c ****   {
 329:../Libraries/STM32F10x_StdPeriph_Driver/src/stm32f10x_i2c.c ****     /* Enable the selected I2C peripheral */
 330:../Libraries/STM32F10x_StdPeriph_Driver/src/stm32f10x_i2c.c ****     I2Cx->CR1 |= CR1_PE_Set;
 20353              		.loc 1 330 0
 20354 0012 7B68     		ldr	r3, [r7, #4]
 20355 0014 1B88     		ldrh	r3, [r3, #0]	@ movhi
 20356 0016 9BB2     		uxth	r3, r3
 20357 0018 43F00103 		orr	r3, r3, #1
 20358 001c 9AB2     		uxth	r2, r3
 20359 001e 7B68     		ldr	r3, [r7, #4]
 20360 0020 1A80     		strh	r2, [r3, #0]	@ movhi
 20361 0022 07E0     		b	.L16
 20362              	.L17:
 331:../Libraries/STM32F10x_StdPeriph_Driver/src/stm32f10x_i2c.c ****   }
 332:../Libraries/STM32F10x_StdPeriph_Driver/src/stm32f10x_i2c.c ****   else
 333:../Libraries/STM32F10x_StdPeriph_Driver/src/stm32f10x_i2c.c ****   {
 334:../Libraries/STM32F10x_StdPeriph_Driver/src/stm32f10x_i2c.c ****     /* Disable the selected I2C peripheral */
 335:../Libraries/STM32F10x_StdPeriph_Driver/src/stm32f10x_i2c.c ****     I2Cx->CR1 &= CR1_PE_Reset;
 20363              		.loc 1 335 0
 20364 0024 7B68     		ldr	r3, [r7, #4]
 20365 0026 1B88     		ldrh	r3, [r3, #0]	@ movhi
 20366 0028 9BB2     		uxth	r3, r3
 20367 002a 23F00103 		bic	r3, r3, #1
 20368 002e 9AB2     		uxth	r2, r3
 20369 0030 7B68     		ldr	r3, [r7, #4]
 20370 0032 1A80     		strh	r2, [r3, #0]	@ movhi
 20371              	.L16:
 336:../Libraries/STM32F10x_StdPeriph_Driver/src/stm32f10x_i2c.c ****   }
 337:../Libraries/STM32F10x_StdPeriph_Driver/src/stm32f10x_i2c.c **** }
 20372              		.loc 1 337 0
 20373 0034 07F10C07 		add	r7, r7, #12
 20374 0038 BD46     		mov	sp, r7
 20375 003a 80BC     		pop	{r7}
 20376 003c 7047     		bx	lr
 20377              		.cfi_endproc
 20378              	.LFE32:
 20380 003e 00BF     		.section	.text.I2C_DMACmd,"ax",%progbits
 20381              		.align	2
 20382              		.global	I2C_DMACmd
 20383              		.thumb
 20384              		.thumb_func
 20386              	I2C_DMACmd:
 20387              	.LFB33:
 338:../Libraries/STM32F10x_StdPeriph_Driver/src/stm32f10x_i2c.c **** 
 339:../Libraries/STM32F10x_StdPeriph_Driver/src/stm32f10x_i2c.c **** /**
 340:../Libraries/STM32F10x_StdPeriph_Driver/src/stm32f10x_i2c.c ****   * @brief  Enables or disables the specified I2C DMA requests.
 341:../Libraries/STM32F10x_StdPeriph_Driver/src/stm32f10x_i2c.c ****   * @param  I2Cx: where x can be 1 or 2 to select the I2C peripheral.
 342:../Libraries/STM32F10x_StdPeriph_Driver/src/stm32f10x_i2c.c ****   * @param  NewState: new state of the I2C DMA transfer.
 343:../Libraries/STM32F10x_StdPeriph_Driver/src/stm32f10x_i2c.c ****   *   This parameter can be: ENABLE or DISABLE.
 344:../Libraries/STM32F10x_StdPeriph_Driver/src/stm32f10x_i2c.c ****   * @retval None
 345:../Libraries/STM32F10x_StdPeriph_Driver/src/stm32f10x_i2c.c ****   */
 346:../Libraries/STM32F10x_StdPeriph_Driver/src/stm32f10x_i2c.c **** void I2C_DMACmd(I2C_TypeDef* I2Cx, FunctionalState NewState)
 347:../Libraries/STM32F10x_StdPeriph_Driver/src/stm32f10x_i2c.c **** {
 20388              		.loc 1 347 0
 20389              		.cfi_startproc
 20390              		@ args = 0, pretend = 0, frame = 8
 20391              		@ frame_needed = 1, uses_anonymous_args = 0
 20392              		@ link register save eliminated.
 20393 0000 80B4     		push	{r7}
 20394              	.LCFI12:
 20395              		.cfi_def_cfa_offset 4
 20396 0002 83B0     		sub	sp, sp, #12
 20397              	.LCFI13:
 20398              		.cfi_def_cfa_offset 16
 20399 0004 00AF     		add	r7, sp, #0
 20400              		.cfi_offset 7, -4
 20401              	.LCFI14:
 20402              		.cfi_def_cfa_register 7
 20403 0006 7860     		str	r0, [r7, #4]
 20404 0008 0B46     		mov	r3, r1
 20405 000a FB70     		strb	r3, [r7, #3]
 348:../Libraries/STM32F10x_StdPeriph_Driver/src/stm32f10x_i2c.c ****   /* Check the parameters */
 349:../Libraries/STM32F10x_StdPeriph_Driver/src/stm32f10x_i2c.c ****   assert_param(IS_I2C_ALL_PERIPH(I2Cx));
 350:../Libraries/STM32F10x_StdPeriph_Driver/src/stm32f10x_i2c.c ****   assert_param(IS_FUNCTIONAL_STATE(NewState));
 351:../Libraries/STM32F10x_StdPeriph_Driver/src/stm32f10x_i2c.c ****   if (NewState != DISABLE)
 20406              		.loc 1 351 0
 20407 000c FB78     		ldrb	r3, [r7, #3]	@ zero_extendqisi2
 20408 000e 002B     		cmp	r3, #0
 20409 0010 08D0     		beq	.L20
 352:../Libraries/STM32F10x_StdPeriph_Driver/src/stm32f10x_i2c.c ****   {
 353:../Libraries/STM32F10x_StdPeriph_Driver/src/stm32f10x_i2c.c ****     /* Enable the selected I2C DMA requests */
 354:../Libraries/STM32F10x_StdPeriph_Driver/src/stm32f10x_i2c.c ****     I2Cx->CR2 |= CR2_DMAEN_Set;
 20410              		.loc 1 354 0
 20411 0012 7B68     		ldr	r3, [r7, #4]
 20412 0014 9B88     		ldrh	r3, [r3, #4]	@ movhi
 20413 0016 9BB2     		uxth	r3, r3
 20414 0018 43F40063 		orr	r3, r3, #2048
 20415 001c 9AB2     		uxth	r2, r3
 20416 001e 7B68     		ldr	r3, [r7, #4]
 20417 0020 9A80     		strh	r2, [r3, #4]	@ movhi
 20418 0022 07E0     		b	.L19
 20419              	.L20:
 355:../Libraries/STM32F10x_StdPeriph_Driver/src/stm32f10x_i2c.c ****   }
 356:../Libraries/STM32F10x_StdPeriph_Driver/src/stm32f10x_i2c.c ****   else
 357:../Libraries/STM32F10x_StdPeriph_Driver/src/stm32f10x_i2c.c ****   {
 358:../Libraries/STM32F10x_StdPeriph_Driver/src/stm32f10x_i2c.c ****     /* Disable the selected I2C DMA requests */
 359:../Libraries/STM32F10x_StdPeriph_Driver/src/stm32f10x_i2c.c ****     I2Cx->CR2 &= CR2_DMAEN_Reset;
 20420              		.loc 1 359 0
 20421 0024 7B68     		ldr	r3, [r7, #4]
 20422 0026 9B88     		ldrh	r3, [r3, #4]	@ movhi
 20423 0028 9BB2     		uxth	r3, r3
 20424 002a 23F40063 		bic	r3, r3, #2048
 20425 002e 9AB2     		uxth	r2, r3
 20426 0030 7B68     		ldr	r3, [r7, #4]
 20427 0032 9A80     		strh	r2, [r3, #4]	@ movhi
 20428              	.L19:
 360:../Libraries/STM32F10x_StdPeriph_Driver/src/stm32f10x_i2c.c ****   }
 361:../Libraries/STM32F10x_StdPeriph_Driver/src/stm32f10x_i2c.c **** }
 20429              		.loc 1 361 0
 20430 0034 07F10C07 		add	r7, r7, #12
 20431 0038 BD46     		mov	sp, r7
 20432 003a 80BC     		pop	{r7}
 20433 003c 7047     		bx	lr
 20434              		.cfi_endproc
 20435              	.LFE33:
 20437 003e 00BF     		.section	.text.I2C_DMALastTransferCmd,"ax",%progbits
 20438              		.align	2
 20439              		.global	I2C_DMALastTransferCmd
 20440              		.thumb
 20441              		.thumb_func
 20443              	I2C_DMALastTransferCmd:
 20444              	.LFB34:
 362:../Libraries/STM32F10x_StdPeriph_Driver/src/stm32f10x_i2c.c **** 
 363:../Libraries/STM32F10x_StdPeriph_Driver/src/stm32f10x_i2c.c **** /**
 364:../Libraries/STM32F10x_StdPeriph_Driver/src/stm32f10x_i2c.c ****   * @brief  Specifies if the next DMA transfer will be the last one.
 365:../Libraries/STM32F10x_StdPeriph_Driver/src/stm32f10x_i2c.c ****   * @param  I2Cx: where x can be 1 or 2 to select the I2C peripheral.
 366:../Libraries/STM32F10x_StdPeriph_Driver/src/stm32f10x_i2c.c ****   * @param  NewState: new state of the I2C DMA last transfer.
 367:../Libraries/STM32F10x_StdPeriph_Driver/src/stm32f10x_i2c.c ****   *   This parameter can be: ENABLE or DISABLE.
 368:../Libraries/STM32F10x_StdPeriph_Driver/src/stm32f10x_i2c.c ****   * @retval None
 369:../Libraries/STM32F10x_StdPeriph_Driver/src/stm32f10x_i2c.c ****   */
 370:../Libraries/STM32F10x_StdPeriph_Driver/src/stm32f10x_i2c.c **** void I2C_DMALastTransferCmd(I2C_TypeDef* I2Cx, FunctionalState NewState)
 371:../Libraries/STM32F10x_StdPeriph_Driver/src/stm32f10x_i2c.c **** {
 20445              		.loc 1 371 0
 20446              		.cfi_startproc
 20447              		@ args = 0, pretend = 0, frame = 8
 20448              		@ frame_needed = 1, uses_anonymous_args = 0
 20449              		@ link register save eliminated.
 20450 0000 80B4     		push	{r7}
 20451              	.LCFI15:
 20452              		.cfi_def_cfa_offset 4
 20453 0002 83B0     		sub	sp, sp, #12
 20454              	.LCFI16:
 20455              		.cfi_def_cfa_offset 16
 20456 0004 00AF     		add	r7, sp, #0
 20457              		.cfi_offset 7, -4
 20458              	.LCFI17:
 20459              		.cfi_def_cfa_register 7
 20460 0006 7860     		str	r0, [r7, #4]
 20461 0008 0B46     		mov	r3, r1
 20462 000a FB70     		strb	r3, [r7, #3]
 372:../Libraries/STM32F10x_StdPeriph_Driver/src/stm32f10x_i2c.c ****   /* Check the parameters */
 373:../Libraries/STM32F10x_StdPeriph_Driver/src/stm32f10x_i2c.c ****   assert_param(IS_I2C_ALL_PERIPH(I2Cx));
 374:../Libraries/STM32F10x_StdPeriph_Driver/src/stm32f10x_i2c.c ****   assert_param(IS_FUNCTIONAL_STATE(NewState));
 375:../Libraries/STM32F10x_StdPeriph_Driver/src/stm32f10x_i2c.c ****   if (NewState != DISABLE)
 20463              		.loc 1 375 0
 20464 000c FB78     		ldrb	r3, [r7, #3]	@ zero_extendqisi2
 20465 000e 002B     		cmp	r3, #0
 20466 0010 08D0     		beq	.L23
 376:../Libraries/STM32F10x_StdPeriph_Driver/src/stm32f10x_i2c.c ****   {
 377:../Libraries/STM32F10x_StdPeriph_Driver/src/stm32f10x_i2c.c ****     /* Next DMA transfer is the last transfer */
 378:../Libraries/STM32F10x_StdPeriph_Driver/src/stm32f10x_i2c.c ****     I2Cx->CR2 |= CR2_LAST_Set;
 20467              		.loc 1 378 0
 20468 0012 7B68     		ldr	r3, [r7, #4]
 20469 0014 9B88     		ldrh	r3, [r3, #4]	@ movhi
 20470 0016 9BB2     		uxth	r3, r3
 20471 0018 43F48053 		orr	r3, r3, #4096
 20472 001c 9AB2     		uxth	r2, r3
 20473 001e 7B68     		ldr	r3, [r7, #4]
 20474 0020 9A80     		strh	r2, [r3, #4]	@ movhi
 20475 0022 07E0     		b	.L22
 20476              	.L23:
 379:../Libraries/STM32F10x_StdPeriph_Driver/src/stm32f10x_i2c.c ****   }
 380:../Libraries/STM32F10x_StdPeriph_Driver/src/stm32f10x_i2c.c ****   else
 381:../Libraries/STM32F10x_StdPeriph_Driver/src/stm32f10x_i2c.c ****   {
 382:../Libraries/STM32F10x_StdPeriph_Driver/src/stm32f10x_i2c.c ****     /* Next DMA transfer is not the last transfer */
 383:../Libraries/STM32F10x_StdPeriph_Driver/src/stm32f10x_i2c.c ****     I2Cx->CR2 &= CR2_LAST_Reset;
 20477              		.loc 1 383 0
 20478 0024 7B68     		ldr	r3, [r7, #4]
 20479 0026 9B88     		ldrh	r3, [r3, #4]	@ movhi
 20480 0028 9BB2     		uxth	r3, r3
 20481 002a 23F48053 		bic	r3, r3, #4096
 20482 002e 9AB2     		uxth	r2, r3
 20483 0030 7B68     		ldr	r3, [r7, #4]
 20484 0032 9A80     		strh	r2, [r3, #4]	@ movhi
 20485              	.L22:
 384:../Libraries/STM32F10x_StdPeriph_Driver/src/stm32f10x_i2c.c ****   }
 385:../Libraries/STM32F10x_StdPeriph_Driver/src/stm32f10x_i2c.c **** }
 20486              		.loc 1 385 0
 20487 0034 07F10C07 		add	r7, r7, #12
 20488 0038 BD46     		mov	sp, r7
 20489 003a 80BC     		pop	{r7}
 20490 003c 7047     		bx	lr
 20491              		.cfi_endproc
 20492              	.LFE34:
 20494 003e 00BF     		.section	.text.I2C_GenerateSTART,"ax",%progbits
 20495              		.align	2
 20496              		.global	I2C_GenerateSTART
 20497              		.thumb
 20498              		.thumb_func
 20500              	I2C_GenerateSTART:
 20501              	.LFB35:
 386:../Libraries/STM32F10x_StdPeriph_Driver/src/stm32f10x_i2c.c **** 
 387:../Libraries/STM32F10x_StdPeriph_Driver/src/stm32f10x_i2c.c **** /**
 388:../Libraries/STM32F10x_StdPeriph_Driver/src/stm32f10x_i2c.c ****   * @brief  Generates I2Cx communication START condition.
 389:../Libraries/STM32F10x_StdPeriph_Driver/src/stm32f10x_i2c.c ****   * @param  I2Cx: where x can be 1 or 2 to select the I2C peripheral.
 390:../Libraries/STM32F10x_StdPeriph_Driver/src/stm32f10x_i2c.c ****   * @param  NewState: new state of the I2C START condition generation.
 391:../Libraries/STM32F10x_StdPeriph_Driver/src/stm32f10x_i2c.c ****   *   This parameter can be: ENABLE or DISABLE.
 392:../Libraries/STM32F10x_StdPeriph_Driver/src/stm32f10x_i2c.c ****   * @retval None.
 393:../Libraries/STM32F10x_StdPeriph_Driver/src/stm32f10x_i2c.c ****   */
 394:../Libraries/STM32F10x_StdPeriph_Driver/src/stm32f10x_i2c.c **** void I2C_GenerateSTART(I2C_TypeDef* I2Cx, FunctionalState NewState)
 395:../Libraries/STM32F10x_StdPeriph_Driver/src/stm32f10x_i2c.c **** {
 20502              		.loc 1 395 0
 20503              		.cfi_startproc
 20504              		@ args = 0, pretend = 0, frame = 8
 20505              		@ frame_needed = 1, uses_anonymous_args = 0
 20506              		@ link register save eliminated.
 20507 0000 80B4     		push	{r7}
 20508              	.LCFI18:
 20509              		.cfi_def_cfa_offset 4
 20510 0002 83B0     		sub	sp, sp, #12
 20511              	.LCFI19:
 20512              		.cfi_def_cfa_offset 16
 20513 0004 00AF     		add	r7, sp, #0
 20514              		.cfi_offset 7, -4
 20515              	.LCFI20:
 20516              		.cfi_def_cfa_register 7
 20517 0006 7860     		str	r0, [r7, #4]
 20518 0008 0B46     		mov	r3, r1
 20519 000a FB70     		strb	r3, [r7, #3]
 396:../Libraries/STM32F10x_StdPeriph_Driver/src/stm32f10x_i2c.c ****   /* Check the parameters */
 397:../Libraries/STM32F10x_StdPeriph_Driver/src/stm32f10x_i2c.c ****   assert_param(IS_I2C_ALL_PERIPH(I2Cx));
 398:../Libraries/STM32F10x_StdPeriph_Driver/src/stm32f10x_i2c.c ****   assert_param(IS_FUNCTIONAL_STATE(NewState));
 399:../Libraries/STM32F10x_StdPeriph_Driver/src/stm32f10x_i2c.c ****   if (NewState != DISABLE)
 20520              		.loc 1 399 0
 20521 000c FB78     		ldrb	r3, [r7, #3]	@ zero_extendqisi2
 20522 000e 002B     		cmp	r3, #0
 20523 0010 08D0     		beq	.L26
 400:../Libraries/STM32F10x_StdPeriph_Driver/src/stm32f10x_i2c.c ****   {
 401:../Libraries/STM32F10x_StdPeriph_Driver/src/stm32f10x_i2c.c ****     /* Generate a START condition */
 402:../Libraries/STM32F10x_StdPeriph_Driver/src/stm32f10x_i2c.c ****     I2Cx->CR1 |= CR1_START_Set;
 20524              		.loc 1 402 0
 20525 0012 7B68     		ldr	r3, [r7, #4]
 20526 0014 1B88     		ldrh	r3, [r3, #0]	@ movhi
 20527 0016 9BB2     		uxth	r3, r3
 20528 0018 43F48073 		orr	r3, r3, #256
 20529 001c 9AB2     		uxth	r2, r3
 20530 001e 7B68     		ldr	r3, [r7, #4]
 20531 0020 1A80     		strh	r2, [r3, #0]	@ movhi
 20532 0022 07E0     		b	.L25
 20533              	.L26:
 403:../Libraries/STM32F10x_StdPeriph_Driver/src/stm32f10x_i2c.c ****   }
 404:../Libraries/STM32F10x_StdPeriph_Driver/src/stm32f10x_i2c.c ****   else
 405:../Libraries/STM32F10x_StdPeriph_Driver/src/stm32f10x_i2c.c ****   {
 406:../Libraries/STM32F10x_StdPeriph_Driver/src/stm32f10x_i2c.c ****     /* Disable the START condition generation */
 407:../Libraries/STM32F10x_StdPeriph_Driver/src/stm32f10x_i2c.c ****     I2Cx->CR1 &= CR1_START_Reset;
 20534              		.loc 1 407 0
 20535 0024 7B68     		ldr	r3, [r7, #4]
 20536 0026 1B88     		ldrh	r3, [r3, #0]	@ movhi
 20537 0028 9BB2     		uxth	r3, r3
 20538 002a 23F48073 		bic	r3, r3, #256
 20539 002e 9AB2     		uxth	r2, r3
 20540 0030 7B68     		ldr	r3, [r7, #4]
 20541 0032 1A80     		strh	r2, [r3, #0]	@ movhi
 20542              	.L25:
 408:../Libraries/STM32F10x_StdPeriph_Driver/src/stm32f10x_i2c.c ****   }
 409:../Libraries/STM32F10x_StdPeriph_Driver/src/stm32f10x_i2c.c **** }
 20543              		.loc 1 409 0
 20544 0034 07F10C07 		add	r7, r7, #12
 20545 0038 BD46     		mov	sp, r7
 20546 003a 80BC     		pop	{r7}
 20547 003c 7047     		bx	lr
 20548              		.cfi_endproc
 20549              	.LFE35:
 20551 003e 00BF     		.section	.text.I2C_GenerateSTOP,"ax",%progbits
 20552              		.align	2
 20553              		.global	I2C_GenerateSTOP
 20554              		.thumb
 20555              		.thumb_func
 20557              	I2C_GenerateSTOP:
 20558              	.LFB36:
 410:../Libraries/STM32F10x_StdPeriph_Driver/src/stm32f10x_i2c.c **** 
 411:../Libraries/STM32F10x_StdPeriph_Driver/src/stm32f10x_i2c.c **** /**
 412:../Libraries/STM32F10x_StdPeriph_Driver/src/stm32f10x_i2c.c ****   * @brief  Generates I2Cx communication STOP condition.
 413:../Libraries/STM32F10x_StdPeriph_Driver/src/stm32f10x_i2c.c ****   * @param  I2Cx: where x can be 1 or 2 to select the I2C peripheral.
 414:../Libraries/STM32F10x_StdPeriph_Driver/src/stm32f10x_i2c.c ****   * @param  NewState: new state of the I2C STOP condition generation.
 415:../Libraries/STM32F10x_StdPeriph_Driver/src/stm32f10x_i2c.c ****   *   This parameter can be: ENABLE or DISABLE.
 416:../Libraries/STM32F10x_StdPeriph_Driver/src/stm32f10x_i2c.c ****   * @retval None.
 417:../Libraries/STM32F10x_StdPeriph_Driver/src/stm32f10x_i2c.c ****   */
 418:../Libraries/STM32F10x_StdPeriph_Driver/src/stm32f10x_i2c.c **** void I2C_GenerateSTOP(I2C_TypeDef* I2Cx, FunctionalState NewState)
 419:../Libraries/STM32F10x_StdPeriph_Driver/src/stm32f10x_i2c.c **** {
 20559              		.loc 1 419 0
 20560              		.cfi_startproc
 20561              		@ args = 0, pretend = 0, frame = 8
 20562              		@ frame_needed = 1, uses_anonymous_args = 0
 20563              		@ link register save eliminated.
 20564 0000 80B4     		push	{r7}
 20565              	.LCFI21:
 20566              		.cfi_def_cfa_offset 4
 20567 0002 83B0     		sub	sp, sp, #12
 20568              	.LCFI22:
 20569              		.cfi_def_cfa_offset 16
 20570 0004 00AF     		add	r7, sp, #0
 20571              		.cfi_offset 7, -4
 20572              	.LCFI23:
 20573              		.cfi_def_cfa_register 7
 20574 0006 7860     		str	r0, [r7, #4]
 20575 0008 0B46     		mov	r3, r1
 20576 000a FB70     		strb	r3, [r7, #3]
 420:../Libraries/STM32F10x_StdPeriph_Driver/src/stm32f10x_i2c.c ****   /* Check the parameters */
 421:../Libraries/STM32F10x_StdPeriph_Driver/src/stm32f10x_i2c.c ****   assert_param(IS_I2C_ALL_PERIPH(I2Cx));
 422:../Libraries/STM32F10x_StdPeriph_Driver/src/stm32f10x_i2c.c ****   assert_param(IS_FUNCTIONAL_STATE(NewState));
 423:../Libraries/STM32F10x_StdPeriph_Driver/src/stm32f10x_i2c.c ****   if (NewState != DISABLE)
 20577              		.loc 1 423 0
 20578 000c FB78     		ldrb	r3, [r7, #3]	@ zero_extendqisi2
 20579 000e 002B     		cmp	r3, #0
 20580 0010 08D0     		beq	.L29
 424:../Libraries/STM32F10x_StdPeriph_Driver/src/stm32f10x_i2c.c ****   {
 425:../Libraries/STM32F10x_StdPeriph_Driver/src/stm32f10x_i2c.c ****     /* Generate a STOP condition */
 426:../Libraries/STM32F10x_StdPeriph_Driver/src/stm32f10x_i2c.c ****     I2Cx->CR1 |= CR1_STOP_Set;
 20581              		.loc 1 426 0
 20582 0012 7B68     		ldr	r3, [r7, #4]
 20583 0014 1B88     		ldrh	r3, [r3, #0]	@ movhi
 20584 0016 9BB2     		uxth	r3, r3
 20585 0018 43F40073 		orr	r3, r3, #512
 20586 001c 9AB2     		uxth	r2, r3
 20587 001e 7B68     		ldr	r3, [r7, #4]
 20588 0020 1A80     		strh	r2, [r3, #0]	@ movhi
 20589 0022 07E0     		b	.L28
 20590              	.L29:
 427:../Libraries/STM32F10x_StdPeriph_Driver/src/stm32f10x_i2c.c ****   }
 428:../Libraries/STM32F10x_StdPeriph_Driver/src/stm32f10x_i2c.c ****   else
 429:../Libraries/STM32F10x_StdPeriph_Driver/src/stm32f10x_i2c.c ****   {
 430:../Libraries/STM32F10x_StdPeriph_Driver/src/stm32f10x_i2c.c ****     /* Disable the STOP condition generation */
 431:../Libraries/STM32F10x_StdPeriph_Driver/src/stm32f10x_i2c.c ****     I2Cx->CR1 &= CR1_STOP_Reset;
 20591              		.loc 1 431 0
 20592 0024 7B68     		ldr	r3, [r7, #4]
 20593 0026 1B88     		ldrh	r3, [r3, #0]	@ movhi
 20594 0028 9BB2     		uxth	r3, r3
 20595 002a 23F40073 		bic	r3, r3, #512
 20596 002e 9AB2     		uxth	r2, r3
 20597 0030 7B68     		ldr	r3, [r7, #4]
 20598 0032 1A80     		strh	r2, [r3, #0]	@ movhi
 20599              	.L28:
 432:../Libraries/STM32F10x_StdPeriph_Driver/src/stm32f10x_i2c.c ****   }
 433:../Libraries/STM32F10x_StdPeriph_Driver/src/stm32f10x_i2c.c **** }
 20600              		.loc 1 433 0
 20601 0034 07F10C07 		add	r7, r7, #12
 20602 0038 BD46     		mov	sp, r7
 20603 003a 80BC     		pop	{r7}
 20604 003c 7047     		bx	lr
 20605              		.cfi_endproc
 20606              	.LFE36:
 20608 003e 00BF     		.section	.text.I2C_AcknowledgeConfig,"ax",%progbits
 20609              		.align	2
 20610              		.global	I2C_AcknowledgeConfig
 20611              		.thumb
 20612              		.thumb_func
 20614              	I2C_AcknowledgeConfig:
 20615              	.LFB37:
 434:../Libraries/STM32F10x_StdPeriph_Driver/src/stm32f10x_i2c.c **** 
 435:../Libraries/STM32F10x_StdPeriph_Driver/src/stm32f10x_i2c.c **** /**
 436:../Libraries/STM32F10x_StdPeriph_Driver/src/stm32f10x_i2c.c ****   * @brief  Enables or disables the specified I2C acknowledge feature.
 437:../Libraries/STM32F10x_StdPeriph_Driver/src/stm32f10x_i2c.c ****   * @param  I2Cx: where x can be 1 or 2 to select the I2C peripheral.
 438:../Libraries/STM32F10x_StdPeriph_Driver/src/stm32f10x_i2c.c ****   * @param  NewState: new state of the I2C Acknowledgement.
 439:../Libraries/STM32F10x_StdPeriph_Driver/src/stm32f10x_i2c.c ****   *   This parameter can be: ENABLE or DISABLE.
 440:../Libraries/STM32F10x_StdPeriph_Driver/src/stm32f10x_i2c.c ****   * @retval None.
 441:../Libraries/STM32F10x_StdPeriph_Driver/src/stm32f10x_i2c.c ****   */
 442:../Libraries/STM32F10x_StdPeriph_Driver/src/stm32f10x_i2c.c **** void I2C_AcknowledgeConfig(I2C_TypeDef* I2Cx, FunctionalState NewState)
 443:../Libraries/STM32F10x_StdPeriph_Driver/src/stm32f10x_i2c.c **** {
 20616              		.loc 1 443 0
 20617              		.cfi_startproc
 20618              		@ args = 0, pretend = 0, frame = 8
 20619              		@ frame_needed = 1, uses_anonymous_args = 0
 20620              		@ link register save eliminated.
 20621 0000 80B4     		push	{r7}
 20622              	.LCFI24:
 20623              		.cfi_def_cfa_offset 4
 20624 0002 83B0     		sub	sp, sp, #12
 20625              	.LCFI25:
 20626              		.cfi_def_cfa_offset 16
 20627 0004 00AF     		add	r7, sp, #0
 20628              		.cfi_offset 7, -4
 20629              	.LCFI26:
 20630              		.cfi_def_cfa_register 7
 20631 0006 7860     		str	r0, [r7, #4]
 20632 0008 0B46     		mov	r3, r1
 20633 000a FB70     		strb	r3, [r7, #3]
 444:../Libraries/STM32F10x_StdPeriph_Driver/src/stm32f10x_i2c.c ****   /* Check the parameters */
 445:../Libraries/STM32F10x_StdPeriph_Driver/src/stm32f10x_i2c.c ****   assert_param(IS_I2C_ALL_PERIPH(I2Cx));
 446:../Libraries/STM32F10x_StdPeriph_Driver/src/stm32f10x_i2c.c ****   assert_param(IS_FUNCTIONAL_STATE(NewState));
 447:../Libraries/STM32F10x_StdPeriph_Driver/src/stm32f10x_i2c.c ****   if (NewState != DISABLE)
 20634              		.loc 1 447 0
 20635 000c FB78     		ldrb	r3, [r7, #3]	@ zero_extendqisi2
 20636 000e 002B     		cmp	r3, #0
 20637 0010 08D0     		beq	.L32
 448:../Libraries/STM32F10x_StdPeriph_Driver/src/stm32f10x_i2c.c ****   {
 449:../Libraries/STM32F10x_StdPeriph_Driver/src/stm32f10x_i2c.c ****     /* Enable the acknowledgement */
 450:../Libraries/STM32F10x_StdPeriph_Driver/src/stm32f10x_i2c.c ****     I2Cx->CR1 |= CR1_ACK_Set;
 20638              		.loc 1 450 0
 20639 0012 7B68     		ldr	r3, [r7, #4]
 20640 0014 1B88     		ldrh	r3, [r3, #0]	@ movhi
 20641 0016 9BB2     		uxth	r3, r3
 20642 0018 43F48063 		orr	r3, r3, #1024
 20643 001c 9AB2     		uxth	r2, r3
 20644 001e 7B68     		ldr	r3, [r7, #4]
 20645 0020 1A80     		strh	r2, [r3, #0]	@ movhi
 20646 0022 07E0     		b	.L31
 20647              	.L32:
 451:../Libraries/STM32F10x_StdPeriph_Driver/src/stm32f10x_i2c.c ****   }
 452:../Libraries/STM32F10x_StdPeriph_Driver/src/stm32f10x_i2c.c ****   else
 453:../Libraries/STM32F10x_StdPeriph_Driver/src/stm32f10x_i2c.c ****   {
 454:../Libraries/STM32F10x_StdPeriph_Driver/src/stm32f10x_i2c.c ****     /* Disable the acknowledgement */
 455:../Libraries/STM32F10x_StdPeriph_Driver/src/stm32f10x_i2c.c ****     I2Cx->CR1 &= CR1_ACK_Reset;
 20648              		.loc 1 455 0
 20649 0024 7B68     		ldr	r3, [r7, #4]
 20650 0026 1B88     		ldrh	r3, [r3, #0]	@ movhi
 20651 0028 9BB2     		uxth	r3, r3
 20652 002a 23F48063 		bic	r3, r3, #1024
 20653 002e 9AB2     		uxth	r2, r3
 20654 0030 7B68     		ldr	r3, [r7, #4]
 20655 0032 1A80     		strh	r2, [r3, #0]	@ movhi
 20656              	.L31:
 456:../Libraries/STM32F10x_StdPeriph_Driver/src/stm32f10x_i2c.c ****   }
 457:../Libraries/STM32F10x_StdPeriph_Driver/src/stm32f10x_i2c.c **** }
 20657              		.loc 1 457 0
 20658 0034 07F10C07 		add	r7, r7, #12
 20659 0038 BD46     		mov	sp, r7
 20660 003a 80BC     		pop	{r7}
 20661 003c 7047     		bx	lr
 20662              		.cfi_endproc
 20663              	.LFE37:
 20665 003e 00BF     		.section	.text.I2C_OwnAddress2Config,"ax",%progbits
 20666              		.align	2
 20667              		.global	I2C_OwnAddress2Config
 20668              		.thumb
 20669              		.thumb_func
 20671              	I2C_OwnAddress2Config:
 20672              	.LFB38:
 458:../Libraries/STM32F10x_StdPeriph_Driver/src/stm32f10x_i2c.c **** 
 459:../Libraries/STM32F10x_StdPeriph_Driver/src/stm32f10x_i2c.c **** /**
 460:../Libraries/STM32F10x_StdPeriph_Driver/src/stm32f10x_i2c.c ****   * @brief  Configures the specified I2C own address2.
 461:../Libraries/STM32F10x_StdPeriph_Driver/src/stm32f10x_i2c.c ****   * @param  I2Cx: where x can be 1 or 2 to select the I2C peripheral.
 462:../Libraries/STM32F10x_StdPeriph_Driver/src/stm32f10x_i2c.c ****   * @param  Address: specifies the 7bit I2C own address2.
 463:../Libraries/STM32F10x_StdPeriph_Driver/src/stm32f10x_i2c.c ****   * @retval None.
 464:../Libraries/STM32F10x_StdPeriph_Driver/src/stm32f10x_i2c.c ****   */
 465:../Libraries/STM32F10x_StdPeriph_Driver/src/stm32f10x_i2c.c **** void I2C_OwnAddress2Config(I2C_TypeDef* I2Cx, uint8_t Address)
 466:../Libraries/STM32F10x_StdPeriph_Driver/src/stm32f10x_i2c.c **** {
 20673              		.loc 1 466 0
 20674              		.cfi_startproc
 20675              		@ args = 0, pretend = 0, frame = 16
 20676              		@ frame_needed = 1, uses_anonymous_args = 0
 20677              		@ link register save eliminated.
 20678 0000 80B4     		push	{r7}
 20679              	.LCFI27:
 20680              		.cfi_def_cfa_offset 4
 20681 0002 85B0     		sub	sp, sp, #20
 20682              	.LCFI28:
 20683              		.cfi_def_cfa_offset 24
 20684 0004 00AF     		add	r7, sp, #0
 20685              		.cfi_offset 7, -4
 20686              	.LCFI29:
 20687              		.cfi_def_cfa_register 7
 20688 0006 7860     		str	r0, [r7, #4]
 20689 0008 0B46     		mov	r3, r1
 20690 000a FB70     		strb	r3, [r7, #3]
 467:../Libraries/STM32F10x_StdPeriph_Driver/src/stm32f10x_i2c.c ****   uint16_t tmpreg = 0;
 20691              		.loc 1 467 0
 20692 000c 4FF00003 		mov	r3, #0
 20693 0010 FB81     		strh	r3, [r7, #14]	@ movhi
 468:../Libraries/STM32F10x_StdPeriph_Driver/src/stm32f10x_i2c.c **** 
 469:../Libraries/STM32F10x_StdPeriph_Driver/src/stm32f10x_i2c.c ****   /* Check the parameters */
 470:../Libraries/STM32F10x_StdPeriph_Driver/src/stm32f10x_i2c.c ****   assert_param(IS_I2C_ALL_PERIPH(I2Cx));
 471:../Libraries/STM32F10x_StdPeriph_Driver/src/stm32f10x_i2c.c **** 
 472:../Libraries/STM32F10x_StdPeriph_Driver/src/stm32f10x_i2c.c ****   /* Get the old register value */
 473:../Libraries/STM32F10x_StdPeriph_Driver/src/stm32f10x_i2c.c ****   tmpreg = I2Cx->OAR2;
 20694              		.loc 1 473 0
 20695 0012 7B68     		ldr	r3, [r7, #4]
 20696 0014 9B89     		ldrh	r3, [r3, #12]	@ movhi
 20697 0016 FB81     		strh	r3, [r7, #14]	@ movhi
 474:../Libraries/STM32F10x_StdPeriph_Driver/src/stm32f10x_i2c.c **** 
 475:../Libraries/STM32F10x_StdPeriph_Driver/src/stm32f10x_i2c.c ****   /* Reset I2Cx Own address2 bit [7:1] */
 476:../Libraries/STM32F10x_StdPeriph_Driver/src/stm32f10x_i2c.c ****   tmpreg &= OAR2_ADD2_Reset;
 20698              		.loc 1 476 0
 20699 0018 FB89     		ldrh	r3, [r7, #14]	@ movhi
 20700 001a 23F0FE03 		bic	r3, r3, #254
 20701 001e FB81     		strh	r3, [r7, #14]	@ movhi
 477:../Libraries/STM32F10x_StdPeriph_Driver/src/stm32f10x_i2c.c **** 
 478:../Libraries/STM32F10x_StdPeriph_Driver/src/stm32f10x_i2c.c ****   /* Set I2Cx Own address2 */
 479:../Libraries/STM32F10x_StdPeriph_Driver/src/stm32f10x_i2c.c ****   tmpreg |= (uint16_t)((uint16_t)Address & (uint16_t)0x00FE);
 20702              		.loc 1 479 0
 20703 0020 FB78     		ldrb	r3, [r7, #3]	@ zero_extendqisi2
 20704 0022 9BB2     		uxth	r3, r3
 20705 0024 03F0FE03 		and	r3, r3, #254
 20706 0028 9AB2     		uxth	r2, r3
 20707 002a FB89     		ldrh	r3, [r7, #14]
 20708 002c 42EA0303 		orr	r3, r2, r3
 20709 0030 9BB2     		uxth	r3, r3
 20710 0032 FB81     		strh	r3, [r7, #14]	@ movhi
 480:../Libraries/STM32F10x_StdPeriph_Driver/src/stm32f10x_i2c.c **** 
 481:../Libraries/STM32F10x_StdPeriph_Driver/src/stm32f10x_i2c.c ****   /* Store the new register value */
 482:../Libraries/STM32F10x_StdPeriph_Driver/src/stm32f10x_i2c.c ****   I2Cx->OAR2 = tmpreg;
 20711              		.loc 1 482 0
 20712 0034 7B68     		ldr	r3, [r7, #4]
 20713 0036 FA89     		ldrh	r2, [r7, #14]	@ movhi
 20714 0038 9A81     		strh	r2, [r3, #12]	@ movhi
 483:../Libraries/STM32F10x_StdPeriph_Driver/src/stm32f10x_i2c.c **** }
 20715              		.loc 1 483 0
 20716 003a 07F11407 		add	r7, r7, #20
 20717 003e BD46     		mov	sp, r7
 20718 0040 80BC     		pop	{r7}
 20719 0042 7047     		bx	lr
 20720              		.cfi_endproc
 20721              	.LFE38:
 20723              		.section	.text.I2C_DualAddressCmd,"ax",%progbits
 20724              		.align	2
 20725              		.global	I2C_DualAddressCmd
 20726              		.thumb
 20727              		.thumb_func
 20729              	I2C_DualAddressCmd:
 20730              	.LFB39:
 484:../Libraries/STM32F10x_StdPeriph_Driver/src/stm32f10x_i2c.c **** 
 485:../Libraries/STM32F10x_StdPeriph_Driver/src/stm32f10x_i2c.c **** /**
 486:../Libraries/STM32F10x_StdPeriph_Driver/src/stm32f10x_i2c.c ****   * @brief  Enables or disables the specified I2C dual addressing mode.
 487:../Libraries/STM32F10x_StdPeriph_Driver/src/stm32f10x_i2c.c ****   * @param  I2Cx: where x can be 1 or 2 to select the I2C peripheral.
 488:../Libraries/STM32F10x_StdPeriph_Driver/src/stm32f10x_i2c.c ****   * @param  NewState: new state of the I2C dual addressing mode.
 489:../Libraries/STM32F10x_StdPeriph_Driver/src/stm32f10x_i2c.c ****   *   This parameter can be: ENABLE or DISABLE.
 490:../Libraries/STM32F10x_StdPeriph_Driver/src/stm32f10x_i2c.c ****   * @retval None
 491:../Libraries/STM32F10x_StdPeriph_Driver/src/stm32f10x_i2c.c ****   */
 492:../Libraries/STM32F10x_StdPeriph_Driver/src/stm32f10x_i2c.c **** void I2C_DualAddressCmd(I2C_TypeDef* I2Cx, FunctionalState NewState)
 493:../Libraries/STM32F10x_StdPeriph_Driver/src/stm32f10x_i2c.c **** {
 20731              		.loc 1 493 0
 20732              		.cfi_startproc
 20733              		@ args = 0, pretend = 0, frame = 8
 20734              		@ frame_needed = 1, uses_anonymous_args = 0
 20735              		@ link register save eliminated.
 20736 0000 80B4     		push	{r7}
 20737              	.LCFI30:
 20738              		.cfi_def_cfa_offset 4
 20739 0002 83B0     		sub	sp, sp, #12
 20740              	.LCFI31:
 20741              		.cfi_def_cfa_offset 16
 20742 0004 00AF     		add	r7, sp, #0
 20743              		.cfi_offset 7, -4
 20744              	.LCFI32:
 20745              		.cfi_def_cfa_register 7
 20746 0006 7860     		str	r0, [r7, #4]
 20747 0008 0B46     		mov	r3, r1
 20748 000a FB70     		strb	r3, [r7, #3]
 494:../Libraries/STM32F10x_StdPeriph_Driver/src/stm32f10x_i2c.c ****   /* Check the parameters */
 495:../Libraries/STM32F10x_StdPeriph_Driver/src/stm32f10x_i2c.c ****   assert_param(IS_I2C_ALL_PERIPH(I2Cx));
 496:../Libraries/STM32F10x_StdPeriph_Driver/src/stm32f10x_i2c.c ****   assert_param(IS_FUNCTIONAL_STATE(NewState));
 497:../Libraries/STM32F10x_StdPeriph_Driver/src/stm32f10x_i2c.c ****   if (NewState != DISABLE)
 20749              		.loc 1 497 0
 20750 000c FB78     		ldrb	r3, [r7, #3]	@ zero_extendqisi2
 20751 000e 002B     		cmp	r3, #0
 20752 0010 08D0     		beq	.L36
 498:../Libraries/STM32F10x_StdPeriph_Driver/src/stm32f10x_i2c.c ****   {
 499:../Libraries/STM32F10x_StdPeriph_Driver/src/stm32f10x_i2c.c ****     /* Enable dual addressing mode */
 500:../Libraries/STM32F10x_StdPeriph_Driver/src/stm32f10x_i2c.c ****     I2Cx->OAR2 |= OAR2_ENDUAL_Set;
 20753              		.loc 1 500 0
 20754 0012 7B68     		ldr	r3, [r7, #4]
 20755 0014 9B89     		ldrh	r3, [r3, #12]	@ movhi
 20756 0016 9BB2     		uxth	r3, r3
 20757 0018 43F00103 		orr	r3, r3, #1
 20758 001c 9AB2     		uxth	r2, r3
 20759 001e 7B68     		ldr	r3, [r7, #4]
 20760 0020 9A81     		strh	r2, [r3, #12]	@ movhi
 20761 0022 07E0     		b	.L35
 20762              	.L36:
 501:../Libraries/STM32F10x_StdPeriph_Driver/src/stm32f10x_i2c.c ****   }
 502:../Libraries/STM32F10x_StdPeriph_Driver/src/stm32f10x_i2c.c ****   else
 503:../Libraries/STM32F10x_StdPeriph_Driver/src/stm32f10x_i2c.c ****   {
 504:../Libraries/STM32F10x_StdPeriph_Driver/src/stm32f10x_i2c.c ****     /* Disable dual addressing mode */
 505:../Libraries/STM32F10x_StdPeriph_Driver/src/stm32f10x_i2c.c ****     I2Cx->OAR2 &= OAR2_ENDUAL_Reset;
 20763              		.loc 1 505 0
 20764 0024 7B68     		ldr	r3, [r7, #4]
 20765 0026 9B89     		ldrh	r3, [r3, #12]	@ movhi
 20766 0028 9BB2     		uxth	r3, r3
 20767 002a 23F00103 		bic	r3, r3, #1
 20768 002e 9AB2     		uxth	r2, r3
 20769 0030 7B68     		ldr	r3, [r7, #4]
 20770 0032 9A81     		strh	r2, [r3, #12]	@ movhi
 20771              	.L35:
 506:../Libraries/STM32F10x_StdPeriph_Driver/src/stm32f10x_i2c.c ****   }
 507:../Libraries/STM32F10x_StdPeriph_Driver/src/stm32f10x_i2c.c **** }
 20772              		.loc 1 507 0
 20773 0034 07F10C07 		add	r7, r7, #12
 20774 0038 BD46     		mov	sp, r7
 20775 003a 80BC     		pop	{r7}
 20776 003c 7047     		bx	lr
 20777              		.cfi_endproc
 20778              	.LFE39:
 20780 003e 00BF     		.section	.text.I2C_GeneralCallCmd,"ax",%progbits
 20781              		.align	2
 20782              		.global	I2C_GeneralCallCmd
 20783              		.thumb
 20784              		.thumb_func
 20786              	I2C_GeneralCallCmd:
 20787              	.LFB40:
 508:../Libraries/STM32F10x_StdPeriph_Driver/src/stm32f10x_i2c.c **** 
 509:../Libraries/STM32F10x_StdPeriph_Driver/src/stm32f10x_i2c.c **** /**
 510:../Libraries/STM32F10x_StdPeriph_Driver/src/stm32f10x_i2c.c ****   * @brief  Enables or disables the specified I2C general call feature.
 511:../Libraries/STM32F10x_StdPeriph_Driver/src/stm32f10x_i2c.c ****   * @param  I2Cx: where x can be 1 or 2 to select the I2C peripheral.
 512:../Libraries/STM32F10x_StdPeriph_Driver/src/stm32f10x_i2c.c ****   * @param  NewState: new state of the I2C General call.
 513:../Libraries/STM32F10x_StdPeriph_Driver/src/stm32f10x_i2c.c ****   *   This parameter can be: ENABLE or DISABLE.
 514:../Libraries/STM32F10x_StdPeriph_Driver/src/stm32f10x_i2c.c ****   * @retval None
 515:../Libraries/STM32F10x_StdPeriph_Driver/src/stm32f10x_i2c.c ****   */
 516:../Libraries/STM32F10x_StdPeriph_Driver/src/stm32f10x_i2c.c **** void I2C_GeneralCallCmd(I2C_TypeDef* I2Cx, FunctionalState NewState)
 517:../Libraries/STM32F10x_StdPeriph_Driver/src/stm32f10x_i2c.c **** {
 20788              		.loc 1 517 0
 20789              		.cfi_startproc
 20790              		@ args = 0, pretend = 0, frame = 8
 20791              		@ frame_needed = 1, uses_anonymous_args = 0
 20792              		@ link register save eliminated.
 20793 0000 80B4     		push	{r7}
 20794              	.LCFI33:
 20795              		.cfi_def_cfa_offset 4
 20796 0002 83B0     		sub	sp, sp, #12
 20797              	.LCFI34:
 20798              		.cfi_def_cfa_offset 16
 20799 0004 00AF     		add	r7, sp, #0
 20800              		.cfi_offset 7, -4
 20801              	.LCFI35:
 20802              		.cfi_def_cfa_register 7
 20803 0006 7860     		str	r0, [r7, #4]
 20804 0008 0B46     		mov	r3, r1
 20805 000a FB70     		strb	r3, [r7, #3]
 518:../Libraries/STM32F10x_StdPeriph_Driver/src/stm32f10x_i2c.c ****   /* Check the parameters */
 519:../Libraries/STM32F10x_StdPeriph_Driver/src/stm32f10x_i2c.c ****   assert_param(IS_I2C_ALL_PERIPH(I2Cx));
 520:../Libraries/STM32F10x_StdPeriph_Driver/src/stm32f10x_i2c.c ****   assert_param(IS_FUNCTIONAL_STATE(NewState));
 521:../Libraries/STM32F10x_StdPeriph_Driver/src/stm32f10x_i2c.c ****   if (NewState != DISABLE)
 20806              		.loc 1 521 0
 20807 000c FB78     		ldrb	r3, [r7, #3]	@ zero_extendqisi2
 20808 000e 002B     		cmp	r3, #0
 20809 0010 08D0     		beq	.L39
 522:../Libraries/STM32F10x_StdPeriph_Driver/src/stm32f10x_i2c.c ****   {
 523:../Libraries/STM32F10x_StdPeriph_Driver/src/stm32f10x_i2c.c ****     /* Enable generall call */
 524:../Libraries/STM32F10x_StdPeriph_Driver/src/stm32f10x_i2c.c ****     I2Cx->CR1 |= CR1_ENGC_Set;
 20810              		.loc 1 524 0
 20811 0012 7B68     		ldr	r3, [r7, #4]
 20812 0014 1B88     		ldrh	r3, [r3, #0]	@ movhi
 20813 0016 9BB2     		uxth	r3, r3
 20814 0018 43F04003 		orr	r3, r3, #64
 20815 001c 9AB2     		uxth	r2, r3
 20816 001e 7B68     		ldr	r3, [r7, #4]
 20817 0020 1A80     		strh	r2, [r3, #0]	@ movhi
 20818 0022 07E0     		b	.L38
 20819              	.L39:
 525:../Libraries/STM32F10x_StdPeriph_Driver/src/stm32f10x_i2c.c ****   }
 526:../Libraries/STM32F10x_StdPeriph_Driver/src/stm32f10x_i2c.c ****   else
 527:../Libraries/STM32F10x_StdPeriph_Driver/src/stm32f10x_i2c.c ****   {
 528:../Libraries/STM32F10x_StdPeriph_Driver/src/stm32f10x_i2c.c ****     /* Disable generall call */
 529:../Libraries/STM32F10x_StdPeriph_Driver/src/stm32f10x_i2c.c ****     I2Cx->CR1 &= CR1_ENGC_Reset;
 20820              		.loc 1 529 0
 20821 0024 7B68     		ldr	r3, [r7, #4]
 20822 0026 1B88     		ldrh	r3, [r3, #0]	@ movhi
 20823 0028 9BB2     		uxth	r3, r3
 20824 002a 23F04003 		bic	r3, r3, #64
 20825 002e 9AB2     		uxth	r2, r3
 20826 0030 7B68     		ldr	r3, [r7, #4]
 20827 0032 1A80     		strh	r2, [r3, #0]	@ movhi
 20828              	.L38:
 530:../Libraries/STM32F10x_StdPeriph_Driver/src/stm32f10x_i2c.c ****   }
 531:../Libraries/STM32F10x_StdPeriph_Driver/src/stm32f10x_i2c.c **** }
 20829              		.loc 1 531 0
 20830 0034 07F10C07 		add	r7, r7, #12
 20831 0038 BD46     		mov	sp, r7
 20832 003a 80BC     		pop	{r7}
 20833 003c 7047     		bx	lr
 20834              		.cfi_endproc
 20835              	.LFE40:
 20837 003e 00BF     		.section	.text.I2C_ITConfig,"ax",%progbits
 20838              		.align	2
 20839              		.global	I2C_ITConfig
 20840              		.thumb
 20841              		.thumb_func
 20843              	I2C_ITConfig:
 20844              	.LFB41:
 532:../Libraries/STM32F10x_StdPeriph_Driver/src/stm32f10x_i2c.c **** 
 533:../Libraries/STM32F10x_StdPeriph_Driver/src/stm32f10x_i2c.c **** /**
 534:../Libraries/STM32F10x_StdPeriph_Driver/src/stm32f10x_i2c.c ****   * @brief  Enables or disables the specified I2C interrupts.
 535:../Libraries/STM32F10x_StdPeriph_Driver/src/stm32f10x_i2c.c ****   * @param  I2Cx: where x can be 1 or 2 to select the I2C peripheral.
 536:../Libraries/STM32F10x_StdPeriph_Driver/src/stm32f10x_i2c.c ****   * @param  I2C_IT: specifies the I2C interrupts sources to be enabled or disabled. 
 537:../Libraries/STM32F10x_StdPeriph_Driver/src/stm32f10x_i2c.c ****   *   This parameter can be any combination of the following values:
 538:../Libraries/STM32F10x_StdPeriph_Driver/src/stm32f10x_i2c.c ****   *     @arg I2C_IT_BUF: Buffer interrupt mask
 539:../Libraries/STM32F10x_StdPeriph_Driver/src/stm32f10x_i2c.c ****   *     @arg I2C_IT_EVT: Event interrupt mask
 540:../Libraries/STM32F10x_StdPeriph_Driver/src/stm32f10x_i2c.c ****   *     @arg I2C_IT_ERR: Error interrupt mask
 541:../Libraries/STM32F10x_StdPeriph_Driver/src/stm32f10x_i2c.c ****   * @param  NewState: new state of the specified I2C interrupts.
 542:../Libraries/STM32F10x_StdPeriph_Driver/src/stm32f10x_i2c.c ****   *   This parameter can be: ENABLE or DISABLE.
 543:../Libraries/STM32F10x_StdPeriph_Driver/src/stm32f10x_i2c.c ****   * @retval None
 544:../Libraries/STM32F10x_StdPeriph_Driver/src/stm32f10x_i2c.c ****   */
 545:../Libraries/STM32F10x_StdPeriph_Driver/src/stm32f10x_i2c.c **** void I2C_ITConfig(I2C_TypeDef* I2Cx, uint16_t I2C_IT, FunctionalState NewState)
 546:../Libraries/STM32F10x_StdPeriph_Driver/src/stm32f10x_i2c.c **** {
 20845              		.loc 1 546 0
 20846              		.cfi_startproc
 20847              		@ args = 0, pretend = 0, frame = 8
 20848              		@ frame_needed = 1, uses_anonymous_args = 0
 20849              		@ link register save eliminated.
 20850 0000 80B4     		push	{r7}
 20851              	.LCFI36:
 20852              		.cfi_def_cfa_offset 4
 20853 0002 83B0     		sub	sp, sp, #12
 20854              	.LCFI37:
 20855              		.cfi_def_cfa_offset 16
 20856 0004 00AF     		add	r7, sp, #0
 20857              		.cfi_offset 7, -4
 20858              	.LCFI38:
 20859              		.cfi_def_cfa_register 7
 20860 0006 7860     		str	r0, [r7, #4]
 20861 0008 1346     		mov	r3, r2
 20862 000a 0A46     		mov	r2, r1	@ movhi
 20863 000c 7A80     		strh	r2, [r7, #2]	@ movhi
 20864 000e 7B70     		strb	r3, [r7, #1]
 547:../Libraries/STM32F10x_StdPeriph_Driver/src/stm32f10x_i2c.c ****   /* Check the parameters */
 548:../Libraries/STM32F10x_StdPeriph_Driver/src/stm32f10x_i2c.c ****   assert_param(IS_I2C_ALL_PERIPH(I2Cx));
 549:../Libraries/STM32F10x_StdPeriph_Driver/src/stm32f10x_i2c.c ****   assert_param(IS_FUNCTIONAL_STATE(NewState));
 550:../Libraries/STM32F10x_StdPeriph_Driver/src/stm32f10x_i2c.c ****   assert_param(IS_I2C_CONFIG_IT(I2C_IT));
 551:../Libraries/STM32F10x_StdPeriph_Driver/src/stm32f10x_i2c.c ****   
 552:../Libraries/STM32F10x_StdPeriph_Driver/src/stm32f10x_i2c.c ****   if (NewState != DISABLE)
 20865              		.loc 1 552 0
 20866 0010 7B78     		ldrb	r3, [r7, #1]	@ zero_extendqisi2
 20867 0012 002B     		cmp	r3, #0
 20868 0014 09D0     		beq	.L42
 553:../Libraries/STM32F10x_StdPeriph_Driver/src/stm32f10x_i2c.c ****   {
 554:../Libraries/STM32F10x_StdPeriph_Driver/src/stm32f10x_i2c.c ****     /* Enable the selected I2C interrupts */
 555:../Libraries/STM32F10x_StdPeriph_Driver/src/stm32f10x_i2c.c ****     I2Cx->CR2 |= I2C_IT;
 20869              		.loc 1 555 0
 20870 0016 7B68     		ldr	r3, [r7, #4]
 20871 0018 9B88     		ldrh	r3, [r3, #4]	@ movhi
 20872 001a 9AB2     		uxth	r2, r3
 20873 001c 7B88     		ldrh	r3, [r7, #2]	@ movhi
 20874 001e 42EA0303 		orr	r3, r2, r3
 20875 0022 9AB2     		uxth	r2, r3
 20876 0024 7B68     		ldr	r3, [r7, #4]
 20877 0026 9A80     		strh	r2, [r3, #4]	@ movhi
 20878 0028 0BE0     		b	.L41
 20879              	.L42:
 556:../Libraries/STM32F10x_StdPeriph_Driver/src/stm32f10x_i2c.c ****   }
 557:../Libraries/STM32F10x_StdPeriph_Driver/src/stm32f10x_i2c.c ****   else
 558:../Libraries/STM32F10x_StdPeriph_Driver/src/stm32f10x_i2c.c ****   {
 559:../Libraries/STM32F10x_StdPeriph_Driver/src/stm32f10x_i2c.c ****     /* Disable the selected I2C interrupts */
 560:../Libraries/STM32F10x_StdPeriph_Driver/src/stm32f10x_i2c.c ****     I2Cx->CR2 &= (uint16_t)~I2C_IT;
 20880              		.loc 1 560 0
 20881 002a 7B68     		ldr	r3, [r7, #4]
 20882 002c 9B88     		ldrh	r3, [r3, #4]	@ movhi
 20883 002e 9AB2     		uxth	r2, r3
 20884 0030 7B88     		ldrh	r3, [r7, #2]	@ movhi
 20885 0032 6FEA0303 		mvn	r3, r3
 20886 0036 9BB2     		uxth	r3, r3
 20887 0038 02EA0303 		and	r3, r2, r3
 20888 003c 9AB2     		uxth	r2, r3
 20889 003e 7B68     		ldr	r3, [r7, #4]
 20890 0040 9A80     		strh	r2, [r3, #4]	@ movhi
 20891              	.L41:
 561:../Libraries/STM32F10x_StdPeriph_Driver/src/stm32f10x_i2c.c ****   }
 562:../Libraries/STM32F10x_StdPeriph_Driver/src/stm32f10x_i2c.c **** }
 20892              		.loc 1 562 0
 20893 0042 07F10C07 		add	r7, r7, #12
 20894 0046 BD46     		mov	sp, r7
 20895 0048 80BC     		pop	{r7}
 20896 004a 7047     		bx	lr
 20897              		.cfi_endproc
 20898              	.LFE41:
 20900              		.section	.text.I2C_SendData,"ax",%progbits
 20901              		.align	2
 20902              		.global	I2C_SendData
 20903              		.thumb
 20904              		.thumb_func
 20906              	I2C_SendData:
 20907              	.LFB42:
 563:../Libraries/STM32F10x_StdPeriph_Driver/src/stm32f10x_i2c.c **** 
 564:../Libraries/STM32F10x_StdPeriph_Driver/src/stm32f10x_i2c.c **** /**
 565:../Libraries/STM32F10x_StdPeriph_Driver/src/stm32f10x_i2c.c ****   * @brief  Sends a data byte through the I2Cx peripheral.
 566:../Libraries/STM32F10x_StdPeriph_Driver/src/stm32f10x_i2c.c ****   * @param  I2Cx: where x can be 1 or 2 to select the I2C peripheral.
 567:../Libraries/STM32F10x_StdPeriph_Driver/src/stm32f10x_i2c.c ****   * @param  Data: Byte to be transmitted..
 568:../Libraries/STM32F10x_StdPeriph_Driver/src/stm32f10x_i2c.c ****   * @retval None
 569:../Libraries/STM32F10x_StdPeriph_Driver/src/stm32f10x_i2c.c ****   */
 570:../Libraries/STM32F10x_StdPeriph_Driver/src/stm32f10x_i2c.c **** void I2C_SendData(I2C_TypeDef* I2Cx, uint8_t Data)
 571:../Libraries/STM32F10x_StdPeriph_Driver/src/stm32f10x_i2c.c **** {
 20908              		.loc 1 571 0
 20909              		.cfi_startproc
 20910              		@ args = 0, pretend = 0, frame = 8
 20911              		@ frame_needed = 1, uses_anonymous_args = 0
 20912              		@ link register save eliminated.
 20913 0000 80B4     		push	{r7}
 20914              	.LCFI39:
 20915              		.cfi_def_cfa_offset 4
 20916 0002 83B0     		sub	sp, sp, #12
 20917              	.LCFI40:
 20918              		.cfi_def_cfa_offset 16
 20919 0004 00AF     		add	r7, sp, #0
 20920              		.cfi_offset 7, -4
 20921              	.LCFI41:
 20922              		.cfi_def_cfa_register 7
 20923 0006 7860     		str	r0, [r7, #4]
 20924 0008 0B46     		mov	r3, r1
 20925 000a FB70     		strb	r3, [r7, #3]
 572:../Libraries/STM32F10x_StdPeriph_Driver/src/stm32f10x_i2c.c ****   /* Check the parameters */
 573:../Libraries/STM32F10x_StdPeriph_Driver/src/stm32f10x_i2c.c ****   assert_param(IS_I2C_ALL_PERIPH(I2Cx));
 574:../Libraries/STM32F10x_StdPeriph_Driver/src/stm32f10x_i2c.c ****   /* Write in the DR register the data to be sent */
 575:../Libraries/STM32F10x_StdPeriph_Driver/src/stm32f10x_i2c.c ****   I2Cx->DR = Data;
 20926              		.loc 1 575 0
 20927 000c FB78     		ldrb	r3, [r7, #3]	@ zero_extendqisi2
 20928 000e 9AB2     		uxth	r2, r3
 20929 0010 7B68     		ldr	r3, [r7, #4]
 20930 0012 1A82     		strh	r2, [r3, #16]	@ movhi
 576:../Libraries/STM32F10x_StdPeriph_Driver/src/stm32f10x_i2c.c **** }
 20931              		.loc 1 576 0
 20932 0014 07F10C07 		add	r7, r7, #12
 20933 0018 BD46     		mov	sp, r7
 20934 001a 80BC     		pop	{r7}
 20935 001c 7047     		bx	lr
 20936              		.cfi_endproc
 20937              	.LFE42:
 20939 001e 00BF     		.section	.text.I2C_ReceiveData,"ax",%progbits
 20940              		.align	2
 20941              		.global	I2C_ReceiveData
 20942              		.thumb
 20943              		.thumb_func
 20945              	I2C_ReceiveData:
 20946              	.LFB43:
 577:../Libraries/STM32F10x_StdPeriph_Driver/src/stm32f10x_i2c.c **** 
 578:../Libraries/STM32F10x_StdPeriph_Driver/src/stm32f10x_i2c.c **** /**
 579:../Libraries/STM32F10x_StdPeriph_Driver/src/stm32f10x_i2c.c ****   * @brief  Returns the most recent received data by the I2Cx peripheral.
 580:../Libraries/STM32F10x_StdPeriph_Driver/src/stm32f10x_i2c.c ****   * @param  I2Cx: where x can be 1 or 2 to select the I2C peripheral.
 581:../Libraries/STM32F10x_StdPeriph_Driver/src/stm32f10x_i2c.c ****   * @retval The value of the received data.
 582:../Libraries/STM32F10x_StdPeriph_Driver/src/stm32f10x_i2c.c ****   */
 583:../Libraries/STM32F10x_StdPeriph_Driver/src/stm32f10x_i2c.c **** uint8_t I2C_ReceiveData(I2C_TypeDef* I2Cx)
 584:../Libraries/STM32F10x_StdPeriph_Driver/src/stm32f10x_i2c.c **** {
 20947              		.loc 1 584 0
 20948              		.cfi_startproc
 20949              		@ args = 0, pretend = 0, frame = 8
 20950              		@ frame_needed = 1, uses_anonymous_args = 0
 20951              		@ link register save eliminated.
 20952 0000 80B4     		push	{r7}
 20953              	.LCFI42:
 20954              		.cfi_def_cfa_offset 4
 20955 0002 83B0     		sub	sp, sp, #12
 20956              	.LCFI43:
 20957              		.cfi_def_cfa_offset 16
 20958 0004 00AF     		add	r7, sp, #0
 20959              		.cfi_offset 7, -4
 20960              	.LCFI44:
 20961              		.cfi_def_cfa_register 7
 20962 0006 7860     		str	r0, [r7, #4]
 585:../Libraries/STM32F10x_StdPeriph_Driver/src/stm32f10x_i2c.c ****   /* Check the parameters */
 586:../Libraries/STM32F10x_StdPeriph_Driver/src/stm32f10x_i2c.c ****   assert_param(IS_I2C_ALL_PERIPH(I2Cx));
 587:../Libraries/STM32F10x_StdPeriph_Driver/src/stm32f10x_i2c.c ****   /* Return the data in the DR register */
 588:../Libraries/STM32F10x_StdPeriph_Driver/src/stm32f10x_i2c.c ****   return (uint8_t)I2Cx->DR;
 20963              		.loc 1 588 0
 20964 0008 7B68     		ldr	r3, [r7, #4]
 20965 000a 1B8A     		ldrh	r3, [r3, #16]	@ movhi
 20966 000c 9BB2     		uxth	r3, r3
 20967 000e DBB2     		uxtb	r3, r3
 589:../Libraries/STM32F10x_StdPeriph_Driver/src/stm32f10x_i2c.c **** }
 20968              		.loc 1 589 0
 20969 0010 1846     		mov	r0, r3
 20970 0012 07F10C07 		add	r7, r7, #12
 20971 0016 BD46     		mov	sp, r7
 20972 0018 80BC     		pop	{r7}
 20973 001a 7047     		bx	lr
 20974              		.cfi_endproc
 20975              	.LFE43:
 20977              		.section	.text.I2C_Send7bitAddress,"ax",%progbits
 20978              		.align	2
 20979              		.global	I2C_Send7bitAddress
 20980              		.thumb
 20981              		.thumb_func
 20983              	I2C_Send7bitAddress:
 20984              	.LFB44:
 590:../Libraries/STM32F10x_StdPeriph_Driver/src/stm32f10x_i2c.c **** 
 591:../Libraries/STM32F10x_StdPeriph_Driver/src/stm32f10x_i2c.c **** /**
 592:../Libraries/STM32F10x_StdPeriph_Driver/src/stm32f10x_i2c.c ****   * @brief  Transmits the address byte to select the slave device.
 593:../Libraries/STM32F10x_StdPeriph_Driver/src/stm32f10x_i2c.c ****   * @param  I2Cx: where x can be 1 or 2 to select the I2C peripheral.
 594:../Libraries/STM32F10x_StdPeriph_Driver/src/stm32f10x_i2c.c ****   * @param  Address: specifies the slave address which will be transmitted
 595:../Libraries/STM32F10x_StdPeriph_Driver/src/stm32f10x_i2c.c ****   * @param  I2C_Direction: specifies whether the I2C device will be a
 596:../Libraries/STM32F10x_StdPeriph_Driver/src/stm32f10x_i2c.c ****   *   Transmitter or a Receiver. This parameter can be one of the following values
 597:../Libraries/STM32F10x_StdPeriph_Driver/src/stm32f10x_i2c.c ****   *     @arg I2C_Direction_Transmitter: Transmitter mode
 598:../Libraries/STM32F10x_StdPeriph_Driver/src/stm32f10x_i2c.c ****   *     @arg I2C_Direction_Receiver: Receiver mode
 599:../Libraries/STM32F10x_StdPeriph_Driver/src/stm32f10x_i2c.c ****   * @retval None.
 600:../Libraries/STM32F10x_StdPeriph_Driver/src/stm32f10x_i2c.c ****   */
 601:../Libraries/STM32F10x_StdPeriph_Driver/src/stm32f10x_i2c.c **** void I2C_Send7bitAddress(I2C_TypeDef* I2Cx, uint8_t Address, uint8_t I2C_Direction)
 602:../Libraries/STM32F10x_StdPeriph_Driver/src/stm32f10x_i2c.c **** {
 20985              		.loc 1 602 0
 20986              		.cfi_startproc
 20987              		@ args = 0, pretend = 0, frame = 8
 20988              		@ frame_needed = 1, uses_anonymous_args = 0
 20989              		@ link register save eliminated.
 20990 0000 80B4     		push	{r7}
 20991              	.LCFI45:
 20992              		.cfi_def_cfa_offset 4
 20993 0002 83B0     		sub	sp, sp, #12
 20994              	.LCFI46:
 20995              		.cfi_def_cfa_offset 16
 20996 0004 00AF     		add	r7, sp, #0
 20997              		.cfi_offset 7, -4
 20998              	.LCFI47:
 20999              		.cfi_def_cfa_register 7
 21000 0006 7860     		str	r0, [r7, #4]
 21001 0008 1346     		mov	r3, r2
 21002 000a 0A46     		mov	r2, r1
 21003 000c FA70     		strb	r2, [r7, #3]
 21004 000e BB70     		strb	r3, [r7, #2]
 603:../Libraries/STM32F10x_StdPeriph_Driver/src/stm32f10x_i2c.c ****   /* Check the parameters */
 604:../Libraries/STM32F10x_StdPeriph_Driver/src/stm32f10x_i2c.c ****   assert_param(IS_I2C_ALL_PERIPH(I2Cx));
 605:../Libraries/STM32F10x_StdPeriph_Driver/src/stm32f10x_i2c.c ****   assert_param(IS_I2C_DIRECTION(I2C_Direction));
 606:../Libraries/STM32F10x_StdPeriph_Driver/src/stm32f10x_i2c.c ****   /* Test on the direction to set/reset the read/write bit */
 607:../Libraries/STM32F10x_StdPeriph_Driver/src/stm32f10x_i2c.c ****   if (I2C_Direction != I2C_Direction_Transmitter)
 21005              		.loc 1 607 0
 21006 0010 BB78     		ldrb	r3, [r7, #2]	@ zero_extendqisi2
 21007 0012 002B     		cmp	r3, #0
 21008 0014 04D0     		beq	.L47
 608:../Libraries/STM32F10x_StdPeriph_Driver/src/stm32f10x_i2c.c ****   {
 609:../Libraries/STM32F10x_StdPeriph_Driver/src/stm32f10x_i2c.c ****     /* Set the address bit0 for read */
 610:../Libraries/STM32F10x_StdPeriph_Driver/src/stm32f10x_i2c.c ****     Address |= OAR1_ADD0_Set;
 21009              		.loc 1 610 0
 21010 0016 FB78     		ldrb	r3, [r7, #3]
 21011 0018 43F00103 		orr	r3, r3, #1
 21012 001c FB70     		strb	r3, [r7, #3]
 21013 001e 03E0     		b	.L48
 21014              	.L47:
 611:../Libraries/STM32F10x_StdPeriph_Driver/src/stm32f10x_i2c.c ****   }
 612:../Libraries/STM32F10x_StdPeriph_Driver/src/stm32f10x_i2c.c ****   else
 613:../Libraries/STM32F10x_StdPeriph_Driver/src/stm32f10x_i2c.c ****   {
 614:../Libraries/STM32F10x_StdPeriph_Driver/src/stm32f10x_i2c.c ****     /* Reset the address bit0 for write */
 615:../Libraries/STM32F10x_StdPeriph_Driver/src/stm32f10x_i2c.c ****     Address &= OAR1_ADD0_Reset;
 21015              		.loc 1 615 0
 21016 0020 FB78     		ldrb	r3, [r7, #3]
 21017 0022 23F00103 		bic	r3, r3, #1
 21018 0026 FB70     		strb	r3, [r7, #3]
 21019              	.L48:
 616:../Libraries/STM32F10x_StdPeriph_Driver/src/stm32f10x_i2c.c ****   }
 617:../Libraries/STM32F10x_StdPeriph_Driver/src/stm32f10x_i2c.c ****   /* Send the address */
 618:../Libraries/STM32F10x_StdPeriph_Driver/src/stm32f10x_i2c.c ****   I2Cx->DR = Address;
 21020              		.loc 1 618 0
 21021 0028 FB78     		ldrb	r3, [r7, #3]	@ zero_extendqisi2
 21022 002a 9AB2     		uxth	r2, r3
 21023 002c 7B68     		ldr	r3, [r7, #4]
 21024 002e 1A82     		strh	r2, [r3, #16]	@ movhi
 619:../Libraries/STM32F10x_StdPeriph_Driver/src/stm32f10x_i2c.c **** }
 21025              		.loc 1 619 0
 21026 0030 07F10C07 		add	r7, r7, #12
 21027 0034 BD46     		mov	sp, r7
 21028 0036 80BC     		pop	{r7}
 21029 0038 7047     		bx	lr
 21030              		.cfi_endproc
 21031              	.LFE44:
 21033 003a 00BF     		.section	.text.I2C_ReadRegister,"ax",%progbits
 21034              		.align	2
 21035              		.global	I2C_ReadRegister
 21036              		.thumb
 21037              		.thumb_func
 21039              	I2C_ReadRegister:
 21040              	.LFB45:
 620:../Libraries/STM32F10x_StdPeriph_Driver/src/stm32f10x_i2c.c **** 
 621:../Libraries/STM32F10x_StdPeriph_Driver/src/stm32f10x_i2c.c **** /**
 622:../Libraries/STM32F10x_StdPeriph_Driver/src/stm32f10x_i2c.c ****   * @brief  Reads the specified I2C register and returns its value.
 623:../Libraries/STM32F10x_StdPeriph_Driver/src/stm32f10x_i2c.c ****   * @param  I2C_Register: specifies the register to read.
 624:../Libraries/STM32F10x_StdPeriph_Driver/src/stm32f10x_i2c.c ****   *   This parameter can be one of the following values:
 625:../Libraries/STM32F10x_StdPeriph_Driver/src/stm32f10x_i2c.c ****   *     @arg I2C_Register_CR1:  CR1 register.
 626:../Libraries/STM32F10x_StdPeriph_Driver/src/stm32f10x_i2c.c ****   *     @arg I2C_Register_CR2:   CR2 register.
 627:../Libraries/STM32F10x_StdPeriph_Driver/src/stm32f10x_i2c.c ****   *     @arg I2C_Register_OAR1:  OAR1 register.
 628:../Libraries/STM32F10x_StdPeriph_Driver/src/stm32f10x_i2c.c ****   *     @arg I2C_Register_OAR2:  OAR2 register.
 629:../Libraries/STM32F10x_StdPeriph_Driver/src/stm32f10x_i2c.c ****   *     @arg I2C_Register_DR:    DR register.
 630:../Libraries/STM32F10x_StdPeriph_Driver/src/stm32f10x_i2c.c ****   *     @arg I2C_Register_SR1:   SR1 register.
 631:../Libraries/STM32F10x_StdPeriph_Driver/src/stm32f10x_i2c.c ****   *     @arg I2C_Register_SR2:   SR2 register.
 632:../Libraries/STM32F10x_StdPeriph_Driver/src/stm32f10x_i2c.c ****   *     @arg I2C_Register_CCR:   CCR register.
 633:../Libraries/STM32F10x_StdPeriph_Driver/src/stm32f10x_i2c.c ****   *     @arg I2C_Register_TRISE: TRISE register.
 634:../Libraries/STM32F10x_StdPeriph_Driver/src/stm32f10x_i2c.c ****   * @retval The value of the read register.
 635:../Libraries/STM32F10x_StdPeriph_Driver/src/stm32f10x_i2c.c ****   */
 636:../Libraries/STM32F10x_StdPeriph_Driver/src/stm32f10x_i2c.c **** uint16_t I2C_ReadRegister(I2C_TypeDef* I2Cx, uint8_t I2C_Register)
 637:../Libraries/STM32F10x_StdPeriph_Driver/src/stm32f10x_i2c.c **** {
 21041              		.loc 1 637 0
 21042              		.cfi_startproc
 21043              		@ args = 0, pretend = 0, frame = 16
 21044              		@ frame_needed = 1, uses_anonymous_args = 0
 21045              		@ link register save eliminated.
 21046 0000 80B4     		push	{r7}
 21047              	.LCFI48:
 21048              		.cfi_def_cfa_offset 4
 21049 0002 85B0     		sub	sp, sp, #20
 21050              	.LCFI49:
 21051              		.cfi_def_cfa_offset 24
 21052 0004 00AF     		add	r7, sp, #0
 21053              		.cfi_offset 7, -4
 21054              	.LCFI50:
 21055              		.cfi_def_cfa_register 7
 21056 0006 7860     		str	r0, [r7, #4]
 21057 0008 0B46     		mov	r3, r1
 21058 000a FB70     		strb	r3, [r7, #3]
 638:../Libraries/STM32F10x_StdPeriph_Driver/src/stm32f10x_i2c.c ****   __IO uint32_t tmp = 0;
 21059              		.loc 1 638 0
 21060 000c 4FF00003 		mov	r3, #0
 21061 0010 FB60     		str	r3, [r7, #12]
 639:../Libraries/STM32F10x_StdPeriph_Driver/src/stm32f10x_i2c.c **** 
 640:../Libraries/STM32F10x_StdPeriph_Driver/src/stm32f10x_i2c.c ****   /* Check the parameters */
 641:../Libraries/STM32F10x_StdPeriph_Driver/src/stm32f10x_i2c.c ****   assert_param(IS_I2C_ALL_PERIPH(I2Cx));
 642:../Libraries/STM32F10x_StdPeriph_Driver/src/stm32f10x_i2c.c ****   assert_param(IS_I2C_REGISTER(I2C_Register));
 643:../Libraries/STM32F10x_StdPeriph_Driver/src/stm32f10x_i2c.c **** 
 644:../Libraries/STM32F10x_StdPeriph_Driver/src/stm32f10x_i2c.c ****   tmp = (uint32_t) I2Cx;
 21062              		.loc 1 644 0
 21063 0012 7B68     		ldr	r3, [r7, #4]
 21064 0014 FB60     		str	r3, [r7, #12]
 645:../Libraries/STM32F10x_StdPeriph_Driver/src/stm32f10x_i2c.c ****   tmp += I2C_Register;
 21065              		.loc 1 645 0
 21066 0016 FA78     		ldrb	r2, [r7, #3]	@ zero_extendqisi2
 21067 0018 FB68     		ldr	r3, [r7, #12]
 21068 001a D318     		adds	r3, r2, r3
 21069 001c FB60     		str	r3, [r7, #12]
 646:../Libraries/STM32F10x_StdPeriph_Driver/src/stm32f10x_i2c.c **** 
 647:../Libraries/STM32F10x_StdPeriph_Driver/src/stm32f10x_i2c.c ****   /* Return the selected register value */
 648:../Libraries/STM32F10x_StdPeriph_Driver/src/stm32f10x_i2c.c ****   return (*(__IO uint16_t *) tmp);
 21070              		.loc 1 648 0
 21071 001e FB68     		ldr	r3, [r7, #12]
 21072 0020 1B88     		ldrh	r3, [r3, #0]	@ movhi
 21073 0022 9BB2     		uxth	r3, r3
 649:../Libraries/STM32F10x_StdPeriph_Driver/src/stm32f10x_i2c.c **** }
 21074              		.loc 1 649 0
 21075 0024 1846     		mov	r0, r3
 21076 0026 07F11407 		add	r7, r7, #20
 21077 002a BD46     		mov	sp, r7
 21078 002c 80BC     		pop	{r7}
 21079 002e 7047     		bx	lr
 21080              		.cfi_endproc
 21081              	.LFE45:
 21083              		.section	.text.I2C_SoftwareResetCmd,"ax",%progbits
 21084              		.align	2
 21085              		.global	I2C_SoftwareResetCmd
 21086              		.thumb
 21087              		.thumb_func
 21089              	I2C_SoftwareResetCmd:
 21090              	.LFB46:
 650:../Libraries/STM32F10x_StdPeriph_Driver/src/stm32f10x_i2c.c **** 
 651:../Libraries/STM32F10x_StdPeriph_Driver/src/stm32f10x_i2c.c **** /**
 652:../Libraries/STM32F10x_StdPeriph_Driver/src/stm32f10x_i2c.c ****   * @brief  Enables or disables the specified I2C software reset.
 653:../Libraries/STM32F10x_StdPeriph_Driver/src/stm32f10x_i2c.c ****   * @param  I2Cx: where x can be 1 or 2 to select the I2C peripheral.
 654:../Libraries/STM32F10x_StdPeriph_Driver/src/stm32f10x_i2c.c ****   * @param  NewState: new state of the I2C software reset.
 655:../Libraries/STM32F10x_StdPeriph_Driver/src/stm32f10x_i2c.c ****   *   This parameter can be: ENABLE or DISABLE.
 656:../Libraries/STM32F10x_StdPeriph_Driver/src/stm32f10x_i2c.c ****   * @retval None
 657:../Libraries/STM32F10x_StdPeriph_Driver/src/stm32f10x_i2c.c ****   */
 658:../Libraries/STM32F10x_StdPeriph_Driver/src/stm32f10x_i2c.c **** void I2C_SoftwareResetCmd(I2C_TypeDef* I2Cx, FunctionalState NewState)
 659:../Libraries/STM32F10x_StdPeriph_Driver/src/stm32f10x_i2c.c **** {
 21091              		.loc 1 659 0
 21092              		.cfi_startproc
 21093              		@ args = 0, pretend = 0, frame = 8
 21094              		@ frame_needed = 1, uses_anonymous_args = 0
 21095              		@ link register save eliminated.
 21096 0000 80B4     		push	{r7}
 21097              	.LCFI51:
 21098              		.cfi_def_cfa_offset 4
 21099 0002 83B0     		sub	sp, sp, #12
 21100              	.LCFI52:
 21101              		.cfi_def_cfa_offset 16
 21102 0004 00AF     		add	r7, sp, #0
 21103              		.cfi_offset 7, -4
 21104              	.LCFI53:
 21105              		.cfi_def_cfa_register 7
 21106 0006 7860     		str	r0, [r7, #4]
 21107 0008 0B46     		mov	r3, r1
 21108 000a FB70     		strb	r3, [r7, #3]
 660:../Libraries/STM32F10x_StdPeriph_Driver/src/stm32f10x_i2c.c ****   /* Check the parameters */
 661:../Libraries/STM32F10x_StdPeriph_Driver/src/stm32f10x_i2c.c ****   assert_param(IS_I2C_ALL_PERIPH(I2Cx));
 662:../Libraries/STM32F10x_StdPeriph_Driver/src/stm32f10x_i2c.c ****   assert_param(IS_FUNCTIONAL_STATE(NewState));
 663:../Libraries/STM32F10x_StdPeriph_Driver/src/stm32f10x_i2c.c ****   if (NewState != DISABLE)
 21109              		.loc 1 663 0
 21110 000c FB78     		ldrb	r3, [r7, #3]	@ zero_extendqisi2
 21111 000e 002B     		cmp	r3, #0
 21112 0010 0AD0     		beq	.L51
 664:../Libraries/STM32F10x_StdPeriph_Driver/src/stm32f10x_i2c.c ****   {
 665:../Libraries/STM32F10x_StdPeriph_Driver/src/stm32f10x_i2c.c ****     /* Peripheral under reset */
 666:../Libraries/STM32F10x_StdPeriph_Driver/src/stm32f10x_i2c.c ****     I2Cx->CR1 |= CR1_SWRST_Set;
 21113              		.loc 1 666 0
 21114 0012 7B68     		ldr	r3, [r7, #4]
 21115 0014 1B88     		ldrh	r3, [r3, #0]	@ movhi
 21116 0016 9BB2     		uxth	r3, r3
 21117 0018 6FEA4343 		mvn	r3, r3, lsl #17
 21118 001c 6FEA5343 		mvn	r3, r3, lsr #17
 21119 0020 9AB2     		uxth	r2, r3
 21120 0022 7B68     		ldr	r3, [r7, #4]
 21121 0024 1A80     		strh	r2, [r3, #0]	@ movhi
 21122 0026 09E0     		b	.L50
 21123              	.L51:
 667:../Libraries/STM32F10x_StdPeriph_Driver/src/stm32f10x_i2c.c ****   }
 668:../Libraries/STM32F10x_StdPeriph_Driver/src/stm32f10x_i2c.c ****   else
 669:../Libraries/STM32F10x_StdPeriph_Driver/src/stm32f10x_i2c.c ****   {
 670:../Libraries/STM32F10x_StdPeriph_Driver/src/stm32f10x_i2c.c ****     /* Peripheral not under reset */
 671:../Libraries/STM32F10x_StdPeriph_Driver/src/stm32f10x_i2c.c ****     I2Cx->CR1 &= CR1_SWRST_Reset;
 21124              		.loc 1 671 0
 21125 0028 7B68     		ldr	r3, [r7, #4]
 21126 002a 1B88     		ldrh	r3, [r3, #0]	@ movhi
 21127 002c 9BB2     		uxth	r3, r3
 21128 002e 4FEA4343 		lsl	r3, r3, #17
 21129 0032 4FEA5343 		lsr	r3, r3, #17
 21130 0036 9AB2     		uxth	r2, r3
 21131 0038 7B68     		ldr	r3, [r7, #4]
 21132 003a 1A80     		strh	r2, [r3, #0]	@ movhi
 21133              	.L50:
 672:../Libraries/STM32F10x_StdPeriph_Driver/src/stm32f10x_i2c.c ****   }
 673:../Libraries/STM32F10x_StdPeriph_Driver/src/stm32f10x_i2c.c **** }
 21134              		.loc 1 673 0
 21135 003c 07F10C07 		add	r7, r7, #12
 21136 0040 BD46     		mov	sp, r7
 21137 0042 80BC     		pop	{r7}
 21138 0044 7047     		bx	lr
 21139              		.cfi_endproc
 21140              	.LFE46:
 21142 0046 00BF     		.section	.text.I2C_NACKPositionConfig,"ax",%progbits
 21143              		.align	2
 21144              		.global	I2C_NACKPositionConfig
 21145              		.thumb
 21146              		.thumb_func
 21148              	I2C_NACKPositionConfig:
 21149              	.LFB47:
 674:../Libraries/STM32F10x_StdPeriph_Driver/src/stm32f10x_i2c.c **** 
 675:../Libraries/STM32F10x_StdPeriph_Driver/src/stm32f10x_i2c.c **** /**
 676:../Libraries/STM32F10x_StdPeriph_Driver/src/stm32f10x_i2c.c ****   * @brief  Selects the specified I2C NACK position in master receiver mode.
 677:../Libraries/STM32F10x_StdPeriph_Driver/src/stm32f10x_i2c.c ****   *         This function is useful in I2C Master Receiver mode when the number
 678:../Libraries/STM32F10x_StdPeriph_Driver/src/stm32f10x_i2c.c ****   *         of data to be received is equal to 2. In this case, this function 
 679:../Libraries/STM32F10x_StdPeriph_Driver/src/stm32f10x_i2c.c ****   *         should be called (with parameter I2C_NACKPosition_Next) before data 
 680:../Libraries/STM32F10x_StdPeriph_Driver/src/stm32f10x_i2c.c ****   *         reception starts,as described in the 2-byte reception procedure 
 681:../Libraries/STM32F10x_StdPeriph_Driver/src/stm32f10x_i2c.c ****   *         recommended in Reference Manual in Section: Master receiver.                
 682:../Libraries/STM32F10x_StdPeriph_Driver/src/stm32f10x_i2c.c ****   * @param  I2Cx: where x can be 1 or 2 to select the I2C peripheral.
 683:../Libraries/STM32F10x_StdPeriph_Driver/src/stm32f10x_i2c.c ****   * @param  I2C_NACKPosition: specifies the NACK position. 
 684:../Libraries/STM32F10x_StdPeriph_Driver/src/stm32f10x_i2c.c ****   *   This parameter can be one of the following values:
 685:../Libraries/STM32F10x_StdPeriph_Driver/src/stm32f10x_i2c.c ****   *     @arg I2C_NACKPosition_Next: indicates that the next byte will be the last
 686:../Libraries/STM32F10x_StdPeriph_Driver/src/stm32f10x_i2c.c ****   *          received byte.  
 687:../Libraries/STM32F10x_StdPeriph_Driver/src/stm32f10x_i2c.c ****   *     @arg I2C_NACKPosition_Current: indicates that current byte is the last 
 688:../Libraries/STM32F10x_StdPeriph_Driver/src/stm32f10x_i2c.c ****   *          received byte.
 689:../Libraries/STM32F10x_StdPeriph_Driver/src/stm32f10x_i2c.c ****   *            
 690:../Libraries/STM32F10x_StdPeriph_Driver/src/stm32f10x_i2c.c ****   * @note    This function configures the same bit (POS) as I2C_PECPositionConfig() 
 691:../Libraries/STM32F10x_StdPeriph_Driver/src/stm32f10x_i2c.c ****   *          but is intended to be used in I2C mode while I2C_PECPositionConfig() 
 692:../Libraries/STM32F10x_StdPeriph_Driver/src/stm32f10x_i2c.c ****   *          is intended to used in SMBUS mode. 
 693:../Libraries/STM32F10x_StdPeriph_Driver/src/stm32f10x_i2c.c ****   *            
 694:../Libraries/STM32F10x_StdPeriph_Driver/src/stm32f10x_i2c.c ****   * @retval None
 695:../Libraries/STM32F10x_StdPeriph_Driver/src/stm32f10x_i2c.c ****   */
 696:../Libraries/STM32F10x_StdPeriph_Driver/src/stm32f10x_i2c.c **** void I2C_NACKPositionConfig(I2C_TypeDef* I2Cx, uint16_t I2C_NACKPosition)
 697:../Libraries/STM32F10x_StdPeriph_Driver/src/stm32f10x_i2c.c **** {
 21150              		.loc 1 697 0
 21151              		.cfi_startproc
 21152              		@ args = 0, pretend = 0, frame = 8
 21153              		@ frame_needed = 1, uses_anonymous_args = 0
 21154              		@ link register save eliminated.
 21155 0000 80B4     		push	{r7}
 21156              	.LCFI54:
 21157              		.cfi_def_cfa_offset 4
 21158 0002 83B0     		sub	sp, sp, #12
 21159              	.LCFI55:
 21160              		.cfi_def_cfa_offset 16
 21161 0004 00AF     		add	r7, sp, #0
 21162              		.cfi_offset 7, -4
 21163              	.LCFI56:
 21164              		.cfi_def_cfa_register 7
 21165 0006 7860     		str	r0, [r7, #4]
 21166 0008 0B46     		mov	r3, r1
 21167 000a 7B80     		strh	r3, [r7, #2]	@ movhi
 698:../Libraries/STM32F10x_StdPeriph_Driver/src/stm32f10x_i2c.c ****   /* Check the parameters */
 699:../Libraries/STM32F10x_StdPeriph_Driver/src/stm32f10x_i2c.c ****   assert_param(IS_I2C_ALL_PERIPH(I2Cx));
 700:../Libraries/STM32F10x_StdPeriph_Driver/src/stm32f10x_i2c.c ****   assert_param(IS_I2C_NACK_POSITION(I2C_NACKPosition));
 701:../Libraries/STM32F10x_StdPeriph_Driver/src/stm32f10x_i2c.c ****   
 702:../Libraries/STM32F10x_StdPeriph_Driver/src/stm32f10x_i2c.c ****   /* Check the input parameter */
 703:../Libraries/STM32F10x_StdPeriph_Driver/src/stm32f10x_i2c.c ****   if (I2C_NACKPosition == I2C_NACKPosition_Next)
 21168              		.loc 1 703 0
 21169 000c 7B88     		ldrh	r3, [r7, #2]
 21170 000e B3F5006F 		cmp	r3, #2048
 21171 0012 08D1     		bne	.L54
 704:../Libraries/STM32F10x_StdPeriph_Driver/src/stm32f10x_i2c.c ****   {
 705:../Libraries/STM32F10x_StdPeriph_Driver/src/stm32f10x_i2c.c ****     /* Next byte in shift register is the last received byte */
 706:../Libraries/STM32F10x_StdPeriph_Driver/src/stm32f10x_i2c.c ****     I2Cx->CR1 |= I2C_NACKPosition_Next;
 21172              		.loc 1 706 0
 21173 0014 7B68     		ldr	r3, [r7, #4]
 21174 0016 1B88     		ldrh	r3, [r3, #0]	@ movhi
 21175 0018 9BB2     		uxth	r3, r3
 21176 001a 43F40063 		orr	r3, r3, #2048
 21177 001e 9AB2     		uxth	r2, r3
 21178 0020 7B68     		ldr	r3, [r7, #4]
 21179 0022 1A80     		strh	r2, [r3, #0]	@ movhi
 21180 0024 07E0     		b	.L53
 21181              	.L54:
 707:../Libraries/STM32F10x_StdPeriph_Driver/src/stm32f10x_i2c.c ****   }
 708:../Libraries/STM32F10x_StdPeriph_Driver/src/stm32f10x_i2c.c ****   else
 709:../Libraries/STM32F10x_StdPeriph_Driver/src/stm32f10x_i2c.c ****   {
 710:../Libraries/STM32F10x_StdPeriph_Driver/src/stm32f10x_i2c.c ****     /* Current byte in shift register is the last received byte */
 711:../Libraries/STM32F10x_StdPeriph_Driver/src/stm32f10x_i2c.c ****     I2Cx->CR1 &= I2C_NACKPosition_Current;
 21182              		.loc 1 711 0
 21183 0026 7B68     		ldr	r3, [r7, #4]
 21184 0028 1B88     		ldrh	r3, [r3, #0]	@ movhi
 21185 002a 9BB2     		uxth	r3, r3
 21186 002c 23F40063 		bic	r3, r3, #2048
 21187 0030 9AB2     		uxth	r2, r3
 21188 0032 7B68     		ldr	r3, [r7, #4]
 21189 0034 1A80     		strh	r2, [r3, #0]	@ movhi
 21190              	.L53:
 712:../Libraries/STM32F10x_StdPeriph_Driver/src/stm32f10x_i2c.c ****   }
 713:../Libraries/STM32F10x_StdPeriph_Driver/src/stm32f10x_i2c.c **** }
 21191              		.loc 1 713 0
 21192 0036 07F10C07 		add	r7, r7, #12
 21193 003a BD46     		mov	sp, r7
 21194 003c 80BC     		pop	{r7}
 21195 003e 7047     		bx	lr
 21196              		.cfi_endproc
 21197              	.LFE47:
 21199              		.section	.text.I2C_SMBusAlertConfig,"ax",%progbits
 21200              		.align	2
 21201              		.global	I2C_SMBusAlertConfig
 21202              		.thumb
 21203              		.thumb_func
 21205              	I2C_SMBusAlertConfig:
 21206              	.LFB48:
 714:../Libraries/STM32F10x_StdPeriph_Driver/src/stm32f10x_i2c.c **** 
 715:../Libraries/STM32F10x_StdPeriph_Driver/src/stm32f10x_i2c.c **** /**
 716:../Libraries/STM32F10x_StdPeriph_Driver/src/stm32f10x_i2c.c ****   * @brief  Drives the SMBusAlert pin high or low for the specified I2C.
 717:../Libraries/STM32F10x_StdPeriph_Driver/src/stm32f10x_i2c.c ****   * @param  I2Cx: where x can be 1 or 2 to select the I2C peripheral.
 718:../Libraries/STM32F10x_StdPeriph_Driver/src/stm32f10x_i2c.c ****   * @param  I2C_SMBusAlert: specifies SMBAlert pin level. 
 719:../Libraries/STM32F10x_StdPeriph_Driver/src/stm32f10x_i2c.c ****   *   This parameter can be one of the following values:
 720:../Libraries/STM32F10x_StdPeriph_Driver/src/stm32f10x_i2c.c ****   *     @arg I2C_SMBusAlert_Low: SMBAlert pin driven low
 721:../Libraries/STM32F10x_StdPeriph_Driver/src/stm32f10x_i2c.c ****   *     @arg I2C_SMBusAlert_High: SMBAlert pin driven high
 722:../Libraries/STM32F10x_StdPeriph_Driver/src/stm32f10x_i2c.c ****   * @retval None
 723:../Libraries/STM32F10x_StdPeriph_Driver/src/stm32f10x_i2c.c ****   */
 724:../Libraries/STM32F10x_StdPeriph_Driver/src/stm32f10x_i2c.c **** void I2C_SMBusAlertConfig(I2C_TypeDef* I2Cx, uint16_t I2C_SMBusAlert)
 725:../Libraries/STM32F10x_StdPeriph_Driver/src/stm32f10x_i2c.c **** {
 21207              		.loc 1 725 0
 21208              		.cfi_startproc
 21209              		@ args = 0, pretend = 0, frame = 8
 21210              		@ frame_needed = 1, uses_anonymous_args = 0
 21211              		@ link register save eliminated.
 21212 0000 80B4     		push	{r7}
 21213              	.LCFI57:
 21214              		.cfi_def_cfa_offset 4
 21215 0002 83B0     		sub	sp, sp, #12
 21216              	.LCFI58:
 21217              		.cfi_def_cfa_offset 16
 21218 0004 00AF     		add	r7, sp, #0
 21219              		.cfi_offset 7, -4
 21220              	.LCFI59:
 21221              		.cfi_def_cfa_register 7
 21222 0006 7860     		str	r0, [r7, #4]
 21223 0008 0B46     		mov	r3, r1
 21224 000a 7B80     		strh	r3, [r7, #2]	@ movhi
 726:../Libraries/STM32F10x_StdPeriph_Driver/src/stm32f10x_i2c.c ****   /* Check the parameters */
 727:../Libraries/STM32F10x_StdPeriph_Driver/src/stm32f10x_i2c.c ****   assert_param(IS_I2C_ALL_PERIPH(I2Cx));
 728:../Libraries/STM32F10x_StdPeriph_Driver/src/stm32f10x_i2c.c ****   assert_param(IS_I2C_SMBUS_ALERT(I2C_SMBusAlert));
 729:../Libraries/STM32F10x_StdPeriph_Driver/src/stm32f10x_i2c.c ****   if (I2C_SMBusAlert == I2C_SMBusAlert_Low)
 21225              		.loc 1 729 0
 21226 000c 7B88     		ldrh	r3, [r7, #2]
 21227 000e B3F5005F 		cmp	r3, #8192
 21228 0012 08D1     		bne	.L57
 730:../Libraries/STM32F10x_StdPeriph_Driver/src/stm32f10x_i2c.c ****   {
 731:../Libraries/STM32F10x_StdPeriph_Driver/src/stm32f10x_i2c.c ****     /* Drive the SMBusAlert pin Low */
 732:../Libraries/STM32F10x_StdPeriph_Driver/src/stm32f10x_i2c.c ****     I2Cx->CR1 |= I2C_SMBusAlert_Low;
 21229              		.loc 1 732 0
 21230 0014 7B68     		ldr	r3, [r7, #4]
 21231 0016 1B88     		ldrh	r3, [r3, #0]	@ movhi
 21232 0018 9BB2     		uxth	r3, r3
 21233 001a 43F40053 		orr	r3, r3, #8192
 21234 001e 9AB2     		uxth	r2, r3
 21235 0020 7B68     		ldr	r3, [r7, #4]
 21236 0022 1A80     		strh	r2, [r3, #0]	@ movhi
 21237 0024 07E0     		b	.L56
 21238              	.L57:
 733:../Libraries/STM32F10x_StdPeriph_Driver/src/stm32f10x_i2c.c ****   }
 734:../Libraries/STM32F10x_StdPeriph_Driver/src/stm32f10x_i2c.c ****   else
 735:../Libraries/STM32F10x_StdPeriph_Driver/src/stm32f10x_i2c.c ****   {
 736:../Libraries/STM32F10x_StdPeriph_Driver/src/stm32f10x_i2c.c ****     /* Drive the SMBusAlert pin High  */
 737:../Libraries/STM32F10x_StdPeriph_Driver/src/stm32f10x_i2c.c ****     I2Cx->CR1 &= I2C_SMBusAlert_High;
 21239              		.loc 1 737 0
 21240 0026 7B68     		ldr	r3, [r7, #4]
 21241 0028 1B88     		ldrh	r3, [r3, #0]	@ movhi
 21242 002a 9BB2     		uxth	r3, r3
 21243 002c 23F40053 		bic	r3, r3, #8192
 21244 0030 9AB2     		uxth	r2, r3
 21245 0032 7B68     		ldr	r3, [r7, #4]
 21246 0034 1A80     		strh	r2, [r3, #0]	@ movhi
 21247              	.L56:
 738:../Libraries/STM32F10x_StdPeriph_Driver/src/stm32f10x_i2c.c ****   }
 739:../Libraries/STM32F10x_StdPeriph_Driver/src/stm32f10x_i2c.c **** }
 21248              		.loc 1 739 0
 21249 0036 07F10C07 		add	r7, r7, #12
 21250 003a BD46     		mov	sp, r7
 21251 003c 80BC     		pop	{r7}
 21252 003e 7047     		bx	lr
 21253              		.cfi_endproc
 21254              	.LFE48:
 21256              		.section	.text.I2C_TransmitPEC,"ax",%progbits
 21257              		.align	2
 21258              		.global	I2C_TransmitPEC
 21259              		.thumb
 21260              		.thumb_func
 21262              	I2C_TransmitPEC:
 21263              	.LFB49:
 740:../Libraries/STM32F10x_StdPeriph_Driver/src/stm32f10x_i2c.c **** 
 741:../Libraries/STM32F10x_StdPeriph_Driver/src/stm32f10x_i2c.c **** /**
 742:../Libraries/STM32F10x_StdPeriph_Driver/src/stm32f10x_i2c.c ****   * @brief  Enables or disables the specified I2C PEC transfer.
 743:../Libraries/STM32F10x_StdPeriph_Driver/src/stm32f10x_i2c.c ****   * @param  I2Cx: where x can be 1 or 2 to select the I2C peripheral.
 744:../Libraries/STM32F10x_StdPeriph_Driver/src/stm32f10x_i2c.c ****   * @param  NewState: new state of the I2C PEC transmission.
 745:../Libraries/STM32F10x_StdPeriph_Driver/src/stm32f10x_i2c.c ****   *   This parameter can be: ENABLE or DISABLE.
 746:../Libraries/STM32F10x_StdPeriph_Driver/src/stm32f10x_i2c.c ****   * @retval None
 747:../Libraries/STM32F10x_StdPeriph_Driver/src/stm32f10x_i2c.c ****   */
 748:../Libraries/STM32F10x_StdPeriph_Driver/src/stm32f10x_i2c.c **** void I2C_TransmitPEC(I2C_TypeDef* I2Cx, FunctionalState NewState)
 749:../Libraries/STM32F10x_StdPeriph_Driver/src/stm32f10x_i2c.c **** {
 21264              		.loc 1 749 0
 21265              		.cfi_startproc
 21266              		@ args = 0, pretend = 0, frame = 8
 21267              		@ frame_needed = 1, uses_anonymous_args = 0
 21268              		@ link register save eliminated.
 21269 0000 80B4     		push	{r7}
 21270              	.LCFI60:
 21271              		.cfi_def_cfa_offset 4
 21272 0002 83B0     		sub	sp, sp, #12
 21273              	.LCFI61:
 21274              		.cfi_def_cfa_offset 16
 21275 0004 00AF     		add	r7, sp, #0
 21276              		.cfi_offset 7, -4
 21277              	.LCFI62:
 21278              		.cfi_def_cfa_register 7
 21279 0006 7860     		str	r0, [r7, #4]
 21280 0008 0B46     		mov	r3, r1
 21281 000a FB70     		strb	r3, [r7, #3]
 750:../Libraries/STM32F10x_StdPeriph_Driver/src/stm32f10x_i2c.c ****   /* Check the parameters */
 751:../Libraries/STM32F10x_StdPeriph_Driver/src/stm32f10x_i2c.c ****   assert_param(IS_I2C_ALL_PERIPH(I2Cx));
 752:../Libraries/STM32F10x_StdPeriph_Driver/src/stm32f10x_i2c.c ****   assert_param(IS_FUNCTIONAL_STATE(NewState));
 753:../Libraries/STM32F10x_StdPeriph_Driver/src/stm32f10x_i2c.c ****   if (NewState != DISABLE)
 21282              		.loc 1 753 0
 21283 000c FB78     		ldrb	r3, [r7, #3]	@ zero_extendqisi2
 21284 000e 002B     		cmp	r3, #0
 21285 0010 08D0     		beq	.L60
 754:../Libraries/STM32F10x_StdPeriph_Driver/src/stm32f10x_i2c.c ****   {
 755:../Libraries/STM32F10x_StdPeriph_Driver/src/stm32f10x_i2c.c ****     /* Enable the selected I2C PEC transmission */
 756:../Libraries/STM32F10x_StdPeriph_Driver/src/stm32f10x_i2c.c ****     I2Cx->CR1 |= CR1_PEC_Set;
 21286              		.loc 1 756 0
 21287 0012 7B68     		ldr	r3, [r7, #4]
 21288 0014 1B88     		ldrh	r3, [r3, #0]	@ movhi
 21289 0016 9BB2     		uxth	r3, r3
 21290 0018 43F48053 		orr	r3, r3, #4096
 21291 001c 9AB2     		uxth	r2, r3
 21292 001e 7B68     		ldr	r3, [r7, #4]
 21293 0020 1A80     		strh	r2, [r3, #0]	@ movhi
 21294 0022 07E0     		b	.L59
 21295              	.L60:
 757:../Libraries/STM32F10x_StdPeriph_Driver/src/stm32f10x_i2c.c ****   }
 758:../Libraries/STM32F10x_StdPeriph_Driver/src/stm32f10x_i2c.c ****   else
 759:../Libraries/STM32F10x_StdPeriph_Driver/src/stm32f10x_i2c.c ****   {
 760:../Libraries/STM32F10x_StdPeriph_Driver/src/stm32f10x_i2c.c ****     /* Disable the selected I2C PEC transmission */
 761:../Libraries/STM32F10x_StdPeriph_Driver/src/stm32f10x_i2c.c ****     I2Cx->CR1 &= CR1_PEC_Reset;
 21296              		.loc 1 761 0
 21297 0024 7B68     		ldr	r3, [r7, #4]
 21298 0026 1B88     		ldrh	r3, [r3, #0]	@ movhi
 21299 0028 9BB2     		uxth	r3, r3
 21300 002a 23F48053 		bic	r3, r3, #4096
 21301 002e 9AB2     		uxth	r2, r3
 21302 0030 7B68     		ldr	r3, [r7, #4]
 21303 0032 1A80     		strh	r2, [r3, #0]	@ movhi
 21304              	.L59:
 762:../Libraries/STM32F10x_StdPeriph_Driver/src/stm32f10x_i2c.c ****   }
 763:../Libraries/STM32F10x_StdPeriph_Driver/src/stm32f10x_i2c.c **** }
 21305              		.loc 1 763 0
 21306 0034 07F10C07 		add	r7, r7, #12
 21307 0038 BD46     		mov	sp, r7
 21308 003a 80BC     		pop	{r7}
 21309 003c 7047     		bx	lr
 21310              		.cfi_endproc
 21311              	.LFE49:
 21313 003e 00BF     		.section	.text.I2C_PECPositionConfig,"ax",%progbits
 21314              		.align	2
 21315              		.global	I2C_PECPositionConfig
 21316              		.thumb
 21317              		.thumb_func
 21319              	I2C_PECPositionConfig:
 21320              	.LFB50:
 764:../Libraries/STM32F10x_StdPeriph_Driver/src/stm32f10x_i2c.c **** 
 765:../Libraries/STM32F10x_StdPeriph_Driver/src/stm32f10x_i2c.c **** /**
 766:../Libraries/STM32F10x_StdPeriph_Driver/src/stm32f10x_i2c.c ****   * @brief  Selects the specified I2C PEC position.
 767:../Libraries/STM32F10x_StdPeriph_Driver/src/stm32f10x_i2c.c ****   * @param  I2Cx: where x can be 1 or 2 to select the I2C peripheral.
 768:../Libraries/STM32F10x_StdPeriph_Driver/src/stm32f10x_i2c.c ****   * @param  I2C_PECPosition: specifies the PEC position. 
 769:../Libraries/STM32F10x_StdPeriph_Driver/src/stm32f10x_i2c.c ****   *   This parameter can be one of the following values:
 770:../Libraries/STM32F10x_StdPeriph_Driver/src/stm32f10x_i2c.c ****   *     @arg I2C_PECPosition_Next: indicates that the next byte is PEC
 771:../Libraries/STM32F10x_StdPeriph_Driver/src/stm32f10x_i2c.c ****   *     @arg I2C_PECPosition_Current: indicates that current byte is PEC
 772:../Libraries/STM32F10x_StdPeriph_Driver/src/stm32f10x_i2c.c ****   *       
 773:../Libraries/STM32F10x_StdPeriph_Driver/src/stm32f10x_i2c.c ****   * @note    This function configures the same bit (POS) as I2C_NACKPositionConfig()
 774:../Libraries/STM32F10x_StdPeriph_Driver/src/stm32f10x_i2c.c ****   *          but is intended to be used in SMBUS mode while I2C_NACKPositionConfig() 
 775:../Libraries/STM32F10x_StdPeriph_Driver/src/stm32f10x_i2c.c ****   *          is intended to used in I2C mode.
 776:../Libraries/STM32F10x_StdPeriph_Driver/src/stm32f10x_i2c.c ****   *               
 777:../Libraries/STM32F10x_StdPeriph_Driver/src/stm32f10x_i2c.c ****   * @retval None
 778:../Libraries/STM32F10x_StdPeriph_Driver/src/stm32f10x_i2c.c ****   */
 779:../Libraries/STM32F10x_StdPeriph_Driver/src/stm32f10x_i2c.c **** void I2C_PECPositionConfig(I2C_TypeDef* I2Cx, uint16_t I2C_PECPosition)
 780:../Libraries/STM32F10x_StdPeriph_Driver/src/stm32f10x_i2c.c **** {
 21321              		.loc 1 780 0
 21322              		.cfi_startproc
 21323              		@ args = 0, pretend = 0, frame = 8
 21324              		@ frame_needed = 1, uses_anonymous_args = 0
 21325              		@ link register save eliminated.
 21326 0000 80B4     		push	{r7}
 21327              	.LCFI63:
 21328              		.cfi_def_cfa_offset 4
 21329 0002 83B0     		sub	sp, sp, #12
 21330              	.LCFI64:
 21331              		.cfi_def_cfa_offset 16
 21332 0004 00AF     		add	r7, sp, #0
 21333              		.cfi_offset 7, -4
 21334              	.LCFI65:
 21335              		.cfi_def_cfa_register 7
 21336 0006 7860     		str	r0, [r7, #4]
 21337 0008 0B46     		mov	r3, r1
 21338 000a 7B80     		strh	r3, [r7, #2]	@ movhi
 781:../Libraries/STM32F10x_StdPeriph_Driver/src/stm32f10x_i2c.c ****   /* Check the parameters */
 782:../Libraries/STM32F10x_StdPeriph_Driver/src/stm32f10x_i2c.c ****   assert_param(IS_I2C_ALL_PERIPH(I2Cx));
 783:../Libraries/STM32F10x_StdPeriph_Driver/src/stm32f10x_i2c.c ****   assert_param(IS_I2C_PEC_POSITION(I2C_PECPosition));
 784:../Libraries/STM32F10x_StdPeriph_Driver/src/stm32f10x_i2c.c ****   if (I2C_PECPosition == I2C_PECPosition_Next)
 21339              		.loc 1 784 0
 21340 000c 7B88     		ldrh	r3, [r7, #2]
 21341 000e B3F5006F 		cmp	r3, #2048
 21342 0012 08D1     		bne	.L63
 785:../Libraries/STM32F10x_StdPeriph_Driver/src/stm32f10x_i2c.c ****   {
 786:../Libraries/STM32F10x_StdPeriph_Driver/src/stm32f10x_i2c.c ****     /* Next byte in shift register is PEC */
 787:../Libraries/STM32F10x_StdPeriph_Driver/src/stm32f10x_i2c.c ****     I2Cx->CR1 |= I2C_PECPosition_Next;
 21343              		.loc 1 787 0
 21344 0014 7B68     		ldr	r3, [r7, #4]
 21345 0016 1B88     		ldrh	r3, [r3, #0]	@ movhi
 21346 0018 9BB2     		uxth	r3, r3
 21347 001a 43F40063 		orr	r3, r3, #2048
 21348 001e 9AB2     		uxth	r2, r3
 21349 0020 7B68     		ldr	r3, [r7, #4]
 21350 0022 1A80     		strh	r2, [r3, #0]	@ movhi
 21351 0024 07E0     		b	.L62
 21352              	.L63:
 788:../Libraries/STM32F10x_StdPeriph_Driver/src/stm32f10x_i2c.c ****   }
 789:../Libraries/STM32F10x_StdPeriph_Driver/src/stm32f10x_i2c.c ****   else
 790:../Libraries/STM32F10x_StdPeriph_Driver/src/stm32f10x_i2c.c ****   {
 791:../Libraries/STM32F10x_StdPeriph_Driver/src/stm32f10x_i2c.c ****     /* Current byte in shift register is PEC */
 792:../Libraries/STM32F10x_StdPeriph_Driver/src/stm32f10x_i2c.c ****     I2Cx->CR1 &= I2C_PECPosition_Current;
 21353              		.loc 1 792 0
 21354 0026 7B68     		ldr	r3, [r7, #4]
 21355 0028 1B88     		ldrh	r3, [r3, #0]	@ movhi
 21356 002a 9BB2     		uxth	r3, r3
 21357 002c 23F40063 		bic	r3, r3, #2048
 21358 0030 9AB2     		uxth	r2, r3
 21359 0032 7B68     		ldr	r3, [r7, #4]
 21360 0034 1A80     		strh	r2, [r3, #0]	@ movhi
 21361              	.L62:
 793:../Libraries/STM32F10x_StdPeriph_Driver/src/stm32f10x_i2c.c ****   }
 794:../Libraries/STM32F10x_StdPeriph_Driver/src/stm32f10x_i2c.c **** }
 21362              		.loc 1 794 0
 21363 0036 07F10C07 		add	r7, r7, #12
 21364 003a BD46     		mov	sp, r7
 21365 003c 80BC     		pop	{r7}
 21366 003e 7047     		bx	lr
 21367              		.cfi_endproc
 21368              	.LFE50:
 21370              		.section	.text.I2C_CalculatePEC,"ax",%progbits
 21371              		.align	2
 21372              		.global	I2C_CalculatePEC
 21373              		.thumb
 21374              		.thumb_func
 21376              	I2C_CalculatePEC:
 21377              	.LFB51:
 795:../Libraries/STM32F10x_StdPeriph_Driver/src/stm32f10x_i2c.c **** 
 796:../Libraries/STM32F10x_StdPeriph_Driver/src/stm32f10x_i2c.c **** /**
 797:../Libraries/STM32F10x_StdPeriph_Driver/src/stm32f10x_i2c.c ****   * @brief  Enables or disables the PEC value calculation of the transferred bytes.
 798:../Libraries/STM32F10x_StdPeriph_Driver/src/stm32f10x_i2c.c ****   * @param  I2Cx: where x can be 1 or 2 to select the I2C peripheral.
 799:../Libraries/STM32F10x_StdPeriph_Driver/src/stm32f10x_i2c.c ****   * @param  NewState: new state of the I2Cx PEC value calculation.
 800:../Libraries/STM32F10x_StdPeriph_Driver/src/stm32f10x_i2c.c ****   *   This parameter can be: ENABLE or DISABLE.
 801:../Libraries/STM32F10x_StdPeriph_Driver/src/stm32f10x_i2c.c ****   * @retval None
 802:../Libraries/STM32F10x_StdPeriph_Driver/src/stm32f10x_i2c.c ****   */
 803:../Libraries/STM32F10x_StdPeriph_Driver/src/stm32f10x_i2c.c **** void I2C_CalculatePEC(I2C_TypeDef* I2Cx, FunctionalState NewState)
 804:../Libraries/STM32F10x_StdPeriph_Driver/src/stm32f10x_i2c.c **** {
 21378              		.loc 1 804 0
 21379              		.cfi_startproc
 21380              		@ args = 0, pretend = 0, frame = 8
 21381              		@ frame_needed = 1, uses_anonymous_args = 0
 21382              		@ link register save eliminated.
 21383 0000 80B4     		push	{r7}
 21384              	.LCFI66:
 21385              		.cfi_def_cfa_offset 4
 21386 0002 83B0     		sub	sp, sp, #12
 21387              	.LCFI67:
 21388              		.cfi_def_cfa_offset 16
 21389 0004 00AF     		add	r7, sp, #0
 21390              		.cfi_offset 7, -4
 21391              	.LCFI68:
 21392              		.cfi_def_cfa_register 7
 21393 0006 7860     		str	r0, [r7, #4]
 21394 0008 0B46     		mov	r3, r1
 21395 000a FB70     		strb	r3, [r7, #3]
 805:../Libraries/STM32F10x_StdPeriph_Driver/src/stm32f10x_i2c.c ****   /* Check the parameters */
 806:../Libraries/STM32F10x_StdPeriph_Driver/src/stm32f10x_i2c.c ****   assert_param(IS_I2C_ALL_PERIPH(I2Cx));
 807:../Libraries/STM32F10x_StdPeriph_Driver/src/stm32f10x_i2c.c ****   assert_param(IS_FUNCTIONAL_STATE(NewState));
 808:../Libraries/STM32F10x_StdPeriph_Driver/src/stm32f10x_i2c.c ****   if (NewState != DISABLE)
 21396              		.loc 1 808 0
 21397 000c FB78     		ldrb	r3, [r7, #3]	@ zero_extendqisi2
 21398 000e 002B     		cmp	r3, #0
 21399 0010 08D0     		beq	.L66
 809:../Libraries/STM32F10x_StdPeriph_Driver/src/stm32f10x_i2c.c ****   {
 810:../Libraries/STM32F10x_StdPeriph_Driver/src/stm32f10x_i2c.c ****     /* Enable the selected I2C PEC calculation */
 811:../Libraries/STM32F10x_StdPeriph_Driver/src/stm32f10x_i2c.c ****     I2Cx->CR1 |= CR1_ENPEC_Set;
 21400              		.loc 1 811 0
 21401 0012 7B68     		ldr	r3, [r7, #4]
 21402 0014 1B88     		ldrh	r3, [r3, #0]	@ movhi
 21403 0016 9BB2     		uxth	r3, r3
 21404 0018 43F02003 		orr	r3, r3, #32
 21405 001c 9AB2     		uxth	r2, r3
 21406 001e 7B68     		ldr	r3, [r7, #4]
 21407 0020 1A80     		strh	r2, [r3, #0]	@ movhi
 21408 0022 07E0     		b	.L65
 21409              	.L66:
 812:../Libraries/STM32F10x_StdPeriph_Driver/src/stm32f10x_i2c.c ****   }
 813:../Libraries/STM32F10x_StdPeriph_Driver/src/stm32f10x_i2c.c ****   else
 814:../Libraries/STM32F10x_StdPeriph_Driver/src/stm32f10x_i2c.c ****   {
 815:../Libraries/STM32F10x_StdPeriph_Driver/src/stm32f10x_i2c.c ****     /* Disable the selected I2C PEC calculation */
 816:../Libraries/STM32F10x_StdPeriph_Driver/src/stm32f10x_i2c.c ****     I2Cx->CR1 &= CR1_ENPEC_Reset;
 21410              		.loc 1 816 0
 21411 0024 7B68     		ldr	r3, [r7, #4]
 21412 0026 1B88     		ldrh	r3, [r3, #0]	@ movhi
 21413 0028 9BB2     		uxth	r3, r3
 21414 002a 23F02003 		bic	r3, r3, #32
 21415 002e 9AB2     		uxth	r2, r3
 21416 0030 7B68     		ldr	r3, [r7, #4]
 21417 0032 1A80     		strh	r2, [r3, #0]	@ movhi
 21418              	.L65:
 817:../Libraries/STM32F10x_StdPeriph_Driver/src/stm32f10x_i2c.c ****   }
 818:../Libraries/STM32F10x_StdPeriph_Driver/src/stm32f10x_i2c.c **** }
 21419              		.loc 1 818 0
 21420 0034 07F10C07 		add	r7, r7, #12
 21421 0038 BD46     		mov	sp, r7
 21422 003a 80BC     		pop	{r7}
 21423 003c 7047     		bx	lr
 21424              		.cfi_endproc
 21425              	.LFE51:
 21427 003e 00BF     		.section	.text.I2C_GetPEC,"ax",%progbits
 21428              		.align	2
 21429              		.global	I2C_GetPEC
 21430              		.thumb
 21431              		.thumb_func
 21433              	I2C_GetPEC:
 21434              	.LFB52:
 819:../Libraries/STM32F10x_StdPeriph_Driver/src/stm32f10x_i2c.c **** 
 820:../Libraries/STM32F10x_StdPeriph_Driver/src/stm32f10x_i2c.c **** /**
 821:../Libraries/STM32F10x_StdPeriph_Driver/src/stm32f10x_i2c.c ****   * @brief  Returns the PEC value for the specified I2C.
 822:../Libraries/STM32F10x_StdPeriph_Driver/src/stm32f10x_i2c.c ****   * @param  I2Cx: where x can be 1 or 2 to select the I2C peripheral.
 823:../Libraries/STM32F10x_StdPeriph_Driver/src/stm32f10x_i2c.c ****   * @retval The PEC value.
 824:../Libraries/STM32F10x_StdPeriph_Driver/src/stm32f10x_i2c.c ****   */
 825:../Libraries/STM32F10x_StdPeriph_Driver/src/stm32f10x_i2c.c **** uint8_t I2C_GetPEC(I2C_TypeDef* I2Cx)
 826:../Libraries/STM32F10x_StdPeriph_Driver/src/stm32f10x_i2c.c **** {
 21435              		.loc 1 826 0
 21436              		.cfi_startproc
 21437              		@ args = 0, pretend = 0, frame = 8
 21438              		@ frame_needed = 1, uses_anonymous_args = 0
 21439              		@ link register save eliminated.
 21440 0000 80B4     		push	{r7}
 21441              	.LCFI69:
 21442              		.cfi_def_cfa_offset 4
 21443 0002 83B0     		sub	sp, sp, #12
 21444              	.LCFI70:
 21445              		.cfi_def_cfa_offset 16
 21446 0004 00AF     		add	r7, sp, #0
 21447              		.cfi_offset 7, -4
 21448              	.LCFI71:
 21449              		.cfi_def_cfa_register 7
 21450 0006 7860     		str	r0, [r7, #4]
 827:../Libraries/STM32F10x_StdPeriph_Driver/src/stm32f10x_i2c.c ****   /* Check the parameters */
 828:../Libraries/STM32F10x_StdPeriph_Driver/src/stm32f10x_i2c.c ****   assert_param(IS_I2C_ALL_PERIPH(I2Cx));
 829:../Libraries/STM32F10x_StdPeriph_Driver/src/stm32f10x_i2c.c ****   /* Return the selected I2C PEC value */
 830:../Libraries/STM32F10x_StdPeriph_Driver/src/stm32f10x_i2c.c ****   return ((I2Cx->SR2) >> 8);
 21451              		.loc 1 830 0
 21452 0008 7B68     		ldr	r3, [r7, #4]
 21453 000a 1B8B     		ldrh	r3, [r3, #24]	@ movhi
 21454 000c 9BB2     		uxth	r3, r3
 21455 000e 4FEA1323 		lsr	r3, r3, #8
 21456 0012 9BB2     		uxth	r3, r3
 21457 0014 DBB2     		uxtb	r3, r3
 831:../Libraries/STM32F10x_StdPeriph_Driver/src/stm32f10x_i2c.c **** }
 21458              		.loc 1 831 0
 21459 0016 1846     		mov	r0, r3
 21460 0018 07F10C07 		add	r7, r7, #12
 21461 001c BD46     		mov	sp, r7
 21462 001e 80BC     		pop	{r7}
 21463 0020 7047     		bx	lr
 21464              		.cfi_endproc
 21465              	.LFE52:
 21467 0022 00BF     		.section	.text.I2C_ARPCmd,"ax",%progbits
 21468              		.align	2
 21469              		.global	I2C_ARPCmd
 21470              		.thumb
 21471              		.thumb_func
 21473              	I2C_ARPCmd:
 21474              	.LFB53:
 832:../Libraries/STM32F10x_StdPeriph_Driver/src/stm32f10x_i2c.c **** 
 833:../Libraries/STM32F10x_StdPeriph_Driver/src/stm32f10x_i2c.c **** /**
 834:../Libraries/STM32F10x_StdPeriph_Driver/src/stm32f10x_i2c.c ****   * @brief  Enables or disables the specified I2C ARP.
 835:../Libraries/STM32F10x_StdPeriph_Driver/src/stm32f10x_i2c.c ****   * @param  I2Cx: where x can be 1 or 2 to select the I2C peripheral.
 836:../Libraries/STM32F10x_StdPeriph_Driver/src/stm32f10x_i2c.c ****   * @param  NewState: new state of the I2Cx ARP. 
 837:../Libraries/STM32F10x_StdPeriph_Driver/src/stm32f10x_i2c.c ****   *   This parameter can be: ENABLE or DISABLE.
 838:../Libraries/STM32F10x_StdPeriph_Driver/src/stm32f10x_i2c.c ****   * @retval None
 839:../Libraries/STM32F10x_StdPeriph_Driver/src/stm32f10x_i2c.c ****   */
 840:../Libraries/STM32F10x_StdPeriph_Driver/src/stm32f10x_i2c.c **** void I2C_ARPCmd(I2C_TypeDef* I2Cx, FunctionalState NewState)
 841:../Libraries/STM32F10x_StdPeriph_Driver/src/stm32f10x_i2c.c **** {
 21475              		.loc 1 841 0
 21476              		.cfi_startproc
 21477              		@ args = 0, pretend = 0, frame = 8
 21478              		@ frame_needed = 1, uses_anonymous_args = 0
 21479              		@ link register save eliminated.
 21480 0000 80B4     		push	{r7}
 21481              	.LCFI72:
 21482              		.cfi_def_cfa_offset 4
 21483 0002 83B0     		sub	sp, sp, #12
 21484              	.LCFI73:
 21485              		.cfi_def_cfa_offset 16
 21486 0004 00AF     		add	r7, sp, #0
 21487              		.cfi_offset 7, -4
 21488              	.LCFI74:
 21489              		.cfi_def_cfa_register 7
 21490 0006 7860     		str	r0, [r7, #4]
 21491 0008 0B46     		mov	r3, r1
 21492 000a FB70     		strb	r3, [r7, #3]
 842:../Libraries/STM32F10x_StdPeriph_Driver/src/stm32f10x_i2c.c ****   /* Check the parameters */
 843:../Libraries/STM32F10x_StdPeriph_Driver/src/stm32f10x_i2c.c ****   assert_param(IS_I2C_ALL_PERIPH(I2Cx));
 844:../Libraries/STM32F10x_StdPeriph_Driver/src/stm32f10x_i2c.c ****   assert_param(IS_FUNCTIONAL_STATE(NewState));
 845:../Libraries/STM32F10x_StdPeriph_Driver/src/stm32f10x_i2c.c ****   if (NewState != DISABLE)
 21493              		.loc 1 845 0
 21494 000c FB78     		ldrb	r3, [r7, #3]	@ zero_extendqisi2
 21495 000e 002B     		cmp	r3, #0
 21496 0010 08D0     		beq	.L70
 846:../Libraries/STM32F10x_StdPeriph_Driver/src/stm32f10x_i2c.c ****   {
 847:../Libraries/STM32F10x_StdPeriph_Driver/src/stm32f10x_i2c.c ****     /* Enable the selected I2C ARP */
 848:../Libraries/STM32F10x_StdPeriph_Driver/src/stm32f10x_i2c.c ****     I2Cx->CR1 |= CR1_ENARP_Set;
 21497              		.loc 1 848 0
 21498 0012 7B68     		ldr	r3, [r7, #4]
 21499 0014 1B88     		ldrh	r3, [r3, #0]	@ movhi
 21500 0016 9BB2     		uxth	r3, r3
 21501 0018 43F01003 		orr	r3, r3, #16
 21502 001c 9AB2     		uxth	r2, r3
 21503 001e 7B68     		ldr	r3, [r7, #4]
 21504 0020 1A80     		strh	r2, [r3, #0]	@ movhi
 21505 0022 07E0     		b	.L69
 21506              	.L70:
 849:../Libraries/STM32F10x_StdPeriph_Driver/src/stm32f10x_i2c.c ****   }
 850:../Libraries/STM32F10x_StdPeriph_Driver/src/stm32f10x_i2c.c ****   else
 851:../Libraries/STM32F10x_StdPeriph_Driver/src/stm32f10x_i2c.c ****   {
 852:../Libraries/STM32F10x_StdPeriph_Driver/src/stm32f10x_i2c.c ****     /* Disable the selected I2C ARP */
 853:../Libraries/STM32F10x_StdPeriph_Driver/src/stm32f10x_i2c.c ****     I2Cx->CR1 &= CR1_ENARP_Reset;
 21507              		.loc 1 853 0
 21508 0024 7B68     		ldr	r3, [r7, #4]
 21509 0026 1B88     		ldrh	r3, [r3, #0]	@ movhi
 21510 0028 9BB2     		uxth	r3, r3
 21511 002a 23F01003 		bic	r3, r3, #16
 21512 002e 9AB2     		uxth	r2, r3
 21513 0030 7B68     		ldr	r3, [r7, #4]
 21514 0032 1A80     		strh	r2, [r3, #0]	@ movhi
 21515              	.L69:
 854:../Libraries/STM32F10x_StdPeriph_Driver/src/stm32f10x_i2c.c ****   }
 855:../Libraries/STM32F10x_StdPeriph_Driver/src/stm32f10x_i2c.c **** }
 21516              		.loc 1 855 0
 21517 0034 07F10C07 		add	r7, r7, #12
 21518 0038 BD46     		mov	sp, r7
 21519 003a 80BC     		pop	{r7}
 21520 003c 7047     		bx	lr
 21521              		.cfi_endproc
 21522              	.LFE53:
 21524 003e 00BF     		.section	.text.I2C_StretchClockCmd,"ax",%progbits
 21525              		.align	2
 21526              		.global	I2C_StretchClockCmd
 21527              		.thumb
 21528              		.thumb_func
 21530              	I2C_StretchClockCmd:
 21531              	.LFB54:
 856:../Libraries/STM32F10x_StdPeriph_Driver/src/stm32f10x_i2c.c **** 
 857:../Libraries/STM32F10x_StdPeriph_Driver/src/stm32f10x_i2c.c **** /**
 858:../Libraries/STM32F10x_StdPeriph_Driver/src/stm32f10x_i2c.c ****   * @brief  Enables or disables the specified I2C Clock stretching.
 859:../Libraries/STM32F10x_StdPeriph_Driver/src/stm32f10x_i2c.c ****   * @param  I2Cx: where x can be 1 or 2 to select the I2C peripheral.
 860:../Libraries/STM32F10x_StdPeriph_Driver/src/stm32f10x_i2c.c ****   * @param  NewState: new state of the I2Cx Clock stretching.
 861:../Libraries/STM32F10x_StdPeriph_Driver/src/stm32f10x_i2c.c ****   *   This parameter can be: ENABLE or DISABLE.
 862:../Libraries/STM32F10x_StdPeriph_Driver/src/stm32f10x_i2c.c ****   * @retval None
 863:../Libraries/STM32F10x_StdPeriph_Driver/src/stm32f10x_i2c.c ****   */
 864:../Libraries/STM32F10x_StdPeriph_Driver/src/stm32f10x_i2c.c **** void I2C_StretchClockCmd(I2C_TypeDef* I2Cx, FunctionalState NewState)
 865:../Libraries/STM32F10x_StdPeriph_Driver/src/stm32f10x_i2c.c **** {
 21532              		.loc 1 865 0
 21533              		.cfi_startproc
 21534              		@ args = 0, pretend = 0, frame = 8
 21535              		@ frame_needed = 1, uses_anonymous_args = 0
 21536              		@ link register save eliminated.
 21537 0000 80B4     		push	{r7}
 21538              	.LCFI75:
 21539              		.cfi_def_cfa_offset 4
 21540 0002 83B0     		sub	sp, sp, #12
 21541              	.LCFI76:
 21542              		.cfi_def_cfa_offset 16
 21543 0004 00AF     		add	r7, sp, #0
 21544              		.cfi_offset 7, -4
 21545              	.LCFI77:
 21546              		.cfi_def_cfa_register 7
 21547 0006 7860     		str	r0, [r7, #4]
 21548 0008 0B46     		mov	r3, r1
 21549 000a FB70     		strb	r3, [r7, #3]
 866:../Libraries/STM32F10x_StdPeriph_Driver/src/stm32f10x_i2c.c ****   /* Check the parameters */
 867:../Libraries/STM32F10x_StdPeriph_Driver/src/stm32f10x_i2c.c ****   assert_param(IS_I2C_ALL_PERIPH(I2Cx));
 868:../Libraries/STM32F10x_StdPeriph_Driver/src/stm32f10x_i2c.c ****   assert_param(IS_FUNCTIONAL_STATE(NewState));
 869:../Libraries/STM32F10x_StdPeriph_Driver/src/stm32f10x_i2c.c ****   if (NewState == DISABLE)
 21550              		.loc 1 869 0
 21551 000c FB78     		ldrb	r3, [r7, #3]	@ zero_extendqisi2
 21552 000e 002B     		cmp	r3, #0
 21553 0010 08D1     		bne	.L73
 870:../Libraries/STM32F10x_StdPeriph_Driver/src/stm32f10x_i2c.c ****   {
 871:../Libraries/STM32F10x_StdPeriph_Driver/src/stm32f10x_i2c.c ****     /* Enable the selected I2C Clock stretching */
 872:../Libraries/STM32F10x_StdPeriph_Driver/src/stm32f10x_i2c.c ****     I2Cx->CR1 |= CR1_NOSTRETCH_Set;
 21554              		.loc 1 872 0
 21555 0012 7B68     		ldr	r3, [r7, #4]
 21556 0014 1B88     		ldrh	r3, [r3, #0]	@ movhi
 21557 0016 9BB2     		uxth	r3, r3
 21558 0018 43F08003 		orr	r3, r3, #128
 21559 001c 9AB2     		uxth	r2, r3
 21560 001e 7B68     		ldr	r3, [r7, #4]
 21561 0020 1A80     		strh	r2, [r3, #0]	@ movhi
 21562 0022 07E0     		b	.L72
 21563              	.L73:
 873:../Libraries/STM32F10x_StdPeriph_Driver/src/stm32f10x_i2c.c ****   }
 874:../Libraries/STM32F10x_StdPeriph_Driver/src/stm32f10x_i2c.c ****   else
 875:../Libraries/STM32F10x_StdPeriph_Driver/src/stm32f10x_i2c.c ****   {
 876:../Libraries/STM32F10x_StdPeriph_Driver/src/stm32f10x_i2c.c ****     /* Disable the selected I2C Clock stretching */
 877:../Libraries/STM32F10x_StdPeriph_Driver/src/stm32f10x_i2c.c ****     I2Cx->CR1 &= CR1_NOSTRETCH_Reset;
 21564              		.loc 1 877 0
 21565 0024 7B68     		ldr	r3, [r7, #4]
 21566 0026 1B88     		ldrh	r3, [r3, #0]	@ movhi
 21567 0028 9BB2     		uxth	r3, r3
 21568 002a 23F08003 		bic	r3, r3, #128
 21569 002e 9AB2     		uxth	r2, r3
 21570 0030 7B68     		ldr	r3, [r7, #4]
 21571 0032 1A80     		strh	r2, [r3, #0]	@ movhi
 21572              	.L72:
 878:../Libraries/STM32F10x_StdPeriph_Driver/src/stm32f10x_i2c.c ****   }
 879:../Libraries/STM32F10x_StdPeriph_Driver/src/stm32f10x_i2c.c **** }
 21573              		.loc 1 879 0
 21574 0034 07F10C07 		add	r7, r7, #12
 21575 0038 BD46     		mov	sp, r7
 21576 003a 80BC     		pop	{r7}
 21577 003c 7047     		bx	lr
 21578              		.cfi_endproc
 21579              	.LFE54:
 21581 003e 00BF     		.section	.text.I2C_FastModeDutyCycleConfig,"ax",%progbits
 21582              		.align	2
 21583              		.global	I2C_FastModeDutyCycleConfig
 21584              		.thumb
 21585              		.thumb_func
 21587              	I2C_FastModeDutyCycleConfig:
 21588              	.LFB55:
 880:../Libraries/STM32F10x_StdPeriph_Driver/src/stm32f10x_i2c.c **** 
 881:../Libraries/STM32F10x_StdPeriph_Driver/src/stm32f10x_i2c.c **** /**
 882:../Libraries/STM32F10x_StdPeriph_Driver/src/stm32f10x_i2c.c ****   * @brief  Selects the specified I2C fast mode duty cycle.
 883:../Libraries/STM32F10x_StdPeriph_Driver/src/stm32f10x_i2c.c ****   * @param  I2Cx: where x can be 1 or 2 to select the I2C peripheral.
 884:../Libraries/STM32F10x_StdPeriph_Driver/src/stm32f10x_i2c.c ****   * @param  I2C_DutyCycle: specifies the fast mode duty cycle.
 885:../Libraries/STM32F10x_StdPeriph_Driver/src/stm32f10x_i2c.c ****   *   This parameter can be one of the following values:
 886:../Libraries/STM32F10x_StdPeriph_Driver/src/stm32f10x_i2c.c ****   *     @arg I2C_DutyCycle_2: I2C fast mode Tlow/Thigh = 2
 887:../Libraries/STM32F10x_StdPeriph_Driver/src/stm32f10x_i2c.c ****   *     @arg I2C_DutyCycle_16_9: I2C fast mode Tlow/Thigh = 16/9
 888:../Libraries/STM32F10x_StdPeriph_Driver/src/stm32f10x_i2c.c ****   * @retval None
 889:../Libraries/STM32F10x_StdPeriph_Driver/src/stm32f10x_i2c.c ****   */
 890:../Libraries/STM32F10x_StdPeriph_Driver/src/stm32f10x_i2c.c **** void I2C_FastModeDutyCycleConfig(I2C_TypeDef* I2Cx, uint16_t I2C_DutyCycle)
 891:../Libraries/STM32F10x_StdPeriph_Driver/src/stm32f10x_i2c.c **** {
 21589              		.loc 1 891 0
 21590              		.cfi_startproc
 21591              		@ args = 0, pretend = 0, frame = 8
 21592              		@ frame_needed = 1, uses_anonymous_args = 0
 21593              		@ link register save eliminated.
 21594 0000 80B4     		push	{r7}
 21595              	.LCFI78:
 21596              		.cfi_def_cfa_offset 4
 21597 0002 83B0     		sub	sp, sp, #12
 21598              	.LCFI79:
 21599              		.cfi_def_cfa_offset 16
 21600 0004 00AF     		add	r7, sp, #0
 21601              		.cfi_offset 7, -4
 21602              	.LCFI80:
 21603              		.cfi_def_cfa_register 7
 21604 0006 7860     		str	r0, [r7, #4]
 21605 0008 0B46     		mov	r3, r1
 21606 000a 7B80     		strh	r3, [r7, #2]	@ movhi
 892:../Libraries/STM32F10x_StdPeriph_Driver/src/stm32f10x_i2c.c ****   /* Check the parameters */
 893:../Libraries/STM32F10x_StdPeriph_Driver/src/stm32f10x_i2c.c ****   assert_param(IS_I2C_ALL_PERIPH(I2Cx));
 894:../Libraries/STM32F10x_StdPeriph_Driver/src/stm32f10x_i2c.c ****   assert_param(IS_I2C_DUTY_CYCLE(I2C_DutyCycle));
 895:../Libraries/STM32F10x_StdPeriph_Driver/src/stm32f10x_i2c.c ****   if (I2C_DutyCycle != I2C_DutyCycle_16_9)
 21607              		.loc 1 895 0
 21608 000c 7B88     		ldrh	r3, [r7, #2]
 21609 000e B3F5804F 		cmp	r3, #16384
 21610 0012 08D0     		beq	.L76
 896:../Libraries/STM32F10x_StdPeriph_Driver/src/stm32f10x_i2c.c ****   {
 897:../Libraries/STM32F10x_StdPeriph_Driver/src/stm32f10x_i2c.c ****     /* I2C fast mode Tlow/Thigh=2 */
 898:../Libraries/STM32F10x_StdPeriph_Driver/src/stm32f10x_i2c.c ****     I2Cx->CCR &= I2C_DutyCycle_2;
 21611              		.loc 1 898 0
 21612 0014 7B68     		ldr	r3, [r7, #4]
 21613 0016 9B8B     		ldrh	r3, [r3, #28]	@ movhi
 21614 0018 9BB2     		uxth	r3, r3
 21615 001a 23F48043 		bic	r3, r3, #16384
 21616 001e 9AB2     		uxth	r2, r3
 21617 0020 7B68     		ldr	r3, [r7, #4]
 21618 0022 9A83     		strh	r2, [r3, #28]	@ movhi
 21619 0024 07E0     		b	.L75
 21620              	.L76:
 899:../Libraries/STM32F10x_StdPeriph_Driver/src/stm32f10x_i2c.c ****   }
 900:../Libraries/STM32F10x_StdPeriph_Driver/src/stm32f10x_i2c.c ****   else
 901:../Libraries/STM32F10x_StdPeriph_Driver/src/stm32f10x_i2c.c ****   {
 902:../Libraries/STM32F10x_StdPeriph_Driver/src/stm32f10x_i2c.c ****     /* I2C fast mode Tlow/Thigh=16/9 */
 903:../Libraries/STM32F10x_StdPeriph_Driver/src/stm32f10x_i2c.c ****     I2Cx->CCR |= I2C_DutyCycle_16_9;
 21621              		.loc 1 903 0
 21622 0026 7B68     		ldr	r3, [r7, #4]
 21623 0028 9B8B     		ldrh	r3, [r3, #28]	@ movhi
 21624 002a 9BB2     		uxth	r3, r3
 21625 002c 43F48043 		orr	r3, r3, #16384
 21626 0030 9AB2     		uxth	r2, r3
 21627 0032 7B68     		ldr	r3, [r7, #4]
 21628 0034 9A83     		strh	r2, [r3, #28]	@ movhi
 21629              	.L75:
 904:../Libraries/STM32F10x_StdPeriph_Driver/src/stm32f10x_i2c.c ****   }
 905:../Libraries/STM32F10x_StdPeriph_Driver/src/stm32f10x_i2c.c **** }
 21630              		.loc 1 905 0
 21631 0036 07F10C07 		add	r7, r7, #12
 21632 003a BD46     		mov	sp, r7
 21633 003c 80BC     		pop	{r7}
 21634 003e 7047     		bx	lr
 21635              		.cfi_endproc
 21636              	.LFE55:
 21638              		.section	.text.I2C_CheckEvent,"ax",%progbits
 21639              		.align	2
 21640              		.global	I2C_CheckEvent
 21641              		.thumb
 21642              		.thumb_func
 21644              	I2C_CheckEvent:
 21645              	.LFB56:
 906:../Libraries/STM32F10x_StdPeriph_Driver/src/stm32f10x_i2c.c **** 
 907:../Libraries/STM32F10x_StdPeriph_Driver/src/stm32f10x_i2c.c **** 
 908:../Libraries/STM32F10x_StdPeriph_Driver/src/stm32f10x_i2c.c **** 
 909:../Libraries/STM32F10x_StdPeriph_Driver/src/stm32f10x_i2c.c **** /**
 910:../Libraries/STM32F10x_StdPeriph_Driver/src/stm32f10x_i2c.c ****  * @brief
 911:../Libraries/STM32F10x_StdPeriph_Driver/src/stm32f10x_i2c.c ****  ****************************************************************************************
 912:../Libraries/STM32F10x_StdPeriph_Driver/src/stm32f10x_i2c.c ****  *
 913:../Libraries/STM32F10x_StdPeriph_Driver/src/stm32f10x_i2c.c ****  *                         I2C State Monitoring Functions
 914:../Libraries/STM32F10x_StdPeriph_Driver/src/stm32f10x_i2c.c ****  *                       
 915:../Libraries/STM32F10x_StdPeriph_Driver/src/stm32f10x_i2c.c ****  ****************************************************************************************   
 916:../Libraries/STM32F10x_StdPeriph_Driver/src/stm32f10x_i2c.c ****  * This I2C driver provides three different ways for I2C state monitoring
 917:../Libraries/STM32F10x_StdPeriph_Driver/src/stm32f10x_i2c.c ****  *  depending on the application requirements and constraints:
 918:../Libraries/STM32F10x_StdPeriph_Driver/src/stm32f10x_i2c.c ****  *        
 919:../Libraries/STM32F10x_StdPeriph_Driver/src/stm32f10x_i2c.c ****  *  
 920:../Libraries/STM32F10x_StdPeriph_Driver/src/stm32f10x_i2c.c ****  * 1) Basic state monitoring:
 921:../Libraries/STM32F10x_StdPeriph_Driver/src/stm32f10x_i2c.c ****  *    Using I2C_CheckEvent() function:
 922:../Libraries/STM32F10x_StdPeriph_Driver/src/stm32f10x_i2c.c ****  *    It compares the status registers (SR1 and SR2) content to a given event
 923:../Libraries/STM32F10x_StdPeriph_Driver/src/stm32f10x_i2c.c ****  *    (can be the combination of one or more flags).
 924:../Libraries/STM32F10x_StdPeriph_Driver/src/stm32f10x_i2c.c ****  *    It returns SUCCESS if the current status includes the given flags 
 925:../Libraries/STM32F10x_StdPeriph_Driver/src/stm32f10x_i2c.c ****  *    and returns ERROR if one or more flags are missing in the current status.
 926:../Libraries/STM32F10x_StdPeriph_Driver/src/stm32f10x_i2c.c ****  *    - When to use:
 927:../Libraries/STM32F10x_StdPeriph_Driver/src/stm32f10x_i2c.c ****  *      - This function is suitable for most applications as well as for startup 
 928:../Libraries/STM32F10x_StdPeriph_Driver/src/stm32f10x_i2c.c ****  *      activity since the events are fully described in the product reference manual 
 929:../Libraries/STM32F10x_StdPeriph_Driver/src/stm32f10x_i2c.c ****  *      (RM0008).
 930:../Libraries/STM32F10x_StdPeriph_Driver/src/stm32f10x_i2c.c ****  *      - It is also suitable for users who need to define their own events.
 931:../Libraries/STM32F10x_StdPeriph_Driver/src/stm32f10x_i2c.c ****  *    - Limitations:
 932:../Libraries/STM32F10x_StdPeriph_Driver/src/stm32f10x_i2c.c ****  *      - If an error occurs (ie. error flags are set besides to the monitored flags),
 933:../Libraries/STM32F10x_StdPeriph_Driver/src/stm32f10x_i2c.c ****  *        the I2C_CheckEvent() function may return SUCCESS despite the communication
 934:../Libraries/STM32F10x_StdPeriph_Driver/src/stm32f10x_i2c.c ****  *        hold or corrupted real state. 
 935:../Libraries/STM32F10x_StdPeriph_Driver/src/stm32f10x_i2c.c ****  *        In this case, it is advised to use error interrupts to monitor the error
 936:../Libraries/STM32F10x_StdPeriph_Driver/src/stm32f10x_i2c.c ****  *        events and handle them in the interrupt IRQ handler.
 937:../Libraries/STM32F10x_StdPeriph_Driver/src/stm32f10x_i2c.c ****  *        
 938:../Libraries/STM32F10x_StdPeriph_Driver/src/stm32f10x_i2c.c ****  *        @note 
 939:../Libraries/STM32F10x_StdPeriph_Driver/src/stm32f10x_i2c.c ****  *        For error management, it is advised to use the following functions:
 940:../Libraries/STM32F10x_StdPeriph_Driver/src/stm32f10x_i2c.c ****  *          - I2C_ITConfig() to configure and enable the error interrupts (I2C_IT_ERR).
 941:../Libraries/STM32F10x_StdPeriph_Driver/src/stm32f10x_i2c.c ****  *          - I2Cx_ER_IRQHandler() which is called when the error interrupt occurs.
 942:../Libraries/STM32F10x_StdPeriph_Driver/src/stm32f10x_i2c.c ****  *            Where x is the peripheral instance (I2C1, I2C2 ...)
 943:../Libraries/STM32F10x_StdPeriph_Driver/src/stm32f10x_i2c.c ****  *          - I2C_GetFlagStatus() or I2C_GetITStatus() to be called into I2Cx_ER_IRQHandler() 
 944:../Libraries/STM32F10x_StdPeriph_Driver/src/stm32f10x_i2c.c ****  *            in order to determine which error occured.
 945:../Libraries/STM32F10x_StdPeriph_Driver/src/stm32f10x_i2c.c ****  *          - I2C_ClearFlag() or I2C_ClearITPendingBit() and/or I2C_SoftwareResetCmd()
 946:../Libraries/STM32F10x_StdPeriph_Driver/src/stm32f10x_i2c.c ****  *            and/or I2C_GenerateStop() in order to clear the error flag and source,
 947:../Libraries/STM32F10x_StdPeriph_Driver/src/stm32f10x_i2c.c ****  *            and return to correct communication status.
 948:../Libraries/STM32F10x_StdPeriph_Driver/src/stm32f10x_i2c.c ****  *            
 949:../Libraries/STM32F10x_StdPeriph_Driver/src/stm32f10x_i2c.c ****  *
 950:../Libraries/STM32F10x_StdPeriph_Driver/src/stm32f10x_i2c.c ****  *  2) Advanced state monitoring:
 951:../Libraries/STM32F10x_StdPeriph_Driver/src/stm32f10x_i2c.c ****  *     Using the function I2C_GetLastEvent() which returns the image of both status 
 952:../Libraries/STM32F10x_StdPeriph_Driver/src/stm32f10x_i2c.c ****  *     registers in a single word (uint32_t) (Status Register 2 value is shifted left 
 953:../Libraries/STM32F10x_StdPeriph_Driver/src/stm32f10x_i2c.c ****  *     by 16 bits and concatenated to Status Register 1).
 954:../Libraries/STM32F10x_StdPeriph_Driver/src/stm32f10x_i2c.c ****  *     - When to use:
 955:../Libraries/STM32F10x_StdPeriph_Driver/src/stm32f10x_i2c.c ****  *       - This function is suitable for the same applications above but it allows to
 956:../Libraries/STM32F10x_StdPeriph_Driver/src/stm32f10x_i2c.c ****  *         overcome the mentioned limitation of I2C_GetFlagStatus() function.
 957:../Libraries/STM32F10x_StdPeriph_Driver/src/stm32f10x_i2c.c ****  *         The returned value could be compared to events already defined in the 
 958:../Libraries/STM32F10x_StdPeriph_Driver/src/stm32f10x_i2c.c ****  *         library (stm32f10x_i2c.h) or to custom values defined by user.
 959:../Libraries/STM32F10x_StdPeriph_Driver/src/stm32f10x_i2c.c ****  *       - This function is suitable when multiple flags are monitored at the same time.
 960:../Libraries/STM32F10x_StdPeriph_Driver/src/stm32f10x_i2c.c ****  *       - At the opposite of I2C_CheckEvent() function, this function allows user to
 961:../Libraries/STM32F10x_StdPeriph_Driver/src/stm32f10x_i2c.c ****  *         choose when an event is accepted (when all events flags are set and no 
 962:../Libraries/STM32F10x_StdPeriph_Driver/src/stm32f10x_i2c.c ****  *         other flags are set or just when the needed flags are set like 
 963:../Libraries/STM32F10x_StdPeriph_Driver/src/stm32f10x_i2c.c ****  *         I2C_CheckEvent() function).
 964:../Libraries/STM32F10x_StdPeriph_Driver/src/stm32f10x_i2c.c ****  *     - Limitations:
 965:../Libraries/STM32F10x_StdPeriph_Driver/src/stm32f10x_i2c.c ****  *       - User may need to define his own events.
 966:../Libraries/STM32F10x_StdPeriph_Driver/src/stm32f10x_i2c.c ****  *       - Same remark concerning the error management is applicable for this 
 967:../Libraries/STM32F10x_StdPeriph_Driver/src/stm32f10x_i2c.c ****  *         function if user decides to check only regular communication flags (and 
 968:../Libraries/STM32F10x_StdPeriph_Driver/src/stm32f10x_i2c.c ****  *         ignores error flags).
 969:../Libraries/STM32F10x_StdPeriph_Driver/src/stm32f10x_i2c.c ****  *     
 970:../Libraries/STM32F10x_StdPeriph_Driver/src/stm32f10x_i2c.c ****  *
 971:../Libraries/STM32F10x_StdPeriph_Driver/src/stm32f10x_i2c.c ****  *  3) Flag-based state monitoring:
 972:../Libraries/STM32F10x_StdPeriph_Driver/src/stm32f10x_i2c.c ****  *     Using the function I2C_GetFlagStatus() which simply returns the status of 
 973:../Libraries/STM32F10x_StdPeriph_Driver/src/stm32f10x_i2c.c ****  *     one single flag (ie. I2C_FLAG_RXNE ...). 
 974:../Libraries/STM32F10x_StdPeriph_Driver/src/stm32f10x_i2c.c ****  *     - When to use:
 975:../Libraries/STM32F10x_StdPeriph_Driver/src/stm32f10x_i2c.c ****  *        - This function could be used for specific applications or in debug phase.
 976:../Libraries/STM32F10x_StdPeriph_Driver/src/stm32f10x_i2c.c ****  *        - It is suitable when only one flag checking is needed (most I2C events 
 977:../Libraries/STM32F10x_StdPeriph_Driver/src/stm32f10x_i2c.c ****  *          are monitored through multiple flags).
 978:../Libraries/STM32F10x_StdPeriph_Driver/src/stm32f10x_i2c.c ****  *     - Limitations: 
 979:../Libraries/STM32F10x_StdPeriph_Driver/src/stm32f10x_i2c.c ****  *        - When calling this function, the Status register is accessed. Some flags are
 980:../Libraries/STM32F10x_StdPeriph_Driver/src/stm32f10x_i2c.c ****  *          cleared when the status register is accessed. So checking the status
 981:../Libraries/STM32F10x_StdPeriph_Driver/src/stm32f10x_i2c.c ****  *          of one Flag, may clear other ones.
 982:../Libraries/STM32F10x_StdPeriph_Driver/src/stm32f10x_i2c.c ****  *        - Function may need to be called twice or more in order to monitor one 
 983:../Libraries/STM32F10x_StdPeriph_Driver/src/stm32f10x_i2c.c ****  *          single event.
 984:../Libraries/STM32F10x_StdPeriph_Driver/src/stm32f10x_i2c.c ****  *
 985:../Libraries/STM32F10x_StdPeriph_Driver/src/stm32f10x_i2c.c ****  *  For detailed description of Events, please refer to section I2C_Events in 
 986:../Libraries/STM32F10x_StdPeriph_Driver/src/stm32f10x_i2c.c ****  *  stm32f10x_i2c.h file.
 987:../Libraries/STM32F10x_StdPeriph_Driver/src/stm32f10x_i2c.c ****  *  
 988:../Libraries/STM32F10x_StdPeriph_Driver/src/stm32f10x_i2c.c ****  */
 989:../Libraries/STM32F10x_StdPeriph_Driver/src/stm32f10x_i2c.c **** 
 990:../Libraries/STM32F10x_StdPeriph_Driver/src/stm32f10x_i2c.c **** /**
 991:../Libraries/STM32F10x_StdPeriph_Driver/src/stm32f10x_i2c.c ****  * 
 992:../Libraries/STM32F10x_StdPeriph_Driver/src/stm32f10x_i2c.c ****  *  1) Basic state monitoring
 993:../Libraries/STM32F10x_StdPeriph_Driver/src/stm32f10x_i2c.c ****  *******************************************************************************
 994:../Libraries/STM32F10x_StdPeriph_Driver/src/stm32f10x_i2c.c ****  */
 995:../Libraries/STM32F10x_StdPeriph_Driver/src/stm32f10x_i2c.c **** 
 996:../Libraries/STM32F10x_StdPeriph_Driver/src/stm32f10x_i2c.c **** /**
 997:../Libraries/STM32F10x_StdPeriph_Driver/src/stm32f10x_i2c.c ****   * @brief  Checks whether the last I2Cx Event is equal to the one passed
 998:../Libraries/STM32F10x_StdPeriph_Driver/src/stm32f10x_i2c.c ****   *   as parameter.
 999:../Libraries/STM32F10x_StdPeriph_Driver/src/stm32f10x_i2c.c ****   * @param  I2Cx: where x can be 1 or 2 to select the I2C peripheral.
1000:../Libraries/STM32F10x_StdPeriph_Driver/src/stm32f10x_i2c.c ****   * @param  I2C_EVENT: specifies the event to be checked. 
1001:../Libraries/STM32F10x_StdPeriph_Driver/src/stm32f10x_i2c.c ****   *   This parameter can be one of the following values:
1002:../Libraries/STM32F10x_StdPeriph_Driver/src/stm32f10x_i2c.c ****   *     @arg I2C_EVENT_SLAVE_TRANSMITTER_ADDRESS_MATCHED           : EV1
1003:../Libraries/STM32F10x_StdPeriph_Driver/src/stm32f10x_i2c.c ****   *     @arg I2C_EVENT_SLAVE_RECEIVER_ADDRESS_MATCHED              : EV1
1004:../Libraries/STM32F10x_StdPeriph_Driver/src/stm32f10x_i2c.c ****   *     @arg I2C_EVENT_SLAVE_TRANSMITTER_SECONDADDRESS_MATCHED     : EV1
1005:../Libraries/STM32F10x_StdPeriph_Driver/src/stm32f10x_i2c.c ****   *     @arg I2C_EVENT_SLAVE_RECEIVER_SECONDADDRESS_MATCHED        : EV1
1006:../Libraries/STM32F10x_StdPeriph_Driver/src/stm32f10x_i2c.c ****   *     @arg I2C_EVENT_SLAVE_GENERALCALLADDRESS_MATCHED            : EV1
1007:../Libraries/STM32F10x_StdPeriph_Driver/src/stm32f10x_i2c.c ****   *     @arg I2C_EVENT_SLAVE_BYTE_RECEIVED                         : EV2
1008:../Libraries/STM32F10x_StdPeriph_Driver/src/stm32f10x_i2c.c ****   *     @arg (I2C_EVENT_SLAVE_BYTE_RECEIVED | I2C_FLAG_DUALF)      : EV2
1009:../Libraries/STM32F10x_StdPeriph_Driver/src/stm32f10x_i2c.c ****   *     @arg (I2C_EVENT_SLAVE_BYTE_RECEIVED | I2C_FLAG_GENCALL)    : EV2
1010:../Libraries/STM32F10x_StdPeriph_Driver/src/stm32f10x_i2c.c ****   *     @arg I2C_EVENT_SLAVE_BYTE_TRANSMITTED                      : EV3
1011:../Libraries/STM32F10x_StdPeriph_Driver/src/stm32f10x_i2c.c ****   *     @arg (I2C_EVENT_SLAVE_BYTE_TRANSMITTED | I2C_FLAG_DUALF)   : EV3
1012:../Libraries/STM32F10x_StdPeriph_Driver/src/stm32f10x_i2c.c ****   *     @arg (I2C_EVENT_SLAVE_BYTE_TRANSMITTED | I2C_FLAG_GENCALL) : EV3
1013:../Libraries/STM32F10x_StdPeriph_Driver/src/stm32f10x_i2c.c ****   *     @arg I2C_EVENT_SLAVE_ACK_FAILURE                           : EV3_2
1014:../Libraries/STM32F10x_StdPeriph_Driver/src/stm32f10x_i2c.c ****   *     @arg I2C_EVENT_SLAVE_STOP_DETECTED                         : EV4
1015:../Libraries/STM32F10x_StdPeriph_Driver/src/stm32f10x_i2c.c ****   *     @arg I2C_EVENT_MASTER_MODE_SELECT                          : EV5
1016:../Libraries/STM32F10x_StdPeriph_Driver/src/stm32f10x_i2c.c ****   *     @arg I2C_EVENT_MASTER_TRANSMITTER_MODE_SELECTED            : EV6     
1017:../Libraries/STM32F10x_StdPeriph_Driver/src/stm32f10x_i2c.c ****   *     @arg I2C_EVENT_MASTER_RECEIVER_MODE_SELECTED               : EV6
1018:../Libraries/STM32F10x_StdPeriph_Driver/src/stm32f10x_i2c.c ****   *     @arg I2C_EVENT_MASTER_BYTE_RECEIVED                        : EV7
1019:../Libraries/STM32F10x_StdPeriph_Driver/src/stm32f10x_i2c.c ****   *     @arg I2C_EVENT_MASTER_BYTE_TRANSMITTING                    : EV8
1020:../Libraries/STM32F10x_StdPeriph_Driver/src/stm32f10x_i2c.c ****   *     @arg I2C_EVENT_MASTER_BYTE_TRANSMITTED                     : EV8_2
1021:../Libraries/STM32F10x_StdPeriph_Driver/src/stm32f10x_i2c.c ****   *     @arg I2C_EVENT_MASTER_MODE_ADDRESS10                       : EV9
1022:../Libraries/STM32F10x_StdPeriph_Driver/src/stm32f10x_i2c.c ****   *     
1023:../Libraries/STM32F10x_StdPeriph_Driver/src/stm32f10x_i2c.c ****   * @note: For detailed description of Events, please refer to section 
1024:../Libraries/STM32F10x_StdPeriph_Driver/src/stm32f10x_i2c.c ****   *    I2C_Events in stm32f10x_i2c.h file.
1025:../Libraries/STM32F10x_StdPeriph_Driver/src/stm32f10x_i2c.c ****   *    
1026:../Libraries/STM32F10x_StdPeriph_Driver/src/stm32f10x_i2c.c ****   * @retval An ErrorStatus enumeration value:
1027:../Libraries/STM32F10x_StdPeriph_Driver/src/stm32f10x_i2c.c ****   * - SUCCESS: Last event is equal to the I2C_EVENT
1028:../Libraries/STM32F10x_StdPeriph_Driver/src/stm32f10x_i2c.c ****   * - ERROR: Last event is different from the I2C_EVENT
1029:../Libraries/STM32F10x_StdPeriph_Driver/src/stm32f10x_i2c.c ****   */
1030:../Libraries/STM32F10x_StdPeriph_Driver/src/stm32f10x_i2c.c **** ErrorStatus I2C_CheckEvent(I2C_TypeDef* I2Cx, uint32_t I2C_EVENT)
1031:../Libraries/STM32F10x_StdPeriph_Driver/src/stm32f10x_i2c.c **** {
 21646              		.loc 1 1031 0
 21647              		.cfi_startproc
 21648              		@ args = 0, pretend = 0, frame = 24
 21649              		@ frame_needed = 1, uses_anonymous_args = 0
 21650              		@ link register save eliminated.
 21651 0000 80B4     		push	{r7}
 21652              	.LCFI81:
 21653              		.cfi_def_cfa_offset 4
 21654 0002 87B0     		sub	sp, sp, #28
 21655              	.LCFI82:
 21656              		.cfi_def_cfa_offset 32
 21657 0004 00AF     		add	r7, sp, #0
 21658              		.cfi_offset 7, -4
 21659              	.LCFI83:
 21660              		.cfi_def_cfa_register 7
 21661 0006 7860     		str	r0, [r7, #4]
 21662 0008 3960     		str	r1, [r7, #0]
1032:../Libraries/STM32F10x_StdPeriph_Driver/src/stm32f10x_i2c.c ****   uint32_t lastevent = 0;
 21663              		.loc 1 1032 0
 21664 000a 4FF00003 		mov	r3, #0
 21665 000e 3B61     		str	r3, [r7, #16]
1033:../Libraries/STM32F10x_StdPeriph_Driver/src/stm32f10x_i2c.c ****   uint32_t flag1 = 0, flag2 = 0;
 21666              		.loc 1 1033 0
 21667 0010 4FF00003 		mov	r3, #0
 21668 0014 FB60     		str	r3, [r7, #12]
 21669 0016 4FF00003 		mov	r3, #0
 21670 001a BB60     		str	r3, [r7, #8]
1034:../Libraries/STM32F10x_StdPeriph_Driver/src/stm32f10x_i2c.c ****   ErrorStatus status = ERROR;
 21671              		.loc 1 1034 0
 21672 001c 4FF00003 		mov	r3, #0
 21673 0020 FB75     		strb	r3, [r7, #23]
1035:../Libraries/STM32F10x_StdPeriph_Driver/src/stm32f10x_i2c.c **** 
1036:../Libraries/STM32F10x_StdPeriph_Driver/src/stm32f10x_i2c.c ****   /* Check the parameters */
1037:../Libraries/STM32F10x_StdPeriph_Driver/src/stm32f10x_i2c.c ****   assert_param(IS_I2C_ALL_PERIPH(I2Cx));
1038:../Libraries/STM32F10x_StdPeriph_Driver/src/stm32f10x_i2c.c ****   assert_param(IS_I2C_EVENT(I2C_EVENT));
1039:../Libraries/STM32F10x_StdPeriph_Driver/src/stm32f10x_i2c.c **** 
1040:../Libraries/STM32F10x_StdPeriph_Driver/src/stm32f10x_i2c.c ****   /* Read the I2Cx status register */
1041:../Libraries/STM32F10x_StdPeriph_Driver/src/stm32f10x_i2c.c ****   flag1 = I2Cx->SR1;
 21674              		.loc 1 1041 0
 21675 0022 7B68     		ldr	r3, [r7, #4]
 21676 0024 9B8A     		ldrh	r3, [r3, #20]	@ movhi
 21677 0026 9BB2     		uxth	r3, r3
 21678 0028 FB60     		str	r3, [r7, #12]
1042:../Libraries/STM32F10x_StdPeriph_Driver/src/stm32f10x_i2c.c ****   flag2 = I2Cx->SR2;
 21679              		.loc 1 1042 0
 21680 002a 7B68     		ldr	r3, [r7, #4]
 21681 002c 1B8B     		ldrh	r3, [r3, #24]	@ movhi
 21682 002e 9BB2     		uxth	r3, r3
 21683 0030 BB60     		str	r3, [r7, #8]
1043:../Libraries/STM32F10x_StdPeriph_Driver/src/stm32f10x_i2c.c ****   flag2 = flag2 << 16;
 21684              		.loc 1 1043 0
 21685 0032 BB68     		ldr	r3, [r7, #8]
 21686 0034 4FEA0343 		lsl	r3, r3, #16
 21687 0038 BB60     		str	r3, [r7, #8]
1044:../Libraries/STM32F10x_StdPeriph_Driver/src/stm32f10x_i2c.c **** 
1045:../Libraries/STM32F10x_StdPeriph_Driver/src/stm32f10x_i2c.c ****   /* Get the last event value from I2C status register */
1046:../Libraries/STM32F10x_StdPeriph_Driver/src/stm32f10x_i2c.c ****   lastevent = (flag1 | flag2) & FLAG_Mask;
 21688              		.loc 1 1046 0
 21689 003a FA68     		ldr	r2, [r7, #12]
 21690 003c BB68     		ldr	r3, [r7, #8]
 21691 003e 42EA0303 		orr	r3, r2, r3
 21692 0042 23F07F43 		bic	r3, r3, #-16777216
 21693 0046 3B61     		str	r3, [r7, #16]
1047:../Libraries/STM32F10x_StdPeriph_Driver/src/stm32f10x_i2c.c **** 
1048:../Libraries/STM32F10x_StdPeriph_Driver/src/stm32f10x_i2c.c ****   /* Check whether the last event contains the I2C_EVENT */
1049:../Libraries/STM32F10x_StdPeriph_Driver/src/stm32f10x_i2c.c ****   if ((lastevent & I2C_EVENT) == I2C_EVENT)
 21694              		.loc 1 1049 0
 21695 0048 3A69     		ldr	r2, [r7, #16]
 21696 004a 3B68     		ldr	r3, [r7, #0]
 21697 004c 1A40     		ands	r2, r2, r3
 21698 004e 3B68     		ldr	r3, [r7, #0]
 21699 0050 9A42     		cmp	r2, r3
 21700 0052 03D1     		bne	.L79
1050:../Libraries/STM32F10x_StdPeriph_Driver/src/stm32f10x_i2c.c ****   {
1051:../Libraries/STM32F10x_StdPeriph_Driver/src/stm32f10x_i2c.c ****     /* SUCCESS: last event is equal to I2C_EVENT */
1052:../Libraries/STM32F10x_StdPeriph_Driver/src/stm32f10x_i2c.c ****     status = SUCCESS;
 21701              		.loc 1 1052 0
 21702 0054 4FF00103 		mov	r3, #1
 21703 0058 FB75     		strb	r3, [r7, #23]
 21704 005a 02E0     		b	.L80
 21705              	.L79:
1053:../Libraries/STM32F10x_StdPeriph_Driver/src/stm32f10x_i2c.c ****   }
1054:../Libraries/STM32F10x_StdPeriph_Driver/src/stm32f10x_i2c.c ****   else
1055:../Libraries/STM32F10x_StdPeriph_Driver/src/stm32f10x_i2c.c ****   {
1056:../Libraries/STM32F10x_StdPeriph_Driver/src/stm32f10x_i2c.c ****     /* ERROR: last event is different from I2C_EVENT */
1057:../Libraries/STM32F10x_StdPeriph_Driver/src/stm32f10x_i2c.c ****     status = ERROR;
 21706              		.loc 1 1057 0
 21707 005c 4FF00003 		mov	r3, #0
 21708 0060 FB75     		strb	r3, [r7, #23]
 21709              	.L80:
1058:../Libraries/STM32F10x_StdPeriph_Driver/src/stm32f10x_i2c.c ****   }
1059:../Libraries/STM32F10x_StdPeriph_Driver/src/stm32f10x_i2c.c ****   /* Return status */
1060:../Libraries/STM32F10x_StdPeriph_Driver/src/stm32f10x_i2c.c ****   return status;
 21710              		.loc 1 1060 0
 21711 0062 FB7D     		ldrb	r3, [r7, #23]	@ zero_extendqisi2
1061:../Libraries/STM32F10x_StdPeriph_Driver/src/stm32f10x_i2c.c **** }
 21712              		.loc 1 1061 0
 21713 0064 1846     		mov	r0, r3
 21714 0066 07F11C07 		add	r7, r7, #28
 21715 006a BD46     		mov	sp, r7
 21716 006c 80BC     		pop	{r7}
 21717 006e 7047     		bx	lr
 21718              		.cfi_endproc
 21719              	.LFE56:
 21721              		.section	.text.I2C_GetLastEvent,"ax",%progbits
 21722              		.align	2
 21723              		.global	I2C_GetLastEvent
 21724              		.thumb
 21725              		.thumb_func
 21727              	I2C_GetLastEvent:
 21728              	.LFB57:
1062:../Libraries/STM32F10x_StdPeriph_Driver/src/stm32f10x_i2c.c **** 
1063:../Libraries/STM32F10x_StdPeriph_Driver/src/stm32f10x_i2c.c **** /**
1064:../Libraries/STM32F10x_StdPeriph_Driver/src/stm32f10x_i2c.c ****  * 
1065:../Libraries/STM32F10x_StdPeriph_Driver/src/stm32f10x_i2c.c ****  *  2) Advanced state monitoring
1066:../Libraries/STM32F10x_StdPeriph_Driver/src/stm32f10x_i2c.c ****  *******************************************************************************
1067:../Libraries/STM32F10x_StdPeriph_Driver/src/stm32f10x_i2c.c ****  */
1068:../Libraries/STM32F10x_StdPeriph_Driver/src/stm32f10x_i2c.c **** 
1069:../Libraries/STM32F10x_StdPeriph_Driver/src/stm32f10x_i2c.c **** /**
1070:../Libraries/STM32F10x_StdPeriph_Driver/src/stm32f10x_i2c.c ****   * @brief  Returns the last I2Cx Event.
1071:../Libraries/STM32F10x_StdPeriph_Driver/src/stm32f10x_i2c.c ****   * @param  I2Cx: where x can be 1 or 2 to select the I2C peripheral.
1072:../Libraries/STM32F10x_StdPeriph_Driver/src/stm32f10x_i2c.c ****   *     
1073:../Libraries/STM32F10x_StdPeriph_Driver/src/stm32f10x_i2c.c ****   * @note: For detailed description of Events, please refer to section 
1074:../Libraries/STM32F10x_StdPeriph_Driver/src/stm32f10x_i2c.c ****   *    I2C_Events in stm32f10x_i2c.h file.
1075:../Libraries/STM32F10x_StdPeriph_Driver/src/stm32f10x_i2c.c ****   *    
1076:../Libraries/STM32F10x_StdPeriph_Driver/src/stm32f10x_i2c.c ****   * @retval The last event
1077:../Libraries/STM32F10x_StdPeriph_Driver/src/stm32f10x_i2c.c ****   */
1078:../Libraries/STM32F10x_StdPeriph_Driver/src/stm32f10x_i2c.c **** uint32_t I2C_GetLastEvent(I2C_TypeDef* I2Cx)
1079:../Libraries/STM32F10x_StdPeriph_Driver/src/stm32f10x_i2c.c **** {
 21729              		.loc 1 1079 0
 21730              		.cfi_startproc
 21731              		@ args = 0, pretend = 0, frame = 24
 21732              		@ frame_needed = 1, uses_anonymous_args = 0
 21733              		@ link register save eliminated.
 21734 0000 80B4     		push	{r7}
 21735              	.LCFI84:
 21736              		.cfi_def_cfa_offset 4
 21737 0002 87B0     		sub	sp, sp, #28
 21738              	.LCFI85:
 21739              		.cfi_def_cfa_offset 32
 21740 0004 00AF     		add	r7, sp, #0
 21741              		.cfi_offset 7, -4
 21742              	.LCFI86:
 21743              		.cfi_def_cfa_register 7
 21744 0006 7860     		str	r0, [r7, #4]
1080:../Libraries/STM32F10x_StdPeriph_Driver/src/stm32f10x_i2c.c ****   uint32_t lastevent = 0;
 21745              		.loc 1 1080 0
 21746 0008 4FF00003 		mov	r3, #0
 21747 000c 7B61     		str	r3, [r7, #20]
1081:../Libraries/STM32F10x_StdPeriph_Driver/src/stm32f10x_i2c.c ****   uint32_t flag1 = 0, flag2 = 0;
 21748              		.loc 1 1081 0
 21749 000e 4FF00003 		mov	r3, #0
 21750 0012 3B61     		str	r3, [r7, #16]
 21751 0014 4FF00003 		mov	r3, #0
 21752 0018 FB60     		str	r3, [r7, #12]
1082:../Libraries/STM32F10x_StdPeriph_Driver/src/stm32f10x_i2c.c **** 
1083:../Libraries/STM32F10x_StdPeriph_Driver/src/stm32f10x_i2c.c ****   /* Check the parameters */
1084:../Libraries/STM32F10x_StdPeriph_Driver/src/stm32f10x_i2c.c ****   assert_param(IS_I2C_ALL_PERIPH(I2Cx));
1085:../Libraries/STM32F10x_StdPeriph_Driver/src/stm32f10x_i2c.c **** 
1086:../Libraries/STM32F10x_StdPeriph_Driver/src/stm32f10x_i2c.c ****   /* Read the I2Cx status register */
1087:../Libraries/STM32F10x_StdPeriph_Driver/src/stm32f10x_i2c.c ****   flag1 = I2Cx->SR1;
 21753              		.loc 1 1087 0
 21754 001a 7B68     		ldr	r3, [r7, #4]
 21755 001c 9B8A     		ldrh	r3, [r3, #20]	@ movhi
 21756 001e 9BB2     		uxth	r3, r3
 21757 0020 3B61     		str	r3, [r7, #16]
1088:../Libraries/STM32F10x_StdPeriph_Driver/src/stm32f10x_i2c.c ****   flag2 = I2Cx->SR2;
 21758              		.loc 1 1088 0
 21759 0022 7B68     		ldr	r3, [r7, #4]
 21760 0024 1B8B     		ldrh	r3, [r3, #24]	@ movhi
 21761 0026 9BB2     		uxth	r3, r3
 21762 0028 FB60     		str	r3, [r7, #12]
1089:../Libraries/STM32F10x_StdPeriph_Driver/src/stm32f10x_i2c.c ****   flag2 = flag2 << 16;
 21763              		.loc 1 1089 0
 21764 002a FB68     		ldr	r3, [r7, #12]
 21765 002c 4FEA0343 		lsl	r3, r3, #16
 21766 0030 FB60     		str	r3, [r7, #12]
1090:../Libraries/STM32F10x_StdPeriph_Driver/src/stm32f10x_i2c.c **** 
1091:../Libraries/STM32F10x_StdPeriph_Driver/src/stm32f10x_i2c.c ****   /* Get the last event value from I2C status register */
1092:../Libraries/STM32F10x_StdPeriph_Driver/src/stm32f10x_i2c.c ****   lastevent = (flag1 | flag2) & FLAG_Mask;
 21767              		.loc 1 1092 0
 21768 0032 3A69     		ldr	r2, [r7, #16]
 21769 0034 FB68     		ldr	r3, [r7, #12]
 21770 0036 42EA0303 		orr	r3, r2, r3
 21771 003a 23F07F43 		bic	r3, r3, #-16777216
 21772 003e 7B61     		str	r3, [r7, #20]
1093:../Libraries/STM32F10x_StdPeriph_Driver/src/stm32f10x_i2c.c **** 
1094:../Libraries/STM32F10x_StdPeriph_Driver/src/stm32f10x_i2c.c ****   /* Return status */
1095:../Libraries/STM32F10x_StdPeriph_Driver/src/stm32f10x_i2c.c ****   return lastevent;
 21773              		.loc 1 1095 0
 21774 0040 7B69     		ldr	r3, [r7, #20]
1096:../Libraries/STM32F10x_StdPeriph_Driver/src/stm32f10x_i2c.c **** }
 21775              		.loc 1 1096 0
 21776 0042 1846     		mov	r0, r3
 21777 0044 07F11C07 		add	r7, r7, #28
 21778 0048 BD46     		mov	sp, r7
 21779 004a 80BC     		pop	{r7}
 21780 004c 7047     		bx	lr
 21781              		.cfi_endproc
 21782              	.LFE57:
 21784 004e 00BF     		.section	.text.I2C_GetFlagStatus,"ax",%progbits
 21785              		.align	2
 21786              		.global	I2C_GetFlagStatus
 21787              		.thumb
 21788              		.thumb_func
 21790              	I2C_GetFlagStatus:
 21791              	.LFB58:
1097:../Libraries/STM32F10x_StdPeriph_Driver/src/stm32f10x_i2c.c **** 
1098:../Libraries/STM32F10x_StdPeriph_Driver/src/stm32f10x_i2c.c **** /**
1099:../Libraries/STM32F10x_StdPeriph_Driver/src/stm32f10x_i2c.c ****  * 
1100:../Libraries/STM32F10x_StdPeriph_Driver/src/stm32f10x_i2c.c ****  *  3) Flag-based state monitoring
1101:../Libraries/STM32F10x_StdPeriph_Driver/src/stm32f10x_i2c.c ****  *******************************************************************************
1102:../Libraries/STM32F10x_StdPeriph_Driver/src/stm32f10x_i2c.c ****  */
1103:../Libraries/STM32F10x_StdPeriph_Driver/src/stm32f10x_i2c.c **** 
1104:../Libraries/STM32F10x_StdPeriph_Driver/src/stm32f10x_i2c.c **** /**
1105:../Libraries/STM32F10x_StdPeriph_Driver/src/stm32f10x_i2c.c ****   * @brief  Checks whether the specified I2C flag is set or not.
1106:../Libraries/STM32F10x_StdPeriph_Driver/src/stm32f10x_i2c.c ****   * @param  I2Cx: where x can be 1 or 2 to select the I2C peripheral.
1107:../Libraries/STM32F10x_StdPeriph_Driver/src/stm32f10x_i2c.c ****   * @param  I2C_FLAG: specifies the flag to check. 
1108:../Libraries/STM32F10x_StdPeriph_Driver/src/stm32f10x_i2c.c ****   *   This parameter can be one of the following values:
1109:../Libraries/STM32F10x_StdPeriph_Driver/src/stm32f10x_i2c.c ****   *     @arg I2C_FLAG_DUALF: Dual flag (Slave mode)
1110:../Libraries/STM32F10x_StdPeriph_Driver/src/stm32f10x_i2c.c ****   *     @arg I2C_FLAG_SMBHOST: SMBus host header (Slave mode)
1111:../Libraries/STM32F10x_StdPeriph_Driver/src/stm32f10x_i2c.c ****   *     @arg I2C_FLAG_SMBDEFAULT: SMBus default header (Slave mode)
1112:../Libraries/STM32F10x_StdPeriph_Driver/src/stm32f10x_i2c.c ****   *     @arg I2C_FLAG_GENCALL: General call header flag (Slave mode)
1113:../Libraries/STM32F10x_StdPeriph_Driver/src/stm32f10x_i2c.c ****   *     @arg I2C_FLAG_TRA: Transmitter/Receiver flag
1114:../Libraries/STM32F10x_StdPeriph_Driver/src/stm32f10x_i2c.c ****   *     @arg I2C_FLAG_BUSY: Bus busy flag
1115:../Libraries/STM32F10x_StdPeriph_Driver/src/stm32f10x_i2c.c ****   *     @arg I2C_FLAG_MSL: Master/Slave flag
1116:../Libraries/STM32F10x_StdPeriph_Driver/src/stm32f10x_i2c.c ****   *     @arg I2C_FLAG_SMBALERT: SMBus Alert flag
1117:../Libraries/STM32F10x_StdPeriph_Driver/src/stm32f10x_i2c.c ****   *     @arg I2C_FLAG_TIMEOUT: Timeout or Tlow error flag
1118:../Libraries/STM32F10x_StdPeriph_Driver/src/stm32f10x_i2c.c ****   *     @arg I2C_FLAG_PECERR: PEC error in reception flag
1119:../Libraries/STM32F10x_StdPeriph_Driver/src/stm32f10x_i2c.c ****   *     @arg I2C_FLAG_OVR: Overrun/Underrun flag (Slave mode)
1120:../Libraries/STM32F10x_StdPeriph_Driver/src/stm32f10x_i2c.c ****   *     @arg I2C_FLAG_AF: Acknowledge failure flag
1121:../Libraries/STM32F10x_StdPeriph_Driver/src/stm32f10x_i2c.c ****   *     @arg I2C_FLAG_ARLO: Arbitration lost flag (Master mode)
1122:../Libraries/STM32F10x_StdPeriph_Driver/src/stm32f10x_i2c.c ****   *     @arg I2C_FLAG_BERR: Bus error flag
1123:../Libraries/STM32F10x_StdPeriph_Driver/src/stm32f10x_i2c.c ****   *     @arg I2C_FLAG_TXE: Data register empty flag (Transmitter)
1124:../Libraries/STM32F10x_StdPeriph_Driver/src/stm32f10x_i2c.c ****   *     @arg I2C_FLAG_RXNE: Data register not empty (Receiver) flag
1125:../Libraries/STM32F10x_StdPeriph_Driver/src/stm32f10x_i2c.c ****   *     @arg I2C_FLAG_STOPF: Stop detection flag (Slave mode)
1126:../Libraries/STM32F10x_StdPeriph_Driver/src/stm32f10x_i2c.c ****   *     @arg I2C_FLAG_ADD10: 10-bit header sent flag (Master mode)
1127:../Libraries/STM32F10x_StdPeriph_Driver/src/stm32f10x_i2c.c ****   *     @arg I2C_FLAG_BTF: Byte transfer finished flag
1128:../Libraries/STM32F10x_StdPeriph_Driver/src/stm32f10x_i2c.c ****   *     @arg I2C_FLAG_ADDR: Address sent flag (Master mode) "ADSL"
1129:../Libraries/STM32F10x_StdPeriph_Driver/src/stm32f10x_i2c.c ****   *   Address matched flag (Slave mode)"ENDA"
1130:../Libraries/STM32F10x_StdPeriph_Driver/src/stm32f10x_i2c.c ****   *     @arg I2C_FLAG_SB: Start bit flag (Master mode)
1131:../Libraries/STM32F10x_StdPeriph_Driver/src/stm32f10x_i2c.c ****   * @retval The new state of I2C_FLAG (SET or RESET).
1132:../Libraries/STM32F10x_StdPeriph_Driver/src/stm32f10x_i2c.c ****   */
1133:../Libraries/STM32F10x_StdPeriph_Driver/src/stm32f10x_i2c.c **** FlagStatus I2C_GetFlagStatus(I2C_TypeDef* I2Cx, uint32_t I2C_FLAG)
1134:../Libraries/STM32F10x_StdPeriph_Driver/src/stm32f10x_i2c.c **** {
 21792              		.loc 1 1134 0
 21793              		.cfi_startproc
 21794              		@ args = 0, pretend = 0, frame = 24
 21795              		@ frame_needed = 1, uses_anonymous_args = 0
 21796              		@ link register save eliminated.
 21797 0000 80B4     		push	{r7}
 21798              	.LCFI87:
 21799              		.cfi_def_cfa_offset 4
 21800 0002 87B0     		sub	sp, sp, #28
 21801              	.LCFI88:
 21802              		.cfi_def_cfa_offset 32
 21803 0004 00AF     		add	r7, sp, #0
 21804              		.cfi_offset 7, -4
 21805              	.LCFI89:
 21806              		.cfi_def_cfa_register 7
 21807 0006 7860     		str	r0, [r7, #4]
 21808 0008 3960     		str	r1, [r7, #0]
1135:../Libraries/STM32F10x_StdPeriph_Driver/src/stm32f10x_i2c.c ****   FlagStatus bitstatus = RESET;
 21809              		.loc 1 1135 0
 21810 000a 4FF00003 		mov	r3, #0
 21811 000e FB75     		strb	r3, [r7, #23]
1136:../Libraries/STM32F10x_StdPeriph_Driver/src/stm32f10x_i2c.c ****   __IO uint32_t i2creg = 0, i2cxbase = 0;
 21812              		.loc 1 1136 0
 21813 0010 4FF00003 		mov	r3, #0
 21814 0014 3B61     		str	r3, [r7, #16]
 21815 0016 4FF00003 		mov	r3, #0
 21816 001a FB60     		str	r3, [r7, #12]
1137:../Libraries/STM32F10x_StdPeriph_Driver/src/stm32f10x_i2c.c **** 
1138:../Libraries/STM32F10x_StdPeriph_Driver/src/stm32f10x_i2c.c ****   /* Check the parameters */
1139:../Libraries/STM32F10x_StdPeriph_Driver/src/stm32f10x_i2c.c ****   assert_param(IS_I2C_ALL_PERIPH(I2Cx));
1140:../Libraries/STM32F10x_StdPeriph_Driver/src/stm32f10x_i2c.c ****   assert_param(IS_I2C_GET_FLAG(I2C_FLAG));
1141:../Libraries/STM32F10x_StdPeriph_Driver/src/stm32f10x_i2c.c **** 
1142:../Libraries/STM32F10x_StdPeriph_Driver/src/stm32f10x_i2c.c ****   /* Get the I2Cx peripheral base address */
1143:../Libraries/STM32F10x_StdPeriph_Driver/src/stm32f10x_i2c.c ****   i2cxbase = (uint32_t)I2Cx;
 21817              		.loc 1 1143 0
 21818 001c 7B68     		ldr	r3, [r7, #4]
 21819 001e FB60     		str	r3, [r7, #12]
1144:../Libraries/STM32F10x_StdPeriph_Driver/src/stm32f10x_i2c.c ****   
1145:../Libraries/STM32F10x_StdPeriph_Driver/src/stm32f10x_i2c.c ****   /* Read flag register index */
1146:../Libraries/STM32F10x_StdPeriph_Driver/src/stm32f10x_i2c.c ****   i2creg = I2C_FLAG >> 28;
 21820              		.loc 1 1146 0
 21821 0020 3B68     		ldr	r3, [r7, #0]
 21822 0022 4FEA1373 		lsr	r3, r3, #28
 21823 0026 3B61     		str	r3, [r7, #16]
1147:../Libraries/STM32F10x_StdPeriph_Driver/src/stm32f10x_i2c.c ****   
1148:../Libraries/STM32F10x_StdPeriph_Driver/src/stm32f10x_i2c.c ****   /* Get bit[23:0] of the flag */
1149:../Libraries/STM32F10x_StdPeriph_Driver/src/stm32f10x_i2c.c ****   I2C_FLAG &= FLAG_Mask;
 21824              		.loc 1 1149 0
 21825 0028 3B68     		ldr	r3, [r7, #0]
 21826 002a 23F07F43 		bic	r3, r3, #-16777216
 21827 002e 3B60     		str	r3, [r7, #0]
1150:../Libraries/STM32F10x_StdPeriph_Driver/src/stm32f10x_i2c.c ****   
1151:../Libraries/STM32F10x_StdPeriph_Driver/src/stm32f10x_i2c.c ****   if(i2creg != 0)
 21828              		.loc 1 1151 0
 21829 0030 3B69     		ldr	r3, [r7, #16]
 21830 0032 002B     		cmp	r3, #0
 21831 0034 04D0     		beq	.L83
1152:../Libraries/STM32F10x_StdPeriph_Driver/src/stm32f10x_i2c.c ****   {
1153:../Libraries/STM32F10x_StdPeriph_Driver/src/stm32f10x_i2c.c ****     /* Get the I2Cx SR1 register address */
1154:../Libraries/STM32F10x_StdPeriph_Driver/src/stm32f10x_i2c.c ****     i2cxbase += 0x14;
 21832              		.loc 1 1154 0
 21833 0036 FB68     		ldr	r3, [r7, #12]
 21834 0038 03F11403 		add	r3, r3, #20
 21835 003c FB60     		str	r3, [r7, #12]
 21836 003e 07E0     		b	.L84
 21837              	.L83:
1155:../Libraries/STM32F10x_StdPeriph_Driver/src/stm32f10x_i2c.c ****   }
1156:../Libraries/STM32F10x_StdPeriph_Driver/src/stm32f10x_i2c.c ****   else
1157:../Libraries/STM32F10x_StdPeriph_Driver/src/stm32f10x_i2c.c ****   {
1158:../Libraries/STM32F10x_StdPeriph_Driver/src/stm32f10x_i2c.c ****     /* Flag in I2Cx SR2 Register */
1159:../Libraries/STM32F10x_StdPeriph_Driver/src/stm32f10x_i2c.c ****     I2C_FLAG = (uint32_t)(I2C_FLAG >> 16);
 21838              		.loc 1 1159 0
 21839 0040 3B68     		ldr	r3, [r7, #0]
 21840 0042 4FEA1343 		lsr	r3, r3, #16
 21841 0046 3B60     		str	r3, [r7, #0]
1160:../Libraries/STM32F10x_StdPeriph_Driver/src/stm32f10x_i2c.c ****     /* Get the I2Cx SR2 register address */
1161:../Libraries/STM32F10x_StdPeriph_Driver/src/stm32f10x_i2c.c ****     i2cxbase += 0x18;
 21842              		.loc 1 1161 0
 21843 0048 FB68     		ldr	r3, [r7, #12]
 21844 004a 03F11803 		add	r3, r3, #24
 21845 004e FB60     		str	r3, [r7, #12]
 21846              	.L84:
1162:../Libraries/STM32F10x_StdPeriph_Driver/src/stm32f10x_i2c.c ****   }
1163:../Libraries/STM32F10x_StdPeriph_Driver/src/stm32f10x_i2c.c ****   
1164:../Libraries/STM32F10x_StdPeriph_Driver/src/stm32f10x_i2c.c ****   if(((*(__IO uint32_t *)i2cxbase) & I2C_FLAG) != (uint32_t)RESET)
 21847              		.loc 1 1164 0
 21848 0050 FB68     		ldr	r3, [r7, #12]
 21849 0052 1A68     		ldr	r2, [r3, #0]
 21850 0054 3B68     		ldr	r3, [r7, #0]
 21851 0056 02EA0303 		and	r3, r2, r3
 21852 005a 002B     		cmp	r3, #0
 21853 005c 03D0     		beq	.L85
1165:../Libraries/STM32F10x_StdPeriph_Driver/src/stm32f10x_i2c.c ****   {
1166:../Libraries/STM32F10x_StdPeriph_Driver/src/stm32f10x_i2c.c ****     /* I2C_FLAG is set */
1167:../Libraries/STM32F10x_StdPeriph_Driver/src/stm32f10x_i2c.c ****     bitstatus = SET;
 21854              		.loc 1 1167 0
 21855 005e 4FF00103 		mov	r3, #1
 21856 0062 FB75     		strb	r3, [r7, #23]
 21857 0064 02E0     		b	.L86
 21858              	.L85:
1168:../Libraries/STM32F10x_StdPeriph_Driver/src/stm32f10x_i2c.c ****   }
1169:../Libraries/STM32F10x_StdPeriph_Driver/src/stm32f10x_i2c.c ****   else
1170:../Libraries/STM32F10x_StdPeriph_Driver/src/stm32f10x_i2c.c ****   {
1171:../Libraries/STM32F10x_StdPeriph_Driver/src/stm32f10x_i2c.c ****     /* I2C_FLAG is reset */
1172:../Libraries/STM32F10x_StdPeriph_Driver/src/stm32f10x_i2c.c ****     bitstatus = RESET;
 21859              		.loc 1 1172 0
 21860 0066 4FF00003 		mov	r3, #0
 21861 006a FB75     		strb	r3, [r7, #23]
 21862              	.L86:
1173:../Libraries/STM32F10x_StdPeriph_Driver/src/stm32f10x_i2c.c ****   }
1174:../Libraries/STM32F10x_StdPeriph_Driver/src/stm32f10x_i2c.c ****   
1175:../Libraries/STM32F10x_StdPeriph_Driver/src/stm32f10x_i2c.c ****   /* Return the I2C_FLAG status */
1176:../Libraries/STM32F10x_StdPeriph_Driver/src/stm32f10x_i2c.c ****   return  bitstatus;
 21863              		.loc 1 1176 0
 21864 006c FB7D     		ldrb	r3, [r7, #23]	@ zero_extendqisi2
1177:../Libraries/STM32F10x_StdPeriph_Driver/src/stm32f10x_i2c.c **** }
 21865              		.loc 1 1177 0
 21866 006e 1846     		mov	r0, r3
 21867 0070 07F11C07 		add	r7, r7, #28
 21868 0074 BD46     		mov	sp, r7
 21869 0076 80BC     		pop	{r7}
 21870 0078 7047     		bx	lr
 21871              		.cfi_endproc
 21872              	.LFE58:
 21874 007a 00BF     		.section	.text.I2C_ClearFlag,"ax",%progbits
 21875              		.align	2
 21876              		.global	I2C_ClearFlag
 21877              		.thumb
 21878              		.thumb_func
 21880              	I2C_ClearFlag:
 21881              	.LFB59:
1178:../Libraries/STM32F10x_StdPeriph_Driver/src/stm32f10x_i2c.c **** 
1179:../Libraries/STM32F10x_StdPeriph_Driver/src/stm32f10x_i2c.c **** 
1180:../Libraries/STM32F10x_StdPeriph_Driver/src/stm32f10x_i2c.c **** 
1181:../Libraries/STM32F10x_StdPeriph_Driver/src/stm32f10x_i2c.c **** /**
1182:../Libraries/STM32F10x_StdPeriph_Driver/src/stm32f10x_i2c.c ****   * @brief  Clears the I2Cx's pending flags.
1183:../Libraries/STM32F10x_StdPeriph_Driver/src/stm32f10x_i2c.c ****   * @param  I2Cx: where x can be 1 or 2 to select the I2C peripheral.
1184:../Libraries/STM32F10x_StdPeriph_Driver/src/stm32f10x_i2c.c ****   * @param  I2C_FLAG: specifies the flag to clear. 
1185:../Libraries/STM32F10x_StdPeriph_Driver/src/stm32f10x_i2c.c ****   *   This parameter can be any combination of the following values:
1186:../Libraries/STM32F10x_StdPeriph_Driver/src/stm32f10x_i2c.c ****   *     @arg I2C_FLAG_SMBALERT: SMBus Alert flag
1187:../Libraries/STM32F10x_StdPeriph_Driver/src/stm32f10x_i2c.c ****   *     @arg I2C_FLAG_TIMEOUT: Timeout or Tlow error flag
1188:../Libraries/STM32F10x_StdPeriph_Driver/src/stm32f10x_i2c.c ****   *     @arg I2C_FLAG_PECERR: PEC error in reception flag
1189:../Libraries/STM32F10x_StdPeriph_Driver/src/stm32f10x_i2c.c ****   *     @arg I2C_FLAG_OVR: Overrun/Underrun flag (Slave mode)
1190:../Libraries/STM32F10x_StdPeriph_Driver/src/stm32f10x_i2c.c ****   *     @arg I2C_FLAG_AF: Acknowledge failure flag
1191:../Libraries/STM32F10x_StdPeriph_Driver/src/stm32f10x_i2c.c ****   *     @arg I2C_FLAG_ARLO: Arbitration lost flag (Master mode)
1192:../Libraries/STM32F10x_StdPeriph_Driver/src/stm32f10x_i2c.c ****   *     @arg I2C_FLAG_BERR: Bus error flag
1193:../Libraries/STM32F10x_StdPeriph_Driver/src/stm32f10x_i2c.c ****   *   
1194:../Libraries/STM32F10x_StdPeriph_Driver/src/stm32f10x_i2c.c ****   * @note
1195:../Libraries/STM32F10x_StdPeriph_Driver/src/stm32f10x_i2c.c ****   *   - STOPF (STOP detection) is cleared by software sequence: a read operation 
1196:../Libraries/STM32F10x_StdPeriph_Driver/src/stm32f10x_i2c.c ****   *     to I2C_SR1 register (I2C_GetFlagStatus()) followed by a write operation 
1197:../Libraries/STM32F10x_StdPeriph_Driver/src/stm32f10x_i2c.c ****   *     to I2C_CR1 register (I2C_Cmd() to re-enable the I2C peripheral).
1198:../Libraries/STM32F10x_StdPeriph_Driver/src/stm32f10x_i2c.c ****   *   - ADD10 (10-bit header sent) is cleared by software sequence: a read 
1199:../Libraries/STM32F10x_StdPeriph_Driver/src/stm32f10x_i2c.c ****   *     operation to I2C_SR1 (I2C_GetFlagStatus()) followed by writing the 
1200:../Libraries/STM32F10x_StdPeriph_Driver/src/stm32f10x_i2c.c ****   *     second byte of the address in DR register.
1201:../Libraries/STM32F10x_StdPeriph_Driver/src/stm32f10x_i2c.c ****   *   - BTF (Byte Transfer Finished) is cleared by software sequence: a read 
1202:../Libraries/STM32F10x_StdPeriph_Driver/src/stm32f10x_i2c.c ****   *     operation to I2C_SR1 register (I2C_GetFlagStatus()) followed by a 
1203:../Libraries/STM32F10x_StdPeriph_Driver/src/stm32f10x_i2c.c ****   *     read/write to I2C_DR register (I2C_SendData()).
1204:../Libraries/STM32F10x_StdPeriph_Driver/src/stm32f10x_i2c.c ****   *   - ADDR (Address sent) is cleared by software sequence: a read operation to 
1205:../Libraries/STM32F10x_StdPeriph_Driver/src/stm32f10x_i2c.c ****   *     I2C_SR1 register (I2C_GetFlagStatus()) followed by a read operation to 
1206:../Libraries/STM32F10x_StdPeriph_Driver/src/stm32f10x_i2c.c ****   *     I2C_SR2 register ((void)(I2Cx->SR2)).
1207:../Libraries/STM32F10x_StdPeriph_Driver/src/stm32f10x_i2c.c ****   *   - SB (Start Bit) is cleared software sequence: a read operation to I2C_SR1
1208:../Libraries/STM32F10x_StdPeriph_Driver/src/stm32f10x_i2c.c ****   *     register (I2C_GetFlagStatus()) followed by a write operation to I2C_DR
1209:../Libraries/STM32F10x_StdPeriph_Driver/src/stm32f10x_i2c.c ****   *     register  (I2C_SendData()).
1210:../Libraries/STM32F10x_StdPeriph_Driver/src/stm32f10x_i2c.c ****   * @retval None
1211:../Libraries/STM32F10x_StdPeriph_Driver/src/stm32f10x_i2c.c ****   */
1212:../Libraries/STM32F10x_StdPeriph_Driver/src/stm32f10x_i2c.c **** void I2C_ClearFlag(I2C_TypeDef* I2Cx, uint32_t I2C_FLAG)
1213:../Libraries/STM32F10x_StdPeriph_Driver/src/stm32f10x_i2c.c **** {
 21882              		.loc 1 1213 0
 21883              		.cfi_startproc
 21884              		@ args = 0, pretend = 0, frame = 16
 21885              		@ frame_needed = 1, uses_anonymous_args = 0
 21886              		@ link register save eliminated.
 21887 0000 80B4     		push	{r7}
 21888              	.LCFI90:
 21889              		.cfi_def_cfa_offset 4
 21890 0002 85B0     		sub	sp, sp, #20
 21891              	.LCFI91:
 21892              		.cfi_def_cfa_offset 24
 21893 0004 00AF     		add	r7, sp, #0
 21894              		.cfi_offset 7, -4
 21895              	.LCFI92:
 21896              		.cfi_def_cfa_register 7
 21897 0006 7860     		str	r0, [r7, #4]
 21898 0008 3960     		str	r1, [r7, #0]
1214:../Libraries/STM32F10x_StdPeriph_Driver/src/stm32f10x_i2c.c ****   uint32_t flagpos = 0;
 21899              		.loc 1 1214 0
 21900 000a 4FF00003 		mov	r3, #0
 21901 000e FB60     		str	r3, [r7, #12]
1215:../Libraries/STM32F10x_StdPeriph_Driver/src/stm32f10x_i2c.c ****   /* Check the parameters */
1216:../Libraries/STM32F10x_StdPeriph_Driver/src/stm32f10x_i2c.c ****   assert_param(IS_I2C_ALL_PERIPH(I2Cx));
1217:../Libraries/STM32F10x_StdPeriph_Driver/src/stm32f10x_i2c.c ****   assert_param(IS_I2C_CLEAR_FLAG(I2C_FLAG));
1218:../Libraries/STM32F10x_StdPeriph_Driver/src/stm32f10x_i2c.c ****   /* Get the I2C flag position */
1219:../Libraries/STM32F10x_StdPeriph_Driver/src/stm32f10x_i2c.c ****   flagpos = I2C_FLAG & FLAG_Mask;
 21902              		.loc 1 1219 0
 21903 0010 3B68     		ldr	r3, [r7, #0]
 21904 0012 23F07F43 		bic	r3, r3, #-16777216
 21905 0016 FB60     		str	r3, [r7, #12]
1220:../Libraries/STM32F10x_StdPeriph_Driver/src/stm32f10x_i2c.c ****   /* Clear the selected I2C flag */
1221:../Libraries/STM32F10x_StdPeriph_Driver/src/stm32f10x_i2c.c ****   I2Cx->SR1 = (uint16_t)~flagpos;
 21906              		.loc 1 1221 0
 21907 0018 FB68     		ldr	r3, [r7, #12]
 21908 001a 9BB2     		uxth	r3, r3
 21909 001c 6FEA0303 		mvn	r3, r3
 21910 0020 9AB2     		uxth	r2, r3
 21911 0022 7B68     		ldr	r3, [r7, #4]
 21912 0024 9A82     		strh	r2, [r3, #20]	@ movhi
1222:../Libraries/STM32F10x_StdPeriph_Driver/src/stm32f10x_i2c.c **** }
 21913              		.loc 1 1222 0
 21914 0026 07F11407 		add	r7, r7, #20
 21915 002a BD46     		mov	sp, r7
 21916 002c 80BC     		pop	{r7}
 21917 002e 7047     		bx	lr
 21918              		.cfi_endproc
 21919              	.LFE59:
 21921              		.section	.text.I2C_GetITStatus,"ax",%progbits
 21922              		.align	2
 21923              		.global	I2C_GetITStatus
 21924              		.thumb
 21925              		.thumb_func
 21927              	I2C_GetITStatus:
 21928              	.LFB60:
1223:../Libraries/STM32F10x_StdPeriph_Driver/src/stm32f10x_i2c.c **** 
1224:../Libraries/STM32F10x_StdPeriph_Driver/src/stm32f10x_i2c.c **** /**
1225:../Libraries/STM32F10x_StdPeriph_Driver/src/stm32f10x_i2c.c ****   * @brief  Checks whether the specified I2C interrupt has occurred or not.
1226:../Libraries/STM32F10x_StdPeriph_Driver/src/stm32f10x_i2c.c ****   * @param  I2Cx: where x can be 1 or 2 to select the I2C peripheral.
1227:../Libraries/STM32F10x_StdPeriph_Driver/src/stm32f10x_i2c.c ****   * @param  I2C_IT: specifies the interrupt source to check. 
1228:../Libraries/STM32F10x_StdPeriph_Driver/src/stm32f10x_i2c.c ****   *   This parameter can be one of the following values:
1229:../Libraries/STM32F10x_StdPeriph_Driver/src/stm32f10x_i2c.c ****   *     @arg I2C_IT_SMBALERT: SMBus Alert flag
1230:../Libraries/STM32F10x_StdPeriph_Driver/src/stm32f10x_i2c.c ****   *     @arg I2C_IT_TIMEOUT: Timeout or Tlow error flag
1231:../Libraries/STM32F10x_StdPeriph_Driver/src/stm32f10x_i2c.c ****   *     @arg I2C_IT_PECERR: PEC error in reception flag
1232:../Libraries/STM32F10x_StdPeriph_Driver/src/stm32f10x_i2c.c ****   *     @arg I2C_IT_OVR: Overrun/Underrun flag (Slave mode)
1233:../Libraries/STM32F10x_StdPeriph_Driver/src/stm32f10x_i2c.c ****   *     @arg I2C_IT_AF: Acknowledge failure flag
1234:../Libraries/STM32F10x_StdPeriph_Driver/src/stm32f10x_i2c.c ****   *     @arg I2C_IT_ARLO: Arbitration lost flag (Master mode)
1235:../Libraries/STM32F10x_StdPeriph_Driver/src/stm32f10x_i2c.c ****   *     @arg I2C_IT_BERR: Bus error flag
1236:../Libraries/STM32F10x_StdPeriph_Driver/src/stm32f10x_i2c.c ****   *     @arg I2C_IT_TXE: Data register empty flag (Transmitter)
1237:../Libraries/STM32F10x_StdPeriph_Driver/src/stm32f10x_i2c.c ****   *     @arg I2C_IT_RXNE: Data register not empty (Receiver) flag
1238:../Libraries/STM32F10x_StdPeriph_Driver/src/stm32f10x_i2c.c ****   *     @arg I2C_IT_STOPF: Stop detection flag (Slave mode)
1239:../Libraries/STM32F10x_StdPeriph_Driver/src/stm32f10x_i2c.c ****   *     @arg I2C_IT_ADD10: 10-bit header sent flag (Master mode)
1240:../Libraries/STM32F10x_StdPeriph_Driver/src/stm32f10x_i2c.c ****   *     @arg I2C_IT_BTF: Byte transfer finished flag
1241:../Libraries/STM32F10x_StdPeriph_Driver/src/stm32f10x_i2c.c ****   *     @arg I2C_IT_ADDR: Address sent flag (Master mode) "ADSL"
1242:../Libraries/STM32F10x_StdPeriph_Driver/src/stm32f10x_i2c.c ****   *                       Address matched flag (Slave mode)"ENDAD"
1243:../Libraries/STM32F10x_StdPeriph_Driver/src/stm32f10x_i2c.c ****   *     @arg I2C_IT_SB: Start bit flag (Master mode)
1244:../Libraries/STM32F10x_StdPeriph_Driver/src/stm32f10x_i2c.c ****   * @retval The new state of I2C_IT (SET or RESET).
1245:../Libraries/STM32F10x_StdPeriph_Driver/src/stm32f10x_i2c.c ****   */
1246:../Libraries/STM32F10x_StdPeriph_Driver/src/stm32f10x_i2c.c **** ITStatus I2C_GetITStatus(I2C_TypeDef* I2Cx, uint32_t I2C_IT)
1247:../Libraries/STM32F10x_StdPeriph_Driver/src/stm32f10x_i2c.c **** {
 21929              		.loc 1 1247 0
 21930              		.cfi_startproc
 21931              		@ args = 0, pretend = 0, frame = 16
 21932              		@ frame_needed = 1, uses_anonymous_args = 0
 21933              		@ link register save eliminated.
 21934 0000 80B4     		push	{r7}
 21935              	.LCFI93:
 21936              		.cfi_def_cfa_offset 4
 21937 0002 85B0     		sub	sp, sp, #20
 21938              	.LCFI94:
 21939              		.cfi_def_cfa_offset 24
 21940 0004 00AF     		add	r7, sp, #0
 21941              		.cfi_offset 7, -4
 21942              	.LCFI95:
 21943              		.cfi_def_cfa_register 7
 21944 0006 7860     		str	r0, [r7, #4]
 21945 0008 3960     		str	r1, [r7, #0]
1248:../Libraries/STM32F10x_StdPeriph_Driver/src/stm32f10x_i2c.c ****   ITStatus bitstatus = RESET;
 21946              		.loc 1 1248 0
 21947 000a 4FF00003 		mov	r3, #0
 21948 000e FB73     		strb	r3, [r7, #15]
1249:../Libraries/STM32F10x_StdPeriph_Driver/src/stm32f10x_i2c.c ****   uint32_t enablestatus = 0;
 21949              		.loc 1 1249 0
 21950 0010 4FF00003 		mov	r3, #0
 21951 0014 BB60     		str	r3, [r7, #8]
1250:../Libraries/STM32F10x_StdPeriph_Driver/src/stm32f10x_i2c.c **** 
1251:../Libraries/STM32F10x_StdPeriph_Driver/src/stm32f10x_i2c.c ****   /* Check the parameters */
1252:../Libraries/STM32F10x_StdPeriph_Driver/src/stm32f10x_i2c.c ****   assert_param(IS_I2C_ALL_PERIPH(I2Cx));
1253:../Libraries/STM32F10x_StdPeriph_Driver/src/stm32f10x_i2c.c ****   assert_param(IS_I2C_GET_IT(I2C_IT));
1254:../Libraries/STM32F10x_StdPeriph_Driver/src/stm32f10x_i2c.c **** 
1255:../Libraries/STM32F10x_StdPeriph_Driver/src/stm32f10x_i2c.c ****   /* Check if the interrupt source is enabled or not */
1256:../Libraries/STM32F10x_StdPeriph_Driver/src/stm32f10x_i2c.c ****   enablestatus = (uint32_t)(((I2C_IT & ITEN_Mask) >> 16) & (I2Cx->CR2)) ;
 21952              		.loc 1 1256 0
 21953 0016 3B68     		ldr	r3, [r7, #0]
 21954 0018 03F0E063 		and	r3, r3, #117440512
 21955 001c 4FEA1342 		lsr	r2, r3, #16
 21956 0020 7B68     		ldr	r3, [r7, #4]
 21957 0022 9B88     		ldrh	r3, [r3, #4]	@ movhi
 21958 0024 9BB2     		uxth	r3, r3
 21959 0026 02EA0303 		and	r3, r2, r3
 21960 002a BB60     		str	r3, [r7, #8]
1257:../Libraries/STM32F10x_StdPeriph_Driver/src/stm32f10x_i2c.c ****   
1258:../Libraries/STM32F10x_StdPeriph_Driver/src/stm32f10x_i2c.c ****   /* Get bit[23:0] of the flag */
1259:../Libraries/STM32F10x_StdPeriph_Driver/src/stm32f10x_i2c.c ****   I2C_IT &= FLAG_Mask;
 21961              		.loc 1 1259 0
 21962 002c 3B68     		ldr	r3, [r7, #0]
 21963 002e 23F07F43 		bic	r3, r3, #-16777216
 21964 0032 3B60     		str	r3, [r7, #0]
1260:../Libraries/STM32F10x_StdPeriph_Driver/src/stm32f10x_i2c.c **** 
1261:../Libraries/STM32F10x_StdPeriph_Driver/src/stm32f10x_i2c.c ****   /* Check the status of the specified I2C flag */
1262:../Libraries/STM32F10x_StdPeriph_Driver/src/stm32f10x_i2c.c ****   if (((I2Cx->SR1 & I2C_IT) != (uint32_t)RESET) && enablestatus)
 21965              		.loc 1 1262 0
 21966 0034 7B68     		ldr	r3, [r7, #4]
 21967 0036 9B8A     		ldrh	r3, [r3, #20]	@ movhi
 21968 0038 9BB2     		uxth	r3, r3
 21969 003a 1A46     		mov	r2, r3
 21970 003c 3B68     		ldr	r3, [r7, #0]
 21971 003e 02EA0303 		and	r3, r2, r3
 21972 0042 002B     		cmp	r3, #0
 21973 0044 06D0     		beq	.L89
 21974              		.loc 1 1262 0 is_stmt 0 discriminator 1
 21975 0046 BB68     		ldr	r3, [r7, #8]
 21976 0048 002B     		cmp	r3, #0
 21977 004a 03D0     		beq	.L89
1263:../Libraries/STM32F10x_StdPeriph_Driver/src/stm32f10x_i2c.c ****   {
1264:../Libraries/STM32F10x_StdPeriph_Driver/src/stm32f10x_i2c.c ****     /* I2C_IT is set */
1265:../Libraries/STM32F10x_StdPeriph_Driver/src/stm32f10x_i2c.c ****     bitstatus = SET;
 21978              		.loc 1 1265 0 is_stmt 1
 21979 004c 4FF00103 		mov	r3, #1
 21980 0050 FB73     		strb	r3, [r7, #15]
 21981 0052 02E0     		b	.L90
 21982              	.L89:
1266:../Libraries/STM32F10x_StdPeriph_Driver/src/stm32f10x_i2c.c ****   }
1267:../Libraries/STM32F10x_StdPeriph_Driver/src/stm32f10x_i2c.c ****   else
1268:../Libraries/STM32F10x_StdPeriph_Driver/src/stm32f10x_i2c.c ****   {
1269:../Libraries/STM32F10x_StdPeriph_Driver/src/stm32f10x_i2c.c ****     /* I2C_IT is reset */
1270:../Libraries/STM32F10x_StdPeriph_Driver/src/stm32f10x_i2c.c ****     bitstatus = RESET;
 21983              		.loc 1 1270 0
 21984 0054 4FF00003 		mov	r3, #0
 21985 0058 FB73     		strb	r3, [r7, #15]
 21986              	.L90:
1271:../Libraries/STM32F10x_StdPeriph_Driver/src/stm32f10x_i2c.c ****   }
1272:../Libraries/STM32F10x_StdPeriph_Driver/src/stm32f10x_i2c.c ****   /* Return the I2C_IT status */
1273:../Libraries/STM32F10x_StdPeriph_Driver/src/stm32f10x_i2c.c ****   return  bitstatus;
 21987              		.loc 1 1273 0
 21988 005a FB7B     		ldrb	r3, [r7, #15]	@ zero_extendqisi2
1274:../Libraries/STM32F10x_StdPeriph_Driver/src/stm32f10x_i2c.c **** }
 21989              		.loc 1 1274 0
 21990 005c 1846     		mov	r0, r3
 21991 005e 07F11407 		add	r7, r7, #20
 21992 0062 BD46     		mov	sp, r7
 21993 0064 80BC     		pop	{r7}
 21994 0066 7047     		bx	lr
 21995              		.cfi_endproc
 21996              	.LFE60:
 21998              		.section	.text.I2C_ClearITPendingBit,"ax",%progbits
 21999              		.align	2
 22000              		.global	I2C_ClearITPendingBit
 22001              		.thumb
 22002              		.thumb_func
 22004              	I2C_ClearITPendingBit:
 22005              	.LFB61:
1275:../Libraries/STM32F10x_StdPeriph_Driver/src/stm32f10x_i2c.c **** 
1276:../Libraries/STM32F10x_StdPeriph_Driver/src/stm32f10x_i2c.c **** /**
1277:../Libraries/STM32F10x_StdPeriph_Driver/src/stm32f10x_i2c.c ****   * @brief  Clears the I2Cxs interrupt pending bits.
1278:../Libraries/STM32F10x_StdPeriph_Driver/src/stm32f10x_i2c.c ****   * @param  I2Cx: where x can be 1 or 2 to select the I2C peripheral.
1279:../Libraries/STM32F10x_StdPeriph_Driver/src/stm32f10x_i2c.c ****   * @param  I2C_IT: specifies the interrupt pending bit to clear. 
1280:../Libraries/STM32F10x_StdPeriph_Driver/src/stm32f10x_i2c.c ****   *   This parameter can be any combination of the following values:
1281:../Libraries/STM32F10x_StdPeriph_Driver/src/stm32f10x_i2c.c ****   *     @arg I2C_IT_SMBALERT: SMBus Alert interrupt
1282:../Libraries/STM32F10x_StdPeriph_Driver/src/stm32f10x_i2c.c ****   *     @arg I2C_IT_TIMEOUT: Timeout or Tlow error interrupt
1283:../Libraries/STM32F10x_StdPeriph_Driver/src/stm32f10x_i2c.c ****   *     @arg I2C_IT_PECERR: PEC error in reception  interrupt
1284:../Libraries/STM32F10x_StdPeriph_Driver/src/stm32f10x_i2c.c ****   *     @arg I2C_IT_OVR: Overrun/Underrun interrupt (Slave mode)
1285:../Libraries/STM32F10x_StdPeriph_Driver/src/stm32f10x_i2c.c ****   *     @arg I2C_IT_AF: Acknowledge failure interrupt
1286:../Libraries/STM32F10x_StdPeriph_Driver/src/stm32f10x_i2c.c ****   *     @arg I2C_IT_ARLO: Arbitration lost interrupt (Master mode)
1287:../Libraries/STM32F10x_StdPeriph_Driver/src/stm32f10x_i2c.c ****   *     @arg I2C_IT_BERR: Bus error interrupt
1288:../Libraries/STM32F10x_StdPeriph_Driver/src/stm32f10x_i2c.c ****   *   
1289:../Libraries/STM32F10x_StdPeriph_Driver/src/stm32f10x_i2c.c ****   * @note
1290:../Libraries/STM32F10x_StdPeriph_Driver/src/stm32f10x_i2c.c ****   *   - STOPF (STOP detection) is cleared by software sequence: a read operation 
1291:../Libraries/STM32F10x_StdPeriph_Driver/src/stm32f10x_i2c.c ****   *     to I2C_SR1 register (I2C_GetITStatus()) followed by a write operation to 
1292:../Libraries/STM32F10x_StdPeriph_Driver/src/stm32f10x_i2c.c ****   *     I2C_CR1 register (I2C_Cmd() to re-enable the I2C peripheral).
1293:../Libraries/STM32F10x_StdPeriph_Driver/src/stm32f10x_i2c.c ****   *   - ADD10 (10-bit header sent) is cleared by software sequence: a read 
1294:../Libraries/STM32F10x_StdPeriph_Driver/src/stm32f10x_i2c.c ****   *     operation to I2C_SR1 (I2C_GetITStatus()) followed by writing the second 
1295:../Libraries/STM32F10x_StdPeriph_Driver/src/stm32f10x_i2c.c ****   *     byte of the address in I2C_DR register.
1296:../Libraries/STM32F10x_StdPeriph_Driver/src/stm32f10x_i2c.c ****   *   - BTF (Byte Transfer Finished) is cleared by software sequence: a read 
1297:../Libraries/STM32F10x_StdPeriph_Driver/src/stm32f10x_i2c.c ****   *     operation to I2C_SR1 register (I2C_GetITStatus()) followed by a 
1298:../Libraries/STM32F10x_StdPeriph_Driver/src/stm32f10x_i2c.c ****   *     read/write to I2C_DR register (I2C_SendData()).
1299:../Libraries/STM32F10x_StdPeriph_Driver/src/stm32f10x_i2c.c ****   *   - ADDR (Address sent) is cleared by software sequence: a read operation to 
1300:../Libraries/STM32F10x_StdPeriph_Driver/src/stm32f10x_i2c.c ****   *     I2C_SR1 register (I2C_GetITStatus()) followed by a read operation to 
1301:../Libraries/STM32F10x_StdPeriph_Driver/src/stm32f10x_i2c.c ****   *     I2C_SR2 register ((void)(I2Cx->SR2)).
1302:../Libraries/STM32F10x_StdPeriph_Driver/src/stm32f10x_i2c.c ****   *   - SB (Start Bit) is cleared by software sequence: a read operation to 
1303:../Libraries/STM32F10x_StdPeriph_Driver/src/stm32f10x_i2c.c ****   *     I2C_SR1 register (I2C_GetITStatus()) followed by a write operation to 
1304:../Libraries/STM32F10x_StdPeriph_Driver/src/stm32f10x_i2c.c ****   *     I2C_DR register (I2C_SendData()).
1305:../Libraries/STM32F10x_StdPeriph_Driver/src/stm32f10x_i2c.c ****   * @retval None
1306:../Libraries/STM32F10x_StdPeriph_Driver/src/stm32f10x_i2c.c ****   */
1307:../Libraries/STM32F10x_StdPeriph_Driver/src/stm32f10x_i2c.c **** void I2C_ClearITPendingBit(I2C_TypeDef* I2Cx, uint32_t I2C_IT)
1308:../Libraries/STM32F10x_StdPeriph_Driver/src/stm32f10x_i2c.c **** {
 22006              		.loc 1 1308 0
 22007              		.cfi_startproc
 22008              		@ args = 0, pretend = 0, frame = 16
 22009              		@ frame_needed = 1, uses_anonymous_args = 0
 22010              		@ link register save eliminated.
 22011 0000 80B4     		push	{r7}
 22012              	.LCFI96:
 22013              		.cfi_def_cfa_offset 4
 22014 0002 85B0     		sub	sp, sp, #20
 22015              	.LCFI97:
 22016              		.cfi_def_cfa_offset 24
 22017 0004 00AF     		add	r7, sp, #0
 22018              		.cfi_offset 7, -4
 22019              	.LCFI98:
 22020              		.cfi_def_cfa_register 7
 22021 0006 7860     		str	r0, [r7, #4]
 22022 0008 3960     		str	r1, [r7, #0]
1309:../Libraries/STM32F10x_StdPeriph_Driver/src/stm32f10x_i2c.c ****   uint32_t flagpos = 0;
 22023              		.loc 1 1309 0
 22024 000a 4FF00003 		mov	r3, #0
 22025 000e FB60     		str	r3, [r7, #12]
1310:../Libraries/STM32F10x_StdPeriph_Driver/src/stm32f10x_i2c.c ****   /* Check the parameters */
1311:../Libraries/STM32F10x_StdPeriph_Driver/src/stm32f10x_i2c.c ****   assert_param(IS_I2C_ALL_PERIPH(I2Cx));
1312:../Libraries/STM32F10x_StdPeriph_Driver/src/stm32f10x_i2c.c ****   assert_param(IS_I2C_CLEAR_IT(I2C_IT));
1313:../Libraries/STM32F10x_StdPeriph_Driver/src/stm32f10x_i2c.c ****   /* Get the I2C flag position */
1314:../Libraries/STM32F10x_StdPeriph_Driver/src/stm32f10x_i2c.c ****   flagpos = I2C_IT & FLAG_Mask;
 22026              		.loc 1 1314 0
 22027 0010 3B68     		ldr	r3, [r7, #0]
 22028 0012 23F07F43 		bic	r3, r3, #-16777216
 22029 0016 FB60     		str	r3, [r7, #12]
1315:../Libraries/STM32F10x_StdPeriph_Driver/src/stm32f10x_i2c.c ****   /* Clear the selected I2C flag */
1316:../Libraries/STM32F10x_StdPeriph_Driver/src/stm32f10x_i2c.c ****   I2Cx->SR1 = (uint16_t)~flagpos;
 22030              		.loc 1 1316 0
 22031 0018 FB68     		ldr	r3, [r7, #12]
 22032 001a 9BB2     		uxth	r3, r3
 22033 001c 6FEA0303 		mvn	r3, r3
 22034 0020 9AB2     		uxth	r2, r3
 22035 0022 7B68     		ldr	r3, [r7, #4]
 22036 0024 9A82     		strh	r2, [r3, #20]	@ movhi
1317:../Libraries/STM32F10x_StdPeriph_Driver/src/stm32f10x_i2c.c **** }
 22037              		.loc 1 1317 0
 22038 0026 07F11407 		add	r7, r7, #20
 22039 002a BD46     		mov	sp, r7
 22040 002c 80BC     		pop	{r7}
 22041 002e 7047     		bx	lr
 22042              		.cfi_endproc
 22043              	.LFE61:
 22045              		.text
 22046              	.Letext0: