   1              		.syntax unified
   2              		.cpu cortex-m3
   3              		.fpu softvfp
   4              		.eabi_attribute 20, 1
   5              		.eabi_attribute 21, 1
   6              		.eabi_attribute 23, 3
   7              		.eabi_attribute 24, 1
   8              		.eabi_attribute 25, 1
   9              		.eabi_attribute 26, 1
  10              		.eabi_attribute 30, 6
  11              		.eabi_attribute 18, 4
  12              		.thumb
  13              		.file	"stm32f10x_can.c"
  23              	.Ltext0:
  24              		.file 1 "../Libraries/STM32F10x_StdPeriph_Driver/src/stm32f10x_can.c"
 19989              		.align	2
 19990              		.global	CAN_DeInit
 19991              		.thumb
 19992              		.thumb_func
 19994              	CAN_DeInit:
 19995              	.LFB29:
   1:../Libraries/STM32F10x_StdPeriph_Driver/src/stm32f10x_can.c **** /**
   2:../Libraries/STM32F10x_StdPeriph_Driver/src/stm32f10x_can.c ****   ******************************************************************************
   3:../Libraries/STM32F10x_StdPeriph_Driver/src/stm32f10x_can.c ****   * @file    stm32f10x_can.c
   4:../Libraries/STM32F10x_StdPeriph_Driver/src/stm32f10x_can.c ****   * @author  MCD Application Team
   5:../Libraries/STM32F10x_StdPeriph_Driver/src/stm32f10x_can.c ****   * @version V3.5.0
   6:../Libraries/STM32F10x_StdPeriph_Driver/src/stm32f10x_can.c ****   * @date    11-March-2011
   7:../Libraries/STM32F10x_StdPeriph_Driver/src/stm32f10x_can.c ****   * @brief   This file provides all the CAN firmware functions.
   8:../Libraries/STM32F10x_StdPeriph_Driver/src/stm32f10x_can.c ****   ******************************************************************************
   9:../Libraries/STM32F10x_StdPeriph_Driver/src/stm32f10x_can.c ****   * @attention
  10:../Libraries/STM32F10x_StdPeriph_Driver/src/stm32f10x_can.c ****   *
  11:../Libraries/STM32F10x_StdPeriph_Driver/src/stm32f10x_can.c ****   * THE PRESENT FIRMWARE WHICH IS FOR GUIDANCE ONLY AIMS AT PROVIDING CUSTOMERS
  12:../Libraries/STM32F10x_StdPeriph_Driver/src/stm32f10x_can.c ****   * WITH CODING INFORMATION REGARDING THEIR PRODUCTS IN ORDER FOR THEM TO SAVE
  13:../Libraries/STM32F10x_StdPeriph_Driver/src/stm32f10x_can.c ****   * TIME. AS A RESULT, STMICROELECTRONICS SHALL NOT BE HELD LIABLE FOR ANY
  14:../Libraries/STM32F10x_StdPeriph_Driver/src/stm32f10x_can.c ****   * DIRECT, INDIRECT OR CONSEQUENTIAL DAMAGES WITH RESPECT TO ANY CLAIMS ARISING
  15:../Libraries/STM32F10x_StdPeriph_Driver/src/stm32f10x_can.c ****   * FROM THE CONTENT OF SUCH FIRMWARE AND/OR THE USE MADE BY CUSTOMERS OF THE
  16:../Libraries/STM32F10x_StdPeriph_Driver/src/stm32f10x_can.c ****   * CODING INFORMATION CONTAINED HEREIN IN CONNECTION WITH THEIR PRODUCTS.
  17:../Libraries/STM32F10x_StdPeriph_Driver/src/stm32f10x_can.c ****   *
  18:../Libraries/STM32F10x_StdPeriph_Driver/src/stm32f10x_can.c ****   * <h2><center>&copy; COPYRIGHT 2011 STMicroelectronics</center></h2>
  19:../Libraries/STM32F10x_StdPeriph_Driver/src/stm32f10x_can.c ****   ******************************************************************************
  20:../Libraries/STM32F10x_StdPeriph_Driver/src/stm32f10x_can.c ****   */
  21:../Libraries/STM32F10x_StdPeriph_Driver/src/stm32f10x_can.c **** 
  22:../Libraries/STM32F10x_StdPeriph_Driver/src/stm32f10x_can.c **** /* Includes ------------------------------------------------------------------*/
  23:../Libraries/STM32F10x_StdPeriph_Driver/src/stm32f10x_can.c **** #include "stm32f10x_can.h"
  24:../Libraries/STM32F10x_StdPeriph_Driver/src/stm32f10x_can.c **** #include "stm32f10x_rcc.h"
  25:../Libraries/STM32F10x_StdPeriph_Driver/src/stm32f10x_can.c **** 
  26:../Libraries/STM32F10x_StdPeriph_Driver/src/stm32f10x_can.c **** /** @addtogroup STM32F10x_StdPeriph_Driver
  27:../Libraries/STM32F10x_StdPeriph_Driver/src/stm32f10x_can.c ****   * @{
  28:../Libraries/STM32F10x_StdPeriph_Driver/src/stm32f10x_can.c ****   */
  29:../Libraries/STM32F10x_StdPeriph_Driver/src/stm32f10x_can.c **** 
  30:../Libraries/STM32F10x_StdPeriph_Driver/src/stm32f10x_can.c **** /** @defgroup CAN 
  31:../Libraries/STM32F10x_StdPeriph_Driver/src/stm32f10x_can.c ****   * @brief CAN driver modules
  32:../Libraries/STM32F10x_StdPeriph_Driver/src/stm32f10x_can.c ****   * @{
  33:../Libraries/STM32F10x_StdPeriph_Driver/src/stm32f10x_can.c ****   */ 
  34:../Libraries/STM32F10x_StdPeriph_Driver/src/stm32f10x_can.c **** 
  35:../Libraries/STM32F10x_StdPeriph_Driver/src/stm32f10x_can.c **** /** @defgroup CAN_Private_TypesDefinitions
  36:../Libraries/STM32F10x_StdPeriph_Driver/src/stm32f10x_can.c ****   * @{
  37:../Libraries/STM32F10x_StdPeriph_Driver/src/stm32f10x_can.c ****   */
  38:../Libraries/STM32F10x_StdPeriph_Driver/src/stm32f10x_can.c **** 
  39:../Libraries/STM32F10x_StdPeriph_Driver/src/stm32f10x_can.c **** /**
  40:../Libraries/STM32F10x_StdPeriph_Driver/src/stm32f10x_can.c ****   * @}
  41:../Libraries/STM32F10x_StdPeriph_Driver/src/stm32f10x_can.c ****   */
  42:../Libraries/STM32F10x_StdPeriph_Driver/src/stm32f10x_can.c **** 
  43:../Libraries/STM32F10x_StdPeriph_Driver/src/stm32f10x_can.c **** /** @defgroup CAN_Private_Defines
  44:../Libraries/STM32F10x_StdPeriph_Driver/src/stm32f10x_can.c ****   * @{
  45:../Libraries/STM32F10x_StdPeriph_Driver/src/stm32f10x_can.c ****   */
  46:../Libraries/STM32F10x_StdPeriph_Driver/src/stm32f10x_can.c **** 
  47:../Libraries/STM32F10x_StdPeriph_Driver/src/stm32f10x_can.c **** /* CAN Master Control Register bits */
  48:../Libraries/STM32F10x_StdPeriph_Driver/src/stm32f10x_can.c **** 
  49:../Libraries/STM32F10x_StdPeriph_Driver/src/stm32f10x_can.c **** #define MCR_DBF      ((uint32_t)0x00010000) /* software master reset */
  50:../Libraries/STM32F10x_StdPeriph_Driver/src/stm32f10x_can.c **** 
  51:../Libraries/STM32F10x_StdPeriph_Driver/src/stm32f10x_can.c **** /* CAN Mailbox Transmit Request */
  52:../Libraries/STM32F10x_StdPeriph_Driver/src/stm32f10x_can.c **** #define TMIDxR_TXRQ  ((uint32_t)0x00000001) /* Transmit mailbox request */
  53:../Libraries/STM32F10x_StdPeriph_Driver/src/stm32f10x_can.c **** 
  54:../Libraries/STM32F10x_StdPeriph_Driver/src/stm32f10x_can.c **** /* CAN Filter Master Register bits */
  55:../Libraries/STM32F10x_StdPeriph_Driver/src/stm32f10x_can.c **** #define FMR_FINIT    ((uint32_t)0x00000001) /* Filter init mode */
  56:../Libraries/STM32F10x_StdPeriph_Driver/src/stm32f10x_can.c **** 
  57:../Libraries/STM32F10x_StdPeriph_Driver/src/stm32f10x_can.c **** /* Time out for INAK bit */
  58:../Libraries/STM32F10x_StdPeriph_Driver/src/stm32f10x_can.c **** #define INAK_TIMEOUT        ((uint32_t)0x0000FFFF)
  59:../Libraries/STM32F10x_StdPeriph_Driver/src/stm32f10x_can.c **** /* Time out for SLAK bit */
  60:../Libraries/STM32F10x_StdPeriph_Driver/src/stm32f10x_can.c **** #define SLAK_TIMEOUT        ((uint32_t)0x0000FFFF)
  61:../Libraries/STM32F10x_StdPeriph_Driver/src/stm32f10x_can.c **** 
  62:../Libraries/STM32F10x_StdPeriph_Driver/src/stm32f10x_can.c **** 
  63:../Libraries/STM32F10x_StdPeriph_Driver/src/stm32f10x_can.c **** 
  64:../Libraries/STM32F10x_StdPeriph_Driver/src/stm32f10x_can.c **** /* Flags in TSR register */
  65:../Libraries/STM32F10x_StdPeriph_Driver/src/stm32f10x_can.c **** #define CAN_FLAGS_TSR              ((uint32_t)0x08000000) 
  66:../Libraries/STM32F10x_StdPeriph_Driver/src/stm32f10x_can.c **** /* Flags in RF1R register */
  67:../Libraries/STM32F10x_StdPeriph_Driver/src/stm32f10x_can.c **** #define CAN_FLAGS_RF1R             ((uint32_t)0x04000000) 
  68:../Libraries/STM32F10x_StdPeriph_Driver/src/stm32f10x_can.c **** /* Flags in RF0R register */
  69:../Libraries/STM32F10x_StdPeriph_Driver/src/stm32f10x_can.c **** #define CAN_FLAGS_RF0R             ((uint32_t)0x02000000) 
  70:../Libraries/STM32F10x_StdPeriph_Driver/src/stm32f10x_can.c **** /* Flags in MSR register */
  71:../Libraries/STM32F10x_StdPeriph_Driver/src/stm32f10x_can.c **** #define CAN_FLAGS_MSR              ((uint32_t)0x01000000) 
  72:../Libraries/STM32F10x_StdPeriph_Driver/src/stm32f10x_can.c **** /* Flags in ESR register */
  73:../Libraries/STM32F10x_StdPeriph_Driver/src/stm32f10x_can.c **** #define CAN_FLAGS_ESR              ((uint32_t)0x00F00000) 
  74:../Libraries/STM32F10x_StdPeriph_Driver/src/stm32f10x_can.c **** 
  75:../Libraries/STM32F10x_StdPeriph_Driver/src/stm32f10x_can.c **** /* Mailboxes definition */
  76:../Libraries/STM32F10x_StdPeriph_Driver/src/stm32f10x_can.c **** #define CAN_TXMAILBOX_0                   ((uint8_t)0x00)
  77:../Libraries/STM32F10x_StdPeriph_Driver/src/stm32f10x_can.c **** #define CAN_TXMAILBOX_1                   ((uint8_t)0x01)
  78:../Libraries/STM32F10x_StdPeriph_Driver/src/stm32f10x_can.c **** #define CAN_TXMAILBOX_2                   ((uint8_t)0x02) 
  79:../Libraries/STM32F10x_StdPeriph_Driver/src/stm32f10x_can.c **** 
  80:../Libraries/STM32F10x_StdPeriph_Driver/src/stm32f10x_can.c **** 
  81:../Libraries/STM32F10x_StdPeriph_Driver/src/stm32f10x_can.c **** 
  82:../Libraries/STM32F10x_StdPeriph_Driver/src/stm32f10x_can.c **** #define CAN_MODE_MASK              ((uint32_t) 0x00000003)
  83:../Libraries/STM32F10x_StdPeriph_Driver/src/stm32f10x_can.c **** /**
  84:../Libraries/STM32F10x_StdPeriph_Driver/src/stm32f10x_can.c ****   * @}
  85:../Libraries/STM32F10x_StdPeriph_Driver/src/stm32f10x_can.c ****   */
  86:../Libraries/STM32F10x_StdPeriph_Driver/src/stm32f10x_can.c **** 
  87:../Libraries/STM32F10x_StdPeriph_Driver/src/stm32f10x_can.c **** /** @defgroup CAN_Private_Macros
  88:../Libraries/STM32F10x_StdPeriph_Driver/src/stm32f10x_can.c ****   * @{
  89:../Libraries/STM32F10x_StdPeriph_Driver/src/stm32f10x_can.c ****   */
  90:../Libraries/STM32F10x_StdPeriph_Driver/src/stm32f10x_can.c **** 
  91:../Libraries/STM32F10x_StdPeriph_Driver/src/stm32f10x_can.c **** /**
  92:../Libraries/STM32F10x_StdPeriph_Driver/src/stm32f10x_can.c ****   * @}
  93:../Libraries/STM32F10x_StdPeriph_Driver/src/stm32f10x_can.c ****   */
  94:../Libraries/STM32F10x_StdPeriph_Driver/src/stm32f10x_can.c **** 
  95:../Libraries/STM32F10x_StdPeriph_Driver/src/stm32f10x_can.c **** /** @defgroup CAN_Private_Variables
  96:../Libraries/STM32F10x_StdPeriph_Driver/src/stm32f10x_can.c ****   * @{
  97:../Libraries/STM32F10x_StdPeriph_Driver/src/stm32f10x_can.c ****   */
  98:../Libraries/STM32F10x_StdPeriph_Driver/src/stm32f10x_can.c **** 
  99:../Libraries/STM32F10x_StdPeriph_Driver/src/stm32f10x_can.c **** /**
 100:../Libraries/STM32F10x_StdPeriph_Driver/src/stm32f10x_can.c ****   * @}
 101:../Libraries/STM32F10x_StdPeriph_Driver/src/stm32f10x_can.c ****   */
 102:../Libraries/STM32F10x_StdPeriph_Driver/src/stm32f10x_can.c **** 
 103:../Libraries/STM32F10x_StdPeriph_Driver/src/stm32f10x_can.c **** /** @defgroup CAN_Private_FunctionPrototypes
 104:../Libraries/STM32F10x_StdPeriph_Driver/src/stm32f10x_can.c ****   * @{
 105:../Libraries/STM32F10x_StdPeriph_Driver/src/stm32f10x_can.c ****   */
 106:../Libraries/STM32F10x_StdPeriph_Driver/src/stm32f10x_can.c **** 
 107:../Libraries/STM32F10x_StdPeriph_Driver/src/stm32f10x_can.c **** static ITStatus CheckITStatus(uint32_t CAN_Reg, uint32_t It_Bit);
 108:../Libraries/STM32F10x_StdPeriph_Driver/src/stm32f10x_can.c **** 
 109:../Libraries/STM32F10x_StdPeriph_Driver/src/stm32f10x_can.c **** /**
 110:../Libraries/STM32F10x_StdPeriph_Driver/src/stm32f10x_can.c ****   * @}
 111:../Libraries/STM32F10x_StdPeriph_Driver/src/stm32f10x_can.c ****   */
 112:../Libraries/STM32F10x_StdPeriph_Driver/src/stm32f10x_can.c **** 
 113:../Libraries/STM32F10x_StdPeriph_Driver/src/stm32f10x_can.c **** /** @defgroup CAN_Private_Functions
 114:../Libraries/STM32F10x_StdPeriph_Driver/src/stm32f10x_can.c ****   * @{
 115:../Libraries/STM32F10x_StdPeriph_Driver/src/stm32f10x_can.c ****   */
 116:../Libraries/STM32F10x_StdPeriph_Driver/src/stm32f10x_can.c **** 
 117:../Libraries/STM32F10x_StdPeriph_Driver/src/stm32f10x_can.c **** /**
 118:../Libraries/STM32F10x_StdPeriph_Driver/src/stm32f10x_can.c ****   * @brief  Deinitializes the CAN peripheral registers to their default reset values.
 119:../Libraries/STM32F10x_StdPeriph_Driver/src/stm32f10x_can.c ****   * @param  CANx: where x can be 1 or 2 to select the CAN peripheral.
 120:../Libraries/STM32F10x_StdPeriph_Driver/src/stm32f10x_can.c ****   * @retval None.
 121:../Libraries/STM32F10x_StdPeriph_Driver/src/stm32f10x_can.c ****   */
 122:../Libraries/STM32F10x_StdPeriph_Driver/src/stm32f10x_can.c **** void CAN_DeInit(CAN_TypeDef* CANx)
 123:../Libraries/STM32F10x_StdPeriph_Driver/src/stm32f10x_can.c **** {
 19996              		.loc 1 123 0
 19997              		.cfi_startproc
 19998              		@ args = 0, pretend = 0, frame = 8
 19999              		@ frame_needed = 1, uses_anonymous_args = 0
 20000 0000 80B5     		push	{r7, lr}
 20001              	.LCFI0:
 20002              		.cfi_def_cfa_offset 8
 20003 0002 82B0     		sub	sp, sp, #8
 20004              	.LCFI1:
 20005              		.cfi_def_cfa_offset 16
 20006 0004 00AF     		add	r7, sp, #0
 20007              		.cfi_offset 14, -4
 20008              		.cfi_offset 7, -8
 20009              	.LCFI2:
 20010              		.cfi_def_cfa_register 7
 20011 0006 7860     		str	r0, [r7, #4]
 124:../Libraries/STM32F10x_StdPeriph_Driver/src/stm32f10x_can.c ****   /* Check the parameters */
 125:../Libraries/STM32F10x_StdPeriph_Driver/src/stm32f10x_can.c ****   assert_param(IS_CAN_ALL_PERIPH(CANx));
 126:../Libraries/STM32F10x_StdPeriph_Driver/src/stm32f10x_can.c ****  
 127:../Libraries/STM32F10x_StdPeriph_Driver/src/stm32f10x_can.c ****   if (CANx == CAN1)
 20012              		.loc 1 127 0
 20013 0008 7A68     		ldr	r2, [r7, #4]
 20014 000a 104B     		ldr	r3, .L4
 20015 000c 9A42     		cmp	r2, r3
 20016 000e 0CD1     		bne	.L2
 128:../Libraries/STM32F10x_StdPeriph_Driver/src/stm32f10x_can.c ****   {
 129:../Libraries/STM32F10x_StdPeriph_Driver/src/stm32f10x_can.c ****     /* Enable CAN1 reset state */
 130:../Libraries/STM32F10x_StdPeriph_Driver/src/stm32f10x_can.c ****     RCC_APB1PeriphResetCmd(RCC_APB1Periph_CAN1, ENABLE);
 20017              		.loc 1 130 0
 20018 0010 4FF00070 		mov	r0, #33554432
 20019 0014 4FF00101 		mov	r1, #1
 20020 0018 FFF7FEFF 		bl	RCC_APB1PeriphResetCmd
 131:../Libraries/STM32F10x_StdPeriph_Driver/src/stm32f10x_can.c ****     /* Release CAN1 from reset state */
 132:../Libraries/STM32F10x_StdPeriph_Driver/src/stm32f10x_can.c ****     RCC_APB1PeriphResetCmd(RCC_APB1Periph_CAN1, DISABLE);
 20021              		.loc 1 132 0
 20022 001c 4FF00070 		mov	r0, #33554432
 20023 0020 4FF00001 		mov	r1, #0
 20024 0024 FFF7FEFF 		bl	RCC_APB1PeriphResetCmd
 20025 0028 0BE0     		b	.L1
 20026              	.L2:
 133:../Libraries/STM32F10x_StdPeriph_Driver/src/stm32f10x_can.c ****   }
 134:../Libraries/STM32F10x_StdPeriph_Driver/src/stm32f10x_can.c ****   else
 135:../Libraries/STM32F10x_StdPeriph_Driver/src/stm32f10x_can.c ****   {  
 136:../Libraries/STM32F10x_StdPeriph_Driver/src/stm32f10x_can.c ****     /* Enable CAN2 reset state */
 137:../Libraries/STM32F10x_StdPeriph_Driver/src/stm32f10x_can.c ****     RCC_APB1PeriphResetCmd(RCC_APB1Periph_CAN2, ENABLE);
 20027              		.loc 1 137 0
 20028 002a 4FF08060 		mov	r0, #67108864
 20029 002e 4FF00101 		mov	r1, #1
 20030 0032 FFF7FEFF 		bl	RCC_APB1PeriphResetCmd
 138:../Libraries/STM32F10x_StdPeriph_Driver/src/stm32f10x_can.c ****     /* Release CAN2 from reset state */
 139:../Libraries/STM32F10x_StdPeriph_Driver/src/stm32f10x_can.c ****     RCC_APB1PeriphResetCmd(RCC_APB1Periph_CAN2, DISABLE);
 20031              		.loc 1 139 0
 20032 0036 4FF08060 		mov	r0, #67108864
 20033 003a 4FF00001 		mov	r1, #0
 20034 003e FFF7FEFF 		bl	RCC_APB1PeriphResetCmd
 20035              	.L1:
 140:../Libraries/STM32F10x_StdPeriph_Driver/src/stm32f10x_can.c ****   }
 141:../Libraries/STM32F10x_StdPeriph_Driver/src/stm32f10x_can.c **** }
 20036              		.loc 1 141 0
 20037 0042 07F10807 		add	r7, r7, #8
 20038 0046 BD46     		mov	sp, r7
 20039 0048 80BD     		pop	{r7, pc}
 20040              	.L5:
 20041 004a 00BF     		.align	2
 20042              	.L4:
 20043 004c 00640040 		.word	1073767424
 20044              		.cfi_endproc
 20045              	.LFE29:
 20047              		.section	.text.CAN_Init,"ax",%progbits
 20048              		.align	2
 20049              		.global	CAN_Init
 20050              		.thumb
 20051              		.thumb_func
 20053              	CAN_Init:
 20054              	.LFB30:
 142:../Libraries/STM32F10x_StdPeriph_Driver/src/stm32f10x_can.c **** 
 143:../Libraries/STM32F10x_StdPeriph_Driver/src/stm32f10x_can.c **** /**
 144:../Libraries/STM32F10x_StdPeriph_Driver/src/stm32f10x_can.c ****   * @brief  Initializes the CAN peripheral according to the specified
 145:../Libraries/STM32F10x_StdPeriph_Driver/src/stm32f10x_can.c ****   *         parameters in the CAN_InitStruct.
 146:../Libraries/STM32F10x_StdPeriph_Driver/src/stm32f10x_can.c ****   * @param  CANx:           where x can be 1 or 2 to to select the CAN 
 147:../Libraries/STM32F10x_StdPeriph_Driver/src/stm32f10x_can.c ****   *                         peripheral.
 148:../Libraries/STM32F10x_StdPeriph_Driver/src/stm32f10x_can.c ****   * @param  CAN_InitStruct: pointer to a CAN_InitTypeDef structure that
 149:../Libraries/STM32F10x_StdPeriph_Driver/src/stm32f10x_can.c ****   *                         contains the configuration information for the 
 150:../Libraries/STM32F10x_StdPeriph_Driver/src/stm32f10x_can.c ****   *                         CAN peripheral.
 151:../Libraries/STM32F10x_StdPeriph_Driver/src/stm32f10x_can.c ****   * @retval Constant indicates initialization succeed which will be 
 152:../Libraries/STM32F10x_StdPeriph_Driver/src/stm32f10x_can.c ****   *         CAN_InitStatus_Failed or CAN_InitStatus_Success.
 153:../Libraries/STM32F10x_StdPeriph_Driver/src/stm32f10x_can.c ****   */
 154:../Libraries/STM32F10x_StdPeriph_Driver/src/stm32f10x_can.c **** uint8_t CAN_Init(CAN_TypeDef* CANx, CAN_InitTypeDef* CAN_InitStruct)
 155:../Libraries/STM32F10x_StdPeriph_Driver/src/stm32f10x_can.c **** {
 20055              		.loc 1 155 0
 20056              		.cfi_startproc
 20057              		@ args = 0, pretend = 0, frame = 16
 20058              		@ frame_needed = 1, uses_anonymous_args = 0
 20059              		@ link register save eliminated.
 20060 0000 80B4     		push	{r7}
 20061              	.LCFI3:
 20062              		.cfi_def_cfa_offset 4
 20063 0002 85B0     		sub	sp, sp, #20
 20064              	.LCFI4:
 20065              		.cfi_def_cfa_offset 24
 20066 0004 00AF     		add	r7, sp, #0
 20067              		.cfi_offset 7, -4
 20068              	.LCFI5:
 20069              		.cfi_def_cfa_register 7
 20070 0006 7860     		str	r0, [r7, #4]
 20071 0008 3960     		str	r1, [r7, #0]
 156:../Libraries/STM32F10x_StdPeriph_Driver/src/stm32f10x_can.c ****   uint8_t InitStatus = CAN_InitStatus_Failed;
 20072              		.loc 1 156 0
 20073 000a 4FF00003 		mov	r3, #0
 20074 000e FB73     		strb	r3, [r7, #15]
 157:../Libraries/STM32F10x_StdPeriph_Driver/src/stm32f10x_can.c ****   uint32_t wait_ack = 0x00000000;
 20075              		.loc 1 157 0
 20076 0010 4FF00003 		mov	r3, #0
 20077 0014 BB60     		str	r3, [r7, #8]
 158:../Libraries/STM32F10x_StdPeriph_Driver/src/stm32f10x_can.c ****   /* Check the parameters */
 159:../Libraries/STM32F10x_StdPeriph_Driver/src/stm32f10x_can.c ****   assert_param(IS_CAN_ALL_PERIPH(CANx));
 160:../Libraries/STM32F10x_StdPeriph_Driver/src/stm32f10x_can.c ****   assert_param(IS_FUNCTIONAL_STATE(CAN_InitStruct->CAN_TTCM));
 161:../Libraries/STM32F10x_StdPeriph_Driver/src/stm32f10x_can.c ****   assert_param(IS_FUNCTIONAL_STATE(CAN_InitStruct->CAN_ABOM));
 162:../Libraries/STM32F10x_StdPeriph_Driver/src/stm32f10x_can.c ****   assert_param(IS_FUNCTIONAL_STATE(CAN_InitStruct->CAN_AWUM));
 163:../Libraries/STM32F10x_StdPeriph_Driver/src/stm32f10x_can.c ****   assert_param(IS_FUNCTIONAL_STATE(CAN_InitStruct->CAN_NART));
 164:../Libraries/STM32F10x_StdPeriph_Driver/src/stm32f10x_can.c ****   assert_param(IS_FUNCTIONAL_STATE(CAN_InitStruct->CAN_RFLM));
 165:../Libraries/STM32F10x_StdPeriph_Driver/src/stm32f10x_can.c ****   assert_param(IS_FUNCTIONAL_STATE(CAN_InitStruct->CAN_TXFP));
 166:../Libraries/STM32F10x_StdPeriph_Driver/src/stm32f10x_can.c ****   assert_param(IS_CAN_MODE(CAN_InitStruct->CAN_Mode));
 167:../Libraries/STM32F10x_StdPeriph_Driver/src/stm32f10x_can.c ****   assert_param(IS_CAN_SJW(CAN_InitStruct->CAN_SJW));
 168:../Libraries/STM32F10x_StdPeriph_Driver/src/stm32f10x_can.c ****   assert_param(IS_CAN_BS1(CAN_InitStruct->CAN_BS1));
 169:../Libraries/STM32F10x_StdPeriph_Driver/src/stm32f10x_can.c ****   assert_param(IS_CAN_BS2(CAN_InitStruct->CAN_BS2));
 170:../Libraries/STM32F10x_StdPeriph_Driver/src/stm32f10x_can.c ****   assert_param(IS_CAN_PRESCALER(CAN_InitStruct->CAN_Prescaler));
 171:../Libraries/STM32F10x_StdPeriph_Driver/src/stm32f10x_can.c **** 
 172:../Libraries/STM32F10x_StdPeriph_Driver/src/stm32f10x_can.c ****   /* Exit from sleep mode */
 173:../Libraries/STM32F10x_StdPeriph_Driver/src/stm32f10x_can.c ****   CANx->MCR &= (~(uint32_t)CAN_MCR_SLEEP);
 20078              		.loc 1 173 0
 20079 0016 7B68     		ldr	r3, [r7, #4]
 20080 0018 1B68     		ldr	r3, [r3, #0]
 20081 001a 23F00202 		bic	r2, r3, #2
 20082 001e 7B68     		ldr	r3, [r7, #4]
 20083 0020 1A60     		str	r2, [r3, #0]
 174:../Libraries/STM32F10x_StdPeriph_Driver/src/stm32f10x_can.c **** 
 175:../Libraries/STM32F10x_StdPeriph_Driver/src/stm32f10x_can.c ****   /* Request initialisation */
 176:../Libraries/STM32F10x_StdPeriph_Driver/src/stm32f10x_can.c ****   CANx->MCR |= CAN_MCR_INRQ ;
 20084              		.loc 1 176 0
 20085 0022 7B68     		ldr	r3, [r7, #4]
 20086 0024 1B68     		ldr	r3, [r3, #0]
 20087 0026 43F00102 		orr	r2, r3, #1
 20088 002a 7B68     		ldr	r3, [r7, #4]
 20089 002c 1A60     		str	r2, [r3, #0]
 177:../Libraries/STM32F10x_StdPeriph_Driver/src/stm32f10x_can.c **** 
 178:../Libraries/STM32F10x_StdPeriph_Driver/src/stm32f10x_can.c ****   /* Wait the acknowledge */
 179:../Libraries/STM32F10x_StdPeriph_Driver/src/stm32f10x_can.c ****   while (((CANx->MSR & CAN_MSR_INAK) != CAN_MSR_INAK) && (wait_ack != INAK_TIMEOUT))
 20090              		.loc 1 179 0
 20091 002e 03E0     		b	.L7
 20092              	.L9:
 180:../Libraries/STM32F10x_StdPeriph_Driver/src/stm32f10x_can.c ****   {
 181:../Libraries/STM32F10x_StdPeriph_Driver/src/stm32f10x_can.c ****     wait_ack++;
 20093              		.loc 1 181 0
 20094 0030 BB68     		ldr	r3, [r7, #8]
 20095 0032 03F10103 		add	r3, r3, #1
 20096 0036 BB60     		str	r3, [r7, #8]
 20097              	.L7:
 179:../Libraries/STM32F10x_StdPeriph_Driver/src/stm32f10x_can.c ****   while (((CANx->MSR & CAN_MSR_INAK) != CAN_MSR_INAK) && (wait_ack != INAK_TIMEOUT))
 20098              		.loc 1 179 0 discriminator 1
 20099 0038 7B68     		ldr	r3, [r7, #4]
 20100 003a 5B68     		ldr	r3, [r3, #4]
 20101 003c 03F00103 		and	r3, r3, #1
 20102 0040 002B     		cmp	r3, #0
 20103 0042 04D1     		bne	.L8
 179:../Libraries/STM32F10x_StdPeriph_Driver/src/stm32f10x_can.c ****   while (((CANx->MSR & CAN_MSR_INAK) != CAN_MSR_INAK) && (wait_ack != INAK_TIMEOUT))
 20104              		.loc 1 179 0 is_stmt 0 discriminator 2
 20105 0044 BA68     		ldr	r2, [r7, #8]
 20106 0046 4FF6FF73 		movw	r3, #65535
 20107 004a 9A42     		cmp	r2, r3
 20108 004c F0D1     		bne	.L9
 20109              	.L8:
 182:../Libraries/STM32F10x_StdPeriph_Driver/src/stm32f10x_can.c ****   }
 183:../Libraries/STM32F10x_StdPeriph_Driver/src/stm32f10x_can.c **** 
 184:../Libraries/STM32F10x_StdPeriph_Driver/src/stm32f10x_can.c ****   /* Check acknowledge */
 185:../Libraries/STM32F10x_StdPeriph_Driver/src/stm32f10x_can.c ****   if ((CANx->MSR & CAN_MSR_INAK) != CAN_MSR_INAK)
 20110              		.loc 1 185 0 is_stmt 1
 20111 004e 7B68     		ldr	r3, [r7, #4]
 20112 0050 5B68     		ldr	r3, [r3, #4]
 20113 0052 03F00103 		and	r3, r3, #1
 20114 0056 002B     		cmp	r3, #0
 20115 0058 03D1     		bne	.L10
 186:../Libraries/STM32F10x_StdPeriph_Driver/src/stm32f10x_can.c ****   {
 187:../Libraries/STM32F10x_StdPeriph_Driver/src/stm32f10x_can.c ****     InitStatus = CAN_InitStatus_Failed;
 20116              		.loc 1 187 0
 20117 005a 4FF00003 		mov	r3, #0
 20118 005e FB73     		strb	r3, [r7, #15]
 20119 0060 A7E0     		b	.L11
 20120              	.L10:
 188:../Libraries/STM32F10x_StdPeriph_Driver/src/stm32f10x_can.c ****   }
 189:../Libraries/STM32F10x_StdPeriph_Driver/src/stm32f10x_can.c ****   else 
 190:../Libraries/STM32F10x_StdPeriph_Driver/src/stm32f10x_can.c ****   {
 191:../Libraries/STM32F10x_StdPeriph_Driver/src/stm32f10x_can.c ****     /* Set the time triggered communication mode */
 192:../Libraries/STM32F10x_StdPeriph_Driver/src/stm32f10x_can.c ****     if (CAN_InitStruct->CAN_TTCM == ENABLE)
 20121              		.loc 1 192 0
 20122 0062 3B68     		ldr	r3, [r7, #0]
 20123 0064 9B79     		ldrb	r3, [r3, #6]	@ zero_extendqisi2
 20124 0066 012B     		cmp	r3, #1
 20125 0068 06D1     		bne	.L12
 193:../Libraries/STM32F10x_StdPeriph_Driver/src/stm32f10x_can.c ****     {
 194:../Libraries/STM32F10x_StdPeriph_Driver/src/stm32f10x_can.c ****       CANx->MCR |= CAN_MCR_TTCM;
 20126              		.loc 1 194 0
 20127 006a 7B68     		ldr	r3, [r7, #4]
 20128 006c 1B68     		ldr	r3, [r3, #0]
 20129 006e 43F08002 		orr	r2, r3, #128
 20130 0072 7B68     		ldr	r3, [r7, #4]
 20131 0074 1A60     		str	r2, [r3, #0]
 20132 0076 05E0     		b	.L13
 20133              	.L12:
 195:../Libraries/STM32F10x_StdPeriph_Driver/src/stm32f10x_can.c ****     }
 196:../Libraries/STM32F10x_StdPeriph_Driver/src/stm32f10x_can.c ****     else
 197:../Libraries/STM32F10x_StdPeriph_Driver/src/stm32f10x_can.c ****     {
 198:../Libraries/STM32F10x_StdPeriph_Driver/src/stm32f10x_can.c ****       CANx->MCR &= ~(uint32_t)CAN_MCR_TTCM;
 20134              		.loc 1 198 0
 20135 0078 7B68     		ldr	r3, [r7, #4]
 20136 007a 1B68     		ldr	r3, [r3, #0]
 20137 007c 23F08002 		bic	r2, r3, #128
 20138 0080 7B68     		ldr	r3, [r7, #4]
 20139 0082 1A60     		str	r2, [r3, #0]
 20140              	.L13:
 199:../Libraries/STM32F10x_StdPeriph_Driver/src/stm32f10x_can.c ****     }
 200:../Libraries/STM32F10x_StdPeriph_Driver/src/stm32f10x_can.c **** 
 201:../Libraries/STM32F10x_StdPeriph_Driver/src/stm32f10x_can.c ****     /* Set the automatic bus-off management */
 202:../Libraries/STM32F10x_StdPeriph_Driver/src/stm32f10x_can.c ****     if (CAN_InitStruct->CAN_ABOM == ENABLE)
 20141              		.loc 1 202 0
 20142 0084 3B68     		ldr	r3, [r7, #0]
 20143 0086 DB79     		ldrb	r3, [r3, #7]	@ zero_extendqisi2
 20144 0088 012B     		cmp	r3, #1
 20145 008a 06D1     		bne	.L14
 203:../Libraries/STM32F10x_StdPeriph_Driver/src/stm32f10x_can.c ****     {
 204:../Libraries/STM32F10x_StdPeriph_Driver/src/stm32f10x_can.c ****       CANx->MCR |= CAN_MCR_ABOM;
 20146              		.loc 1 204 0
 20147 008c 7B68     		ldr	r3, [r7, #4]
 20148 008e 1B68     		ldr	r3, [r3, #0]
 20149 0090 43F04002 		orr	r2, r3, #64
 20150 0094 7B68     		ldr	r3, [r7, #4]
 20151 0096 1A60     		str	r2, [r3, #0]
 20152 0098 05E0     		b	.L15
 20153              	.L14:
 205:../Libraries/STM32F10x_StdPeriph_Driver/src/stm32f10x_can.c ****     }
 206:../Libraries/STM32F10x_StdPeriph_Driver/src/stm32f10x_can.c ****     else
 207:../Libraries/STM32F10x_StdPeriph_Driver/src/stm32f10x_can.c ****     {
 208:../Libraries/STM32F10x_StdPeriph_Driver/src/stm32f10x_can.c ****       CANx->MCR &= ~(uint32_t)CAN_MCR_ABOM;
 20154              		.loc 1 208 0
 20155 009a 7B68     		ldr	r3, [r7, #4]
 20156 009c 1B68     		ldr	r3, [r3, #0]
 20157 009e 23F04002 		bic	r2, r3, #64
 20158 00a2 7B68     		ldr	r3, [r7, #4]
 20159 00a4 1A60     		str	r2, [r3, #0]
 20160              	.L15:
 209:../Libraries/STM32F10x_StdPeriph_Driver/src/stm32f10x_can.c ****     }
 210:../Libraries/STM32F10x_StdPeriph_Driver/src/stm32f10x_can.c **** 
 211:../Libraries/STM32F10x_StdPeriph_Driver/src/stm32f10x_can.c ****     /* Set the automatic wake-up mode */
 212:../Libraries/STM32F10x_StdPeriph_Driver/src/stm32f10x_can.c ****     if (CAN_InitStruct->CAN_AWUM == ENABLE)
 20161              		.loc 1 212 0
 20162 00a6 3B68     		ldr	r3, [r7, #0]
 20163 00a8 1B7A     		ldrb	r3, [r3, #8]	@ zero_extendqisi2
 20164 00aa 012B     		cmp	r3, #1
 20165 00ac 06D1     		bne	.L16
 213:../Libraries/STM32F10x_StdPeriph_Driver/src/stm32f10x_can.c ****     {
 214:../Libraries/STM32F10x_StdPeriph_Driver/src/stm32f10x_can.c ****       CANx->MCR |= CAN_MCR_AWUM;
 20166              		.loc 1 214 0
 20167 00ae 7B68     		ldr	r3, [r7, #4]
 20168 00b0 1B68     		ldr	r3, [r3, #0]
 20169 00b2 43F02002 		orr	r2, r3, #32
 20170 00b6 7B68     		ldr	r3, [r7, #4]
 20171 00b8 1A60     		str	r2, [r3, #0]
 20172 00ba 05E0     		b	.L17
 20173              	.L16:
 215:../Libraries/STM32F10x_StdPeriph_Driver/src/stm32f10x_can.c ****     }
 216:../Libraries/STM32F10x_StdPeriph_Driver/src/stm32f10x_can.c ****     else
 217:../Libraries/STM32F10x_StdPeriph_Driver/src/stm32f10x_can.c ****     {
 218:../Libraries/STM32F10x_StdPeriph_Driver/src/stm32f10x_can.c ****       CANx->MCR &= ~(uint32_t)CAN_MCR_AWUM;
 20174              		.loc 1 218 0
 20175 00bc 7B68     		ldr	r3, [r7, #4]
 20176 00be 1B68     		ldr	r3, [r3, #0]
 20177 00c0 23F02002 		bic	r2, r3, #32
 20178 00c4 7B68     		ldr	r3, [r7, #4]
 20179 00c6 1A60     		str	r2, [r3, #0]
 20180              	.L17:
 219:../Libraries/STM32F10x_StdPeriph_Driver/src/stm32f10x_can.c ****     }
 220:../Libraries/STM32F10x_StdPeriph_Driver/src/stm32f10x_can.c **** 
 221:../Libraries/STM32F10x_StdPeriph_Driver/src/stm32f10x_can.c ****     /* Set the no automatic retransmission */
 222:../Libraries/STM32F10x_StdPeriph_Driver/src/stm32f10x_can.c ****     if (CAN_InitStruct->CAN_NART == ENABLE)
 20181              		.loc 1 222 0
 20182 00c8 3B68     		ldr	r3, [r7, #0]
 20183 00ca 5B7A     		ldrb	r3, [r3, #9]	@ zero_extendqisi2
 20184 00cc 012B     		cmp	r3, #1
 20185 00ce 06D1     		bne	.L18
 223:../Libraries/STM32F10x_StdPeriph_Driver/src/stm32f10x_can.c ****     {
 224:../Libraries/STM32F10x_StdPeriph_Driver/src/stm32f10x_can.c ****       CANx->MCR |= CAN_MCR_NART;
 20186              		.loc 1 224 0
 20187 00d0 7B68     		ldr	r3, [r7, #4]
 20188 00d2 1B68     		ldr	r3, [r3, #0]
 20189 00d4 43F01002 		orr	r2, r3, #16
 20190 00d8 7B68     		ldr	r3, [r7, #4]
 20191 00da 1A60     		str	r2, [r3, #0]
 20192 00dc 05E0     		b	.L19
 20193              	.L18:
 225:../Libraries/STM32F10x_StdPeriph_Driver/src/stm32f10x_can.c ****     }
 226:../Libraries/STM32F10x_StdPeriph_Driver/src/stm32f10x_can.c ****     else
 227:../Libraries/STM32F10x_StdPeriph_Driver/src/stm32f10x_can.c ****     {
 228:../Libraries/STM32F10x_StdPeriph_Driver/src/stm32f10x_can.c ****       CANx->MCR &= ~(uint32_t)CAN_MCR_NART;
 20194              		.loc 1 228 0
 20195 00de 7B68     		ldr	r3, [r7, #4]
 20196 00e0 1B68     		ldr	r3, [r3, #0]
 20197 00e2 23F01002 		bic	r2, r3, #16
 20198 00e6 7B68     		ldr	r3, [r7, #4]
 20199 00e8 1A60     		str	r2, [r3, #0]
 20200              	.L19:
 229:../Libraries/STM32F10x_StdPeriph_Driver/src/stm32f10x_can.c ****     }
 230:../Libraries/STM32F10x_StdPeriph_Driver/src/stm32f10x_can.c **** 
 231:../Libraries/STM32F10x_StdPeriph_Driver/src/stm32f10x_can.c ****     /* Set the receive FIFO locked mode */
 232:../Libraries/STM32F10x_StdPeriph_Driver/src/stm32f10x_can.c ****     if (CAN_InitStruct->CAN_RFLM == ENABLE)
 20201              		.loc 1 232 0
 20202 00ea 3B68     		ldr	r3, [r7, #0]
 20203 00ec 9B7A     		ldrb	r3, [r3, #10]	@ zero_extendqisi2
 20204 00ee 012B     		cmp	r3, #1
 20205 00f0 06D1     		bne	.L20
 233:../Libraries/STM32F10x_StdPeriph_Driver/src/stm32f10x_can.c ****     {
 234:../Libraries/STM32F10x_StdPeriph_Driver/src/stm32f10x_can.c ****       CANx->MCR |= CAN_MCR_RFLM;
 20206              		.loc 1 234 0
 20207 00f2 7B68     		ldr	r3, [r7, #4]
 20208 00f4 1B68     		ldr	r3, [r3, #0]
 20209 00f6 43F00802 		orr	r2, r3, #8
 20210 00fa 7B68     		ldr	r3, [r7, #4]
 20211 00fc 1A60     		str	r2, [r3, #0]
 20212 00fe 05E0     		b	.L21
 20213              	.L20:
 235:../Libraries/STM32F10x_StdPeriph_Driver/src/stm32f10x_can.c ****     }
 236:../Libraries/STM32F10x_StdPeriph_Driver/src/stm32f10x_can.c ****     else
 237:../Libraries/STM32F10x_StdPeriph_Driver/src/stm32f10x_can.c ****     {
 238:../Libraries/STM32F10x_StdPeriph_Driver/src/stm32f10x_can.c ****       CANx->MCR &= ~(uint32_t)CAN_MCR_RFLM;
 20214              		.loc 1 238 0
 20215 0100 7B68     		ldr	r3, [r7, #4]
 20216 0102 1B68     		ldr	r3, [r3, #0]
 20217 0104 23F00802 		bic	r2, r3, #8
 20218 0108 7B68     		ldr	r3, [r7, #4]
 20219 010a 1A60     		str	r2, [r3, #0]
 20220              	.L21:
 239:../Libraries/STM32F10x_StdPeriph_Driver/src/stm32f10x_can.c ****     }
 240:../Libraries/STM32F10x_StdPeriph_Driver/src/stm32f10x_can.c **** 
 241:../Libraries/STM32F10x_StdPeriph_Driver/src/stm32f10x_can.c ****     /* Set the transmit FIFO priority */
 242:../Libraries/STM32F10x_StdPeriph_Driver/src/stm32f10x_can.c ****     if (CAN_InitStruct->CAN_TXFP == ENABLE)
 20221              		.loc 1 242 0
 20222 010c 3B68     		ldr	r3, [r7, #0]
 20223 010e DB7A     		ldrb	r3, [r3, #11]	@ zero_extendqisi2
 20224 0110 012B     		cmp	r3, #1
 20225 0112 06D1     		bne	.L22
 243:../Libraries/STM32F10x_StdPeriph_Driver/src/stm32f10x_can.c ****     {
 244:../Libraries/STM32F10x_StdPeriph_Driver/src/stm32f10x_can.c ****       CANx->MCR |= CAN_MCR_TXFP;
 20226              		.loc 1 244 0
 20227 0114 7B68     		ldr	r3, [r7, #4]
 20228 0116 1B68     		ldr	r3, [r3, #0]
 20229 0118 43F00402 		orr	r2, r3, #4
 20230 011c 7B68     		ldr	r3, [r7, #4]
 20231 011e 1A60     		str	r2, [r3, #0]
 20232 0120 05E0     		b	.L23
 20233              	.L22:
 245:../Libraries/STM32F10x_StdPeriph_Driver/src/stm32f10x_can.c ****     }
 246:../Libraries/STM32F10x_StdPeriph_Driver/src/stm32f10x_can.c ****     else
 247:../Libraries/STM32F10x_StdPeriph_Driver/src/stm32f10x_can.c ****     {
 248:../Libraries/STM32F10x_StdPeriph_Driver/src/stm32f10x_can.c ****       CANx->MCR &= ~(uint32_t)CAN_MCR_TXFP;
 20234              		.loc 1 248 0
 20235 0122 7B68     		ldr	r3, [r7, #4]
 20236 0124 1B68     		ldr	r3, [r3, #0]
 20237 0126 23F00402 		bic	r2, r3, #4
 20238 012a 7B68     		ldr	r3, [r7, #4]
 20239 012c 1A60     		str	r2, [r3, #0]
 20240              	.L23:
 249:../Libraries/STM32F10x_StdPeriph_Driver/src/stm32f10x_can.c ****     }
 250:../Libraries/STM32F10x_StdPeriph_Driver/src/stm32f10x_can.c **** 
 251:../Libraries/STM32F10x_StdPeriph_Driver/src/stm32f10x_can.c ****     /* Set the bit timing register */
 252:../Libraries/STM32F10x_StdPeriph_Driver/src/stm32f10x_can.c ****     CANx->BTR = (uint32_t)((uint32_t)CAN_InitStruct->CAN_Mode << 30) | \
 20241              		.loc 1 252 0
 20242 012e 3B68     		ldr	r3, [r7, #0]
 20243 0130 9B78     		ldrb	r3, [r3, #2]	@ zero_extendqisi2
 20244 0132 4FEA8372 		lsl	r2, r3, #30
 253:../Libraries/STM32F10x_StdPeriph_Driver/src/stm32f10x_can.c ****                 ((uint32_t)CAN_InitStruct->CAN_SJW << 24) | \
 20245              		.loc 1 253 0
 20246 0136 3B68     		ldr	r3, [r7, #0]
 20247 0138 DB78     		ldrb	r3, [r3, #3]	@ zero_extendqisi2
 20248 013a 4FEA0363 		lsl	r3, r3, #24
 252:../Libraries/STM32F10x_StdPeriph_Driver/src/stm32f10x_can.c ****     CANx->BTR = (uint32_t)((uint32_t)CAN_InitStruct->CAN_Mode << 30) | \
 20249              		.loc 1 252 0
 20250 013e 1A43     		orrs	r2, r2, r3
 254:../Libraries/STM32F10x_StdPeriph_Driver/src/stm32f10x_can.c ****                 ((uint32_t)CAN_InitStruct->CAN_BS1 << 16) | \
 20251              		.loc 1 254 0
 20252 0140 3B68     		ldr	r3, [r7, #0]
 20253 0142 1B79     		ldrb	r3, [r3, #4]	@ zero_extendqisi2
 20254 0144 4FEA0343 		lsl	r3, r3, #16
 253:../Libraries/STM32F10x_StdPeriph_Driver/src/stm32f10x_can.c ****                 ((uint32_t)CAN_InitStruct->CAN_SJW << 24) | \
 20255              		.loc 1 253 0
 20256 0148 1A43     		orrs	r2, r2, r3
 255:../Libraries/STM32F10x_StdPeriph_Driver/src/stm32f10x_can.c ****                 ((uint32_t)CAN_InitStruct->CAN_BS2 << 20) | \
 20257              		.loc 1 255 0
 20258 014a 3B68     		ldr	r3, [r7, #0]
 20259 014c 5B79     		ldrb	r3, [r3, #5]	@ zero_extendqisi2
 20260 014e 4FEA0353 		lsl	r3, r3, #20
 254:../Libraries/STM32F10x_StdPeriph_Driver/src/stm32f10x_can.c ****                 ((uint32_t)CAN_InitStruct->CAN_BS1 << 16) | \
 20261              		.loc 1 254 0
 20262 0152 1A43     		orrs	r2, r2, r3
 256:../Libraries/STM32F10x_StdPeriph_Driver/src/stm32f10x_can.c ****                ((uint32_t)CAN_InitStruct->CAN_Prescaler - 1);
 20263              		.loc 1 256 0
 20264 0154 3B68     		ldr	r3, [r7, #0]
 20265 0156 1B88     		ldrh	r3, [r3, #0]
 20266 0158 03F1FF33 		add	r3, r3, #-1
 255:../Libraries/STM32F10x_StdPeriph_Driver/src/stm32f10x_can.c ****                 ((uint32_t)CAN_InitStruct->CAN_BS2 << 20) | \
 20267              		.loc 1 255 0
 20268 015c 1A43     		orrs	r2, r2, r3
 252:../Libraries/STM32F10x_StdPeriph_Driver/src/stm32f10x_can.c ****     CANx->BTR = (uint32_t)((uint32_t)CAN_InitStruct->CAN_Mode << 30) | \
 20269              		.loc 1 252 0
 20270 015e 7B68     		ldr	r3, [r7, #4]
 20271 0160 DA61     		str	r2, [r3, #28]
 257:../Libraries/STM32F10x_StdPeriph_Driver/src/stm32f10x_can.c **** 
 258:../Libraries/STM32F10x_StdPeriph_Driver/src/stm32f10x_can.c ****     /* Request leave initialisation */
 259:../Libraries/STM32F10x_StdPeriph_Driver/src/stm32f10x_can.c ****     CANx->MCR &= ~(uint32_t)CAN_MCR_INRQ;
 20272              		.loc 1 259 0
 20273 0162 7B68     		ldr	r3, [r7, #4]
 20274 0164 1B68     		ldr	r3, [r3, #0]
 20275 0166 23F00102 		bic	r2, r3, #1
 20276 016a 7B68     		ldr	r3, [r7, #4]
 20277 016c 1A60     		str	r2, [r3, #0]
 260:../Libraries/STM32F10x_StdPeriph_Driver/src/stm32f10x_can.c **** 
 261:../Libraries/STM32F10x_StdPeriph_Driver/src/stm32f10x_can.c ****    /* Wait the acknowledge */
 262:../Libraries/STM32F10x_StdPeriph_Driver/src/stm32f10x_can.c ****    wait_ack = 0;
 20278              		.loc 1 262 0
 20279 016e 4FF00003 		mov	r3, #0
 20280 0172 BB60     		str	r3, [r7, #8]
 263:../Libraries/STM32F10x_StdPeriph_Driver/src/stm32f10x_can.c **** 
 264:../Libraries/STM32F10x_StdPeriph_Driver/src/stm32f10x_can.c ****    while (((CANx->MSR & CAN_MSR_INAK) == CAN_MSR_INAK) && (wait_ack != INAK_TIMEOUT))
 20281              		.loc 1 264 0
 20282 0174 03E0     		b	.L24
 20283              	.L26:
 265:../Libraries/STM32F10x_StdPeriph_Driver/src/stm32f10x_can.c ****    {
 266:../Libraries/STM32F10x_StdPeriph_Driver/src/stm32f10x_can.c ****      wait_ack++;
 20284              		.loc 1 266 0
 20285 0176 BB68     		ldr	r3, [r7, #8]
 20286 0178 03F10103 		add	r3, r3, #1
 20287 017c BB60     		str	r3, [r7, #8]
 20288              	.L24:
 264:../Libraries/STM32F10x_StdPeriph_Driver/src/stm32f10x_can.c ****    while (((CANx->MSR & CAN_MSR_INAK) == CAN_MSR_INAK) && (wait_ack != INAK_TIMEOUT))
 20289              		.loc 1 264 0 discriminator 1
 20290 017e 7B68     		ldr	r3, [r7, #4]
 20291 0180 5B68     		ldr	r3, [r3, #4]
 20292 0182 03F00103 		and	r3, r3, #1
 20293 0186 DBB2     		uxtb	r3, r3
 20294 0188 002B     		cmp	r3, #0
 20295 018a 04D0     		beq	.L25
 264:../Libraries/STM32F10x_StdPeriph_Driver/src/stm32f10x_can.c ****    while (((CANx->MSR & CAN_MSR_INAK) == CAN_MSR_INAK) && (wait_ack != INAK_TIMEOUT))
 20296              		.loc 1 264 0 is_stmt 0 discriminator 2
 20297 018c BA68     		ldr	r2, [r7, #8]
 20298 018e 4FF6FF73 		movw	r3, #65535
 20299 0192 9A42     		cmp	r2, r3
 20300 0194 EFD1     		bne	.L26
 20301              	.L25:
 267:../Libraries/STM32F10x_StdPeriph_Driver/src/stm32f10x_can.c ****    }
 268:../Libraries/STM32F10x_StdPeriph_Driver/src/stm32f10x_can.c **** 
 269:../Libraries/STM32F10x_StdPeriph_Driver/src/stm32f10x_can.c ****     /* ...and check acknowledged */
 270:../Libraries/STM32F10x_StdPeriph_Driver/src/stm32f10x_can.c ****     if ((CANx->MSR & CAN_MSR_INAK) == CAN_MSR_INAK)
 20302              		.loc 1 270 0 is_stmt 1
 20303 0196 7B68     		ldr	r3, [r7, #4]
 20304 0198 5B68     		ldr	r3, [r3, #4]
 20305 019a 03F00103 		and	r3, r3, #1
 20306 019e DBB2     		uxtb	r3, r3
 20307 01a0 002B     		cmp	r3, #0
 20308 01a2 03D0     		beq	.L27
 271:../Libraries/STM32F10x_StdPeriph_Driver/src/stm32f10x_can.c ****     {
 272:../Libraries/STM32F10x_StdPeriph_Driver/src/stm32f10x_can.c ****       InitStatus = CAN_InitStatus_Failed;
 20309              		.loc 1 272 0
 20310 01a4 4FF00003 		mov	r3, #0
 20311 01a8 FB73     		strb	r3, [r7, #15]
 20312 01aa 02E0     		b	.L11
 20313              	.L27:
 273:../Libraries/STM32F10x_StdPeriph_Driver/src/stm32f10x_can.c ****     }
 274:../Libraries/STM32F10x_StdPeriph_Driver/src/stm32f10x_can.c ****     else
 275:../Libraries/STM32F10x_StdPeriph_Driver/src/stm32f10x_can.c ****     {
 276:../Libraries/STM32F10x_StdPeriph_Driver/src/stm32f10x_can.c ****       InitStatus = CAN_InitStatus_Success ;
 20314              		.loc 1 276 0
 20315 01ac 4FF00103 		mov	r3, #1
 20316 01b0 FB73     		strb	r3, [r7, #15]
 20317              	.L11:
 277:../Libraries/STM32F10x_StdPeriph_Driver/src/stm32f10x_can.c ****     }
 278:../Libraries/STM32F10x_StdPeriph_Driver/src/stm32f10x_can.c ****   }
 279:../Libraries/STM32F10x_StdPeriph_Driver/src/stm32f10x_can.c **** 
 280:../Libraries/STM32F10x_StdPeriph_Driver/src/stm32f10x_can.c ****   /* At this step, return the status of initialization */
 281:../Libraries/STM32F10x_StdPeriph_Driver/src/stm32f10x_can.c ****   return InitStatus;
 20318              		.loc 1 281 0
 20319 01b2 FB7B     		ldrb	r3, [r7, #15]	@ zero_extendqisi2
 282:../Libraries/STM32F10x_StdPeriph_Driver/src/stm32f10x_can.c **** }
 20320              		.loc 1 282 0
 20321 01b4 1846     		mov	r0, r3
 20322 01b6 07F11407 		add	r7, r7, #20
 20323 01ba BD46     		mov	sp, r7
 20324 01bc 80BC     		pop	{r7}
 20325 01be 7047     		bx	lr
 20326              		.cfi_endproc
 20327              	.LFE30:
 20329              		.section	.text.CAN_FilterInit,"ax",%progbits
 20330              		.align	2
 20331              		.global	CAN_FilterInit
 20332              		.thumb
 20333              		.thumb_func
 20335              	CAN_FilterInit:
 20336              	.LFB31:
 283:../Libraries/STM32F10x_StdPeriph_Driver/src/stm32f10x_can.c **** 
 284:../Libraries/STM32F10x_StdPeriph_Driver/src/stm32f10x_can.c **** /**
 285:../Libraries/STM32F10x_StdPeriph_Driver/src/stm32f10x_can.c ****   * @brief  Initializes the CAN peripheral according to the specified
 286:../Libraries/STM32F10x_StdPeriph_Driver/src/stm32f10x_can.c ****   *         parameters in the CAN_FilterInitStruct.
 287:../Libraries/STM32F10x_StdPeriph_Driver/src/stm32f10x_can.c ****   * @param  CAN_FilterInitStruct: pointer to a CAN_FilterInitTypeDef
 288:../Libraries/STM32F10x_StdPeriph_Driver/src/stm32f10x_can.c ****   *                               structure that contains the configuration 
 289:../Libraries/STM32F10x_StdPeriph_Driver/src/stm32f10x_can.c ****   *                               information.
 290:../Libraries/STM32F10x_StdPeriph_Driver/src/stm32f10x_can.c ****   * @retval None.
 291:../Libraries/STM32F10x_StdPeriph_Driver/src/stm32f10x_can.c ****   */
 292:../Libraries/STM32F10x_StdPeriph_Driver/src/stm32f10x_can.c **** void CAN_FilterInit(CAN_FilterInitTypeDef* CAN_FilterInitStruct)
 293:../Libraries/STM32F10x_StdPeriph_Driver/src/stm32f10x_can.c **** {
 20337              		.loc 1 293 0
 20338              		.cfi_startproc
 20339              		@ args = 0, pretend = 0, frame = 16
 20340              		@ frame_needed = 1, uses_anonymous_args = 0
 20341              		@ link register save eliminated.
 20342 0000 80B4     		push	{r7}
 20343              	.LCFI6:
 20344              		.cfi_def_cfa_offset 4
 20345 0002 85B0     		sub	sp, sp, #20
 20346              	.LCFI7:
 20347              		.cfi_def_cfa_offset 24
 20348 0004 00AF     		add	r7, sp, #0
 20349              		.cfi_offset 7, -4
 20350              	.LCFI8:
 20351              		.cfi_def_cfa_register 7
 20352 0006 7860     		str	r0, [r7, #4]
 294:../Libraries/STM32F10x_StdPeriph_Driver/src/stm32f10x_can.c ****   uint32_t filter_number_bit_pos = 0;
 20353              		.loc 1 294 0
 20354 0008 4FF00003 		mov	r3, #0
 20355 000c FB60     		str	r3, [r7, #12]
 295:../Libraries/STM32F10x_StdPeriph_Driver/src/stm32f10x_can.c ****   /* Check the parameters */
 296:../Libraries/STM32F10x_StdPeriph_Driver/src/stm32f10x_can.c ****   assert_param(IS_CAN_FILTER_NUMBER(CAN_FilterInitStruct->CAN_FilterNumber));
 297:../Libraries/STM32F10x_StdPeriph_Driver/src/stm32f10x_can.c ****   assert_param(IS_CAN_FILTER_MODE(CAN_FilterInitStruct->CAN_FilterMode));
 298:../Libraries/STM32F10x_StdPeriph_Driver/src/stm32f10x_can.c ****   assert_param(IS_CAN_FILTER_SCALE(CAN_FilterInitStruct->CAN_FilterScale));
 299:../Libraries/STM32F10x_StdPeriph_Driver/src/stm32f10x_can.c ****   assert_param(IS_CAN_FILTER_FIFO(CAN_FilterInitStruct->CAN_FilterFIFOAssignment));
 300:../Libraries/STM32F10x_StdPeriph_Driver/src/stm32f10x_can.c ****   assert_param(IS_FUNCTIONAL_STATE(CAN_FilterInitStruct->CAN_FilterActivation));
 301:../Libraries/STM32F10x_StdPeriph_Driver/src/stm32f10x_can.c **** 
 302:../Libraries/STM32F10x_StdPeriph_Driver/src/stm32f10x_can.c ****   filter_number_bit_pos = ((uint32_t)1) << CAN_FilterInitStruct->CAN_FilterNumber;
 20356              		.loc 1 302 0
 20357 000e 7B68     		ldr	r3, [r7, #4]
 20358 0010 9B7A     		ldrb	r3, [r3, #10]	@ zero_extendqisi2
 20359 0012 4FF00102 		mov	r2, #1
 20360 0016 02FA03F3 		lsl	r3, r2, r3
 20361 001a FB60     		str	r3, [r7, #12]
 303:../Libraries/STM32F10x_StdPeriph_Driver/src/stm32f10x_can.c **** 
 304:../Libraries/STM32F10x_StdPeriph_Driver/src/stm32f10x_can.c ****   /* Initialisation mode for the filter */
 305:../Libraries/STM32F10x_StdPeriph_Driver/src/stm32f10x_can.c ****   CAN1->FMR |= FMR_FINIT;
 20362              		.loc 1 305 0
 20363 001c 5E4B     		ldr	r3, .L36
 20364 001e 5E4A     		ldr	r2, .L36
 20365 0020 D2F80022 		ldr	r2, [r2, #512]
 20366 0024 42F00102 		orr	r2, r2, #1
 20367 0028 C3F80022 		str	r2, [r3, #512]
 306:../Libraries/STM32F10x_StdPeriph_Driver/src/stm32f10x_can.c **** 
 307:../Libraries/STM32F10x_StdPeriph_Driver/src/stm32f10x_can.c ****   /* Filter Deactivation */
 308:../Libraries/STM32F10x_StdPeriph_Driver/src/stm32f10x_can.c ****   CAN1->FA1R &= ~(uint32_t)filter_number_bit_pos;
 20368              		.loc 1 308 0
 20369 002c 5A4B     		ldr	r3, .L36
 20370 002e 5A4A     		ldr	r2, .L36
 20371 0030 D2F81C12 		ldr	r1, [r2, #540]
 20372 0034 FA68     		ldr	r2, [r7, #12]
 20373 0036 6FEA0202 		mvn	r2, r2
 20374 003a 01EA0202 		and	r2, r1, r2
 20375 003e C3F81C22 		str	r2, [r3, #540]
 309:../Libraries/STM32F10x_StdPeriph_Driver/src/stm32f10x_can.c **** 
 310:../Libraries/STM32F10x_StdPeriph_Driver/src/stm32f10x_can.c ****   /* Filter Scale */
 311:../Libraries/STM32F10x_StdPeriph_Driver/src/stm32f10x_can.c ****   if (CAN_FilterInitStruct->CAN_FilterScale == CAN_FilterScale_16bit)
 20376              		.loc 1 311 0
 20377 0042 7B68     		ldr	r3, [r7, #4]
 20378 0044 1B7B     		ldrb	r3, [r3, #12]	@ zero_extendqisi2
 20379 0046 002B     		cmp	r3, #0
 20380 0048 2AD1     		bne	.L29
 312:../Libraries/STM32F10x_StdPeriph_Driver/src/stm32f10x_can.c ****   {
 313:../Libraries/STM32F10x_StdPeriph_Driver/src/stm32f10x_can.c ****     /* 16-bit scale for the filter */
 314:../Libraries/STM32F10x_StdPeriph_Driver/src/stm32f10x_can.c ****     CAN1->FS1R &= ~(uint32_t)filter_number_bit_pos;
 20381              		.loc 1 314 0
 20382 004a 534B     		ldr	r3, .L36
 20383 004c 524A     		ldr	r2, .L36
 20384 004e D2F80C12 		ldr	r1, [r2, #524]
 20385 0052 FA68     		ldr	r2, [r7, #12]
 20386 0054 6FEA0202 		mvn	r2, r2
 20387 0058 01EA0202 		and	r2, r1, r2
 20388 005c C3F80C22 		str	r2, [r3, #524]
 315:../Libraries/STM32F10x_StdPeriph_Driver/src/stm32f10x_can.c **** 
 316:../Libraries/STM32F10x_StdPeriph_Driver/src/stm32f10x_can.c ****     /* First 16-bit identifier and First 16-bit mask */
 317:../Libraries/STM32F10x_StdPeriph_Driver/src/stm32f10x_can.c ****     /* Or First 16-bit identifier and Second 16-bit identifier */
 318:../Libraries/STM32F10x_StdPeriph_Driver/src/stm32f10x_can.c ****     CAN1->sFilterRegister[CAN_FilterInitStruct->CAN_FilterNumber].FR1 = 
 20389              		.loc 1 318 0
 20390 0060 4D4B     		ldr	r3, .L36
 20391 0062 7A68     		ldr	r2, [r7, #4]
 20392 0064 927A     		ldrb	r2, [r2, #10]	@ zero_extendqisi2
 319:../Libraries/STM32F10x_StdPeriph_Driver/src/stm32f10x_can.c ****     ((0x0000FFFF & (uint32_t)CAN_FilterInitStruct->CAN_FilterMaskIdLow) << 16) |
 20393              		.loc 1 319 0
 20394 0066 7968     		ldr	r1, [r7, #4]
 20395 0068 C988     		ldrh	r1, [r1, #6]
 20396 006a 4FEA0140 		lsl	r0, r1, #16
 320:../Libraries/STM32F10x_StdPeriph_Driver/src/stm32f10x_can.c ****         (0x0000FFFF & (uint32_t)CAN_FilterInitStruct->CAN_FilterIdLow);
 20397              		.loc 1 320 0
 20398 006e 7968     		ldr	r1, [r7, #4]
 20399 0070 4988     		ldrh	r1, [r1, #2]
 319:../Libraries/STM32F10x_StdPeriph_Driver/src/stm32f10x_can.c ****     ((0x0000FFFF & (uint32_t)CAN_FilterInitStruct->CAN_FilterMaskIdLow) << 16) |
 20400              		.loc 1 319 0
 20401 0072 40EA0101 		orr	r1, r0, r1
 318:../Libraries/STM32F10x_StdPeriph_Driver/src/stm32f10x_can.c ****     CAN1->sFilterRegister[CAN_FilterInitStruct->CAN_FilterNumber].FR1 = 
 20402              		.loc 1 318 0
 20403 0076 02F14802 		add	r2, r2, #72
 20404 007a 43F83210 		str	r1, [r3, r2, lsl #3]
 321:../Libraries/STM32F10x_StdPeriph_Driver/src/stm32f10x_can.c **** 
 322:../Libraries/STM32F10x_StdPeriph_Driver/src/stm32f10x_can.c ****     /* Second 16-bit identifier and Second 16-bit mask */
 323:../Libraries/STM32F10x_StdPeriph_Driver/src/stm32f10x_can.c ****     /* Or Third 16-bit identifier and Fourth 16-bit identifier */
 324:../Libraries/STM32F10x_StdPeriph_Driver/src/stm32f10x_can.c ****     CAN1->sFilterRegister[CAN_FilterInitStruct->CAN_FilterNumber].FR2 = 
 20405              		.loc 1 324 0
 20406 007e 4649     		ldr	r1, .L36
 20407 0080 7B68     		ldr	r3, [r7, #4]
 20408 0082 9B7A     		ldrb	r3, [r3, #10]	@ zero_extendqisi2
 325:../Libraries/STM32F10x_StdPeriph_Driver/src/stm32f10x_can.c ****     ((0x0000FFFF & (uint32_t)CAN_FilterInitStruct->CAN_FilterMaskIdHigh) << 16) |
 20409              		.loc 1 325 0
 20410 0084 7A68     		ldr	r2, [r7, #4]
 20411 0086 9288     		ldrh	r2, [r2, #4]
 20412 0088 4FEA0240 		lsl	r0, r2, #16
 326:../Libraries/STM32F10x_StdPeriph_Driver/src/stm32f10x_can.c ****         (0x0000FFFF & (uint32_t)CAN_FilterInitStruct->CAN_FilterIdHigh);
 20413              		.loc 1 326 0
 20414 008c 7A68     		ldr	r2, [r7, #4]
 20415 008e 1288     		ldrh	r2, [r2, #0]
 325:../Libraries/STM32F10x_StdPeriph_Driver/src/stm32f10x_can.c ****     ((0x0000FFFF & (uint32_t)CAN_FilterInitStruct->CAN_FilterMaskIdHigh) << 16) |
 20416              		.loc 1 325 0
 20417 0090 40EA0202 		orr	r2, r0, r2
 324:../Libraries/STM32F10x_StdPeriph_Driver/src/stm32f10x_can.c ****     CAN1->sFilterRegister[CAN_FilterInitStruct->CAN_FilterNumber].FR2 = 
 20418              		.loc 1 324 0
 20419 0094 03F14803 		add	r3, r3, #72
 20420 0098 4FEAC303 		lsl	r3, r3, #3
 20421 009c CB18     		adds	r3, r1, r3
 20422 009e 5A60     		str	r2, [r3, #4]
 20423              	.L29:
 327:../Libraries/STM32F10x_StdPeriph_Driver/src/stm32f10x_can.c ****   }
 328:../Libraries/STM32F10x_StdPeriph_Driver/src/stm32f10x_can.c **** 
 329:../Libraries/STM32F10x_StdPeriph_Driver/src/stm32f10x_can.c ****   if (CAN_FilterInitStruct->CAN_FilterScale == CAN_FilterScale_32bit)
 20424              		.loc 1 329 0
 20425 00a0 7B68     		ldr	r3, [r7, #4]
 20426 00a2 1B7B     		ldrb	r3, [r3, #12]	@ zero_extendqisi2
 20427 00a4 012B     		cmp	r3, #1
 20428 00a6 28D1     		bne	.L30
 330:../Libraries/STM32F10x_StdPeriph_Driver/src/stm32f10x_can.c ****   {
 331:../Libraries/STM32F10x_StdPeriph_Driver/src/stm32f10x_can.c ****     /* 32-bit scale for the filter */
 332:../Libraries/STM32F10x_StdPeriph_Driver/src/stm32f10x_can.c ****     CAN1->FS1R |= filter_number_bit_pos;
 20429              		.loc 1 332 0
 20430 00a8 3B4B     		ldr	r3, .L36
 20431 00aa 3B4A     		ldr	r2, .L36
 20432 00ac D2F80C12 		ldr	r1, [r2, #524]
 20433 00b0 FA68     		ldr	r2, [r7, #12]
 20434 00b2 41EA0202 		orr	r2, r1, r2
 20435 00b6 C3F80C22 		str	r2, [r3, #524]
 333:../Libraries/STM32F10x_StdPeriph_Driver/src/stm32f10x_can.c ****     /* 32-bit identifier or First 32-bit identifier */
 334:../Libraries/STM32F10x_StdPeriph_Driver/src/stm32f10x_can.c ****     CAN1->sFilterRegister[CAN_FilterInitStruct->CAN_FilterNumber].FR1 = 
 20436              		.loc 1 334 0
 20437 00ba 374B     		ldr	r3, .L36
 20438 00bc 7A68     		ldr	r2, [r7, #4]
 20439 00be 927A     		ldrb	r2, [r2, #10]	@ zero_extendqisi2
 335:../Libraries/STM32F10x_StdPeriph_Driver/src/stm32f10x_can.c ****     ((0x0000FFFF & (uint32_t)CAN_FilterInitStruct->CAN_FilterIdHigh) << 16) |
 20440              		.loc 1 335 0
 20441 00c0 7968     		ldr	r1, [r7, #4]
 20442 00c2 0988     		ldrh	r1, [r1, #0]
 20443 00c4 4FEA0140 		lsl	r0, r1, #16
 336:../Libraries/STM32F10x_StdPeriph_Driver/src/stm32f10x_can.c ****         (0x0000FFFF & (uint32_t)CAN_FilterInitStruct->CAN_FilterIdLow);
 20444              		.loc 1 336 0
 20445 00c8 7968     		ldr	r1, [r7, #4]
 20446 00ca 4988     		ldrh	r1, [r1, #2]
 335:../Libraries/STM32F10x_StdPeriph_Driver/src/stm32f10x_can.c ****     ((0x0000FFFF & (uint32_t)CAN_FilterInitStruct->CAN_FilterIdHigh) << 16) |
 20447              		.loc 1 335 0
 20448 00cc 40EA0101 		orr	r1, r0, r1
 334:../Libraries/STM32F10x_StdPeriph_Driver/src/stm32f10x_can.c ****     CAN1->sFilterRegister[CAN_FilterInitStruct->CAN_FilterNumber].FR1 = 
 20449              		.loc 1 334 0
 20450 00d0 02F14802 		add	r2, r2, #72
 20451 00d4 43F83210 		str	r1, [r3, r2, lsl #3]
 337:../Libraries/STM32F10x_StdPeriph_Driver/src/stm32f10x_can.c ****     /* 32-bit mask or Second 32-bit identifier */
 338:../Libraries/STM32F10x_StdPeriph_Driver/src/stm32f10x_can.c ****     CAN1->sFilterRegister[CAN_FilterInitStruct->CAN_FilterNumber].FR2 = 
 20452              		.loc 1 338 0
 20453 00d8 2F49     		ldr	r1, .L36
 20454 00da 7B68     		ldr	r3, [r7, #4]
 20455 00dc 9B7A     		ldrb	r3, [r3, #10]	@ zero_extendqisi2
 339:../Libraries/STM32F10x_StdPeriph_Driver/src/stm32f10x_can.c ****     ((0x0000FFFF & (uint32_t)CAN_FilterInitStruct->CAN_FilterMaskIdHigh) << 16) |
 20456              		.loc 1 339 0
 20457 00de 7A68     		ldr	r2, [r7, #4]
 20458 00e0 9288     		ldrh	r2, [r2, #4]
 20459 00e2 4FEA0240 		lsl	r0, r2, #16
 340:../Libraries/STM32F10x_StdPeriph_Driver/src/stm32f10x_can.c ****         (0x0000FFFF & (uint32_t)CAN_FilterInitStruct->CAN_FilterMaskIdLow);
 20460              		.loc 1 340 0
 20461 00e6 7A68     		ldr	r2, [r7, #4]
 20462 00e8 D288     		ldrh	r2, [r2, #6]
 339:../Libraries/STM32F10x_StdPeriph_Driver/src/stm32f10x_can.c ****     ((0x0000FFFF & (uint32_t)CAN_FilterInitStruct->CAN_FilterMaskIdHigh) << 16) |
 20463              		.loc 1 339 0
 20464 00ea 40EA0202 		orr	r2, r0, r2
 338:../Libraries/STM32F10x_StdPeriph_Driver/src/stm32f10x_can.c ****     CAN1->sFilterRegister[CAN_FilterInitStruct->CAN_FilterNumber].FR2 = 
 20465              		.loc 1 338 0
 20466 00ee 03F14803 		add	r3, r3, #72
 20467 00f2 4FEAC303 		lsl	r3, r3, #3
 20468 00f6 CB18     		adds	r3, r1, r3
 20469 00f8 5A60     		str	r2, [r3, #4]
 20470              	.L30:
 341:../Libraries/STM32F10x_StdPeriph_Driver/src/stm32f10x_can.c ****   }
 342:../Libraries/STM32F10x_StdPeriph_Driver/src/stm32f10x_can.c **** 
 343:../Libraries/STM32F10x_StdPeriph_Driver/src/stm32f10x_can.c ****   /* Filter Mode */
 344:../Libraries/STM32F10x_StdPeriph_Driver/src/stm32f10x_can.c ****   if (CAN_FilterInitStruct->CAN_FilterMode == CAN_FilterMode_IdMask)
 20471              		.loc 1 344 0
 20472 00fa 7B68     		ldr	r3, [r7, #4]
 20473 00fc DB7A     		ldrb	r3, [r3, #11]	@ zero_extendqisi2
 20474 00fe 002B     		cmp	r3, #0
 20475 0100 0BD1     		bne	.L31
 345:../Libraries/STM32F10x_StdPeriph_Driver/src/stm32f10x_can.c ****   {
 346:../Libraries/STM32F10x_StdPeriph_Driver/src/stm32f10x_can.c ****     /*Id/Mask mode for the filter*/
 347:../Libraries/STM32F10x_StdPeriph_Driver/src/stm32f10x_can.c ****     CAN1->FM1R &= ~(uint32_t)filter_number_bit_pos;
 20476              		.loc 1 347 0
 20477 0102 254B     		ldr	r3, .L36
 20478 0104 244A     		ldr	r2, .L36
 20479 0106 D2F80412 		ldr	r1, [r2, #516]
 20480 010a FA68     		ldr	r2, [r7, #12]
 20481 010c 6FEA0202 		mvn	r2, r2
 20482 0110 01EA0202 		and	r2, r1, r2
 20483 0114 C3F80422 		str	r2, [r3, #516]
 20484 0118 08E0     		b	.L32
 20485              	.L31:
 348:../Libraries/STM32F10x_StdPeriph_Driver/src/stm32f10x_can.c ****   }
 349:../Libraries/STM32F10x_StdPeriph_Driver/src/stm32f10x_can.c ****   else /* CAN_FilterInitStruct->CAN_FilterMode == CAN_FilterMode_IdList */
 350:../Libraries/STM32F10x_StdPeriph_Driver/src/stm32f10x_can.c ****   {
 351:../Libraries/STM32F10x_StdPeriph_Driver/src/stm32f10x_can.c ****     /*Identifier list mode for the filter*/
 352:../Libraries/STM32F10x_StdPeriph_Driver/src/stm32f10x_can.c ****     CAN1->FM1R |= (uint32_t)filter_number_bit_pos;
 20486              		.loc 1 352 0
 20487 011a 1F4B     		ldr	r3, .L36
 20488 011c 1E4A     		ldr	r2, .L36
 20489 011e D2F80412 		ldr	r1, [r2, #516]
 20490 0122 FA68     		ldr	r2, [r7, #12]
 20491 0124 41EA0202 		orr	r2, r1, r2
 20492 0128 C3F80422 		str	r2, [r3, #516]
 20493              	.L32:
 353:../Libraries/STM32F10x_StdPeriph_Driver/src/stm32f10x_can.c ****   }
 354:../Libraries/STM32F10x_StdPeriph_Driver/src/stm32f10x_can.c **** 
 355:../Libraries/STM32F10x_StdPeriph_Driver/src/stm32f10x_can.c ****   /* Filter FIFO assignment */
 356:../Libraries/STM32F10x_StdPeriph_Driver/src/stm32f10x_can.c ****   if (CAN_FilterInitStruct->CAN_FilterFIFOAssignment == CAN_Filter_FIFO0)
 20494              		.loc 1 356 0
 20495 012c 7B68     		ldr	r3, [r7, #4]
 20496 012e 1B89     		ldrh	r3, [r3, #8]
 20497 0130 002B     		cmp	r3, #0
 20498 0132 0AD1     		bne	.L33
 357:../Libraries/STM32F10x_StdPeriph_Driver/src/stm32f10x_can.c ****   {
 358:../Libraries/STM32F10x_StdPeriph_Driver/src/stm32f10x_can.c ****     /* FIFO 0 assignation for the filter */
 359:../Libraries/STM32F10x_StdPeriph_Driver/src/stm32f10x_can.c ****     CAN1->FFA1R &= ~(uint32_t)filter_number_bit_pos;
 20499              		.loc 1 359 0
 20500 0134 184B     		ldr	r3, .L36
 20501 0136 184A     		ldr	r2, .L36
 20502 0138 D2F81412 		ldr	r1, [r2, #532]
 20503 013c FA68     		ldr	r2, [r7, #12]
 20504 013e 6FEA0202 		mvn	r2, r2
 20505 0142 01EA0202 		and	r2, r1, r2
 20506 0146 C3F81422 		str	r2, [r3, #532]
 20507              	.L33:
 360:../Libraries/STM32F10x_StdPeriph_Driver/src/stm32f10x_can.c ****   }
 361:../Libraries/STM32F10x_StdPeriph_Driver/src/stm32f10x_can.c **** 
 362:../Libraries/STM32F10x_StdPeriph_Driver/src/stm32f10x_can.c ****   if (CAN_FilterInitStruct->CAN_FilterFIFOAssignment == CAN_Filter_FIFO1)
 20508              		.loc 1 362 0
 20509 014a 7B68     		ldr	r3, [r7, #4]
 20510 014c 1B89     		ldrh	r3, [r3, #8]
 20511 014e 012B     		cmp	r3, #1
 20512 0150 08D1     		bne	.L34
 363:../Libraries/STM32F10x_StdPeriph_Driver/src/stm32f10x_can.c ****   {
 364:../Libraries/STM32F10x_StdPeriph_Driver/src/stm32f10x_can.c ****     /* FIFO 1 assignation for the filter */
 365:../Libraries/STM32F10x_StdPeriph_Driver/src/stm32f10x_can.c ****     CAN1->FFA1R |= (uint32_t)filter_number_bit_pos;
 20513              		.loc 1 365 0
 20514 0152 114B     		ldr	r3, .L36
 20515 0154 104A     		ldr	r2, .L36
 20516 0156 D2F81412 		ldr	r1, [r2, #532]
 20517 015a FA68     		ldr	r2, [r7, #12]
 20518 015c 41EA0202 		orr	r2, r1, r2
 20519 0160 C3F81422 		str	r2, [r3, #532]
 20520              	.L34:
 366:../Libraries/STM32F10x_StdPeriph_Driver/src/stm32f10x_can.c ****   }
 367:../Libraries/STM32F10x_StdPeriph_Driver/src/stm32f10x_can.c ****   
 368:../Libraries/STM32F10x_StdPeriph_Driver/src/stm32f10x_can.c ****   /* Filter activation */
 369:../Libraries/STM32F10x_StdPeriph_Driver/src/stm32f10x_can.c ****   if (CAN_FilterInitStruct->CAN_FilterActivation == ENABLE)
 20521              		.loc 1 369 0
 20522 0164 7B68     		ldr	r3, [r7, #4]
 20523 0166 5B7B     		ldrb	r3, [r3, #13]	@ zero_extendqisi2
 20524 0168 012B     		cmp	r3, #1
 20525 016a 08D1     		bne	.L35
 370:../Libraries/STM32F10x_StdPeriph_Driver/src/stm32f10x_can.c ****   {
 371:../Libraries/STM32F10x_StdPeriph_Driver/src/stm32f10x_can.c ****     CAN1->FA1R |= filter_number_bit_pos;
 20526              		.loc 1 371 0
 20527 016c 0A4B     		ldr	r3, .L36
 20528 016e 0A4A     		ldr	r2, .L36
 20529 0170 D2F81C12 		ldr	r1, [r2, #540]
 20530 0174 FA68     		ldr	r2, [r7, #12]
 20531 0176 41EA0202 		orr	r2, r1, r2
 20532 017a C3F81C22 		str	r2, [r3, #540]
 20533              	.L35:
 372:../Libraries/STM32F10x_StdPeriph_Driver/src/stm32f10x_can.c ****   }
 373:../Libraries/STM32F10x_StdPeriph_Driver/src/stm32f10x_can.c **** 
 374:../Libraries/STM32F10x_StdPeriph_Driver/src/stm32f10x_can.c ****   /* Leave the initialisation mode for the filter */
 375:../Libraries/STM32F10x_StdPeriph_Driver/src/stm32f10x_can.c ****   CAN1->FMR &= ~FMR_FINIT;
 20534              		.loc 1 375 0
 20535 017e 064B     		ldr	r3, .L36
 20536 0180 054A     		ldr	r2, .L36
 20537 0182 D2F80022 		ldr	r2, [r2, #512]
 20538 0186 22F00102 		bic	r2, r2, #1
 20539 018a C3F80022 		str	r2, [r3, #512]
 376:../Libraries/STM32F10x_StdPeriph_Driver/src/stm32f10x_can.c **** }
 20540              		.loc 1 376 0
 20541 018e 07F11407 		add	r7, r7, #20
 20542 0192 BD46     		mov	sp, r7
 20543 0194 80BC     		pop	{r7}
 20544 0196 7047     		bx	lr
 20545              	.L37:
 20546              		.align	2
 20547              	.L36:
 20548 0198 00640040 		.word	1073767424
 20549              		.cfi_endproc
 20550              	.LFE31:
 20552              		.section	.text.CAN_StructInit,"ax",%progbits
 20553              		.align	2
 20554              		.global	CAN_StructInit
 20555              		.thumb
 20556              		.thumb_func
 20558              	CAN_StructInit:
 20559              	.LFB32:
 377:../Libraries/STM32F10x_StdPeriph_Driver/src/stm32f10x_can.c **** 
 378:../Libraries/STM32F10x_StdPeriph_Driver/src/stm32f10x_can.c **** /**
 379:../Libraries/STM32F10x_StdPeriph_Driver/src/stm32f10x_can.c ****   * @brief  Fills each CAN_InitStruct member with its default value.
 380:../Libraries/STM32F10x_StdPeriph_Driver/src/stm32f10x_can.c ****   * @param  CAN_InitStruct: pointer to a CAN_InitTypeDef structure which
 381:../Libraries/STM32F10x_StdPeriph_Driver/src/stm32f10x_can.c ****   *                         will be initialized.
 382:../Libraries/STM32F10x_StdPeriph_Driver/src/stm32f10x_can.c ****   * @retval None.
 383:../Libraries/STM32F10x_StdPeriph_Driver/src/stm32f10x_can.c ****   */
 384:../Libraries/STM32F10x_StdPeriph_Driver/src/stm32f10x_can.c **** void CAN_StructInit(CAN_InitTypeDef* CAN_InitStruct)
 385:../Libraries/STM32F10x_StdPeriph_Driver/src/stm32f10x_can.c **** {
 20560              		.loc 1 385 0
 20561              		.cfi_startproc
 20562              		@ args = 0, pretend = 0, frame = 8
 20563              		@ frame_needed = 1, uses_anonymous_args = 0
 20564              		@ link register save eliminated.
 20565 0000 80B4     		push	{r7}
 20566              	.LCFI9:
 20567              		.cfi_def_cfa_offset 4
 20568 0002 83B0     		sub	sp, sp, #12
 20569              	.LCFI10:
 20570              		.cfi_def_cfa_offset 16
 20571 0004 00AF     		add	r7, sp, #0
 20572              		.cfi_offset 7, -4
 20573              	.LCFI11:
 20574              		.cfi_def_cfa_register 7
 20575 0006 7860     		str	r0, [r7, #4]
 386:../Libraries/STM32F10x_StdPeriph_Driver/src/stm32f10x_can.c ****   /* Reset CAN init structure parameters values */
 387:../Libraries/STM32F10x_StdPeriph_Driver/src/stm32f10x_can.c ****   
 388:../Libraries/STM32F10x_StdPeriph_Driver/src/stm32f10x_can.c ****   /* Initialize the time triggered communication mode */
 389:../Libraries/STM32F10x_StdPeriph_Driver/src/stm32f10x_can.c ****   CAN_InitStruct->CAN_TTCM = DISABLE;
 20576              		.loc 1 389 0
 20577 0008 7B68     		ldr	r3, [r7, #4]
 20578 000a 4FF00002 		mov	r2, #0
 20579 000e 9A71     		strb	r2, [r3, #6]
 390:../Libraries/STM32F10x_StdPeriph_Driver/src/stm32f10x_can.c ****   
 391:../Libraries/STM32F10x_StdPeriph_Driver/src/stm32f10x_can.c ****   /* Initialize the automatic bus-off management */
 392:../Libraries/STM32F10x_StdPeriph_Driver/src/stm32f10x_can.c ****   CAN_InitStruct->CAN_ABOM = DISABLE;
 20580              		.loc 1 392 0
 20581 0010 7B68     		ldr	r3, [r7, #4]
 20582 0012 4FF00002 		mov	r2, #0
 20583 0016 DA71     		strb	r2, [r3, #7]
 393:../Libraries/STM32F10x_StdPeriph_Driver/src/stm32f10x_can.c ****   
 394:../Libraries/STM32F10x_StdPeriph_Driver/src/stm32f10x_can.c ****   /* Initialize the automatic wake-up mode */
 395:../Libraries/STM32F10x_StdPeriph_Driver/src/stm32f10x_can.c ****   CAN_InitStruct->CAN_AWUM = DISABLE;
 20584              		.loc 1 395 0
 20585 0018 7B68     		ldr	r3, [r7, #4]
 20586 001a 4FF00002 		mov	r2, #0
 20587 001e 1A72     		strb	r2, [r3, #8]
 396:../Libraries/STM32F10x_StdPeriph_Driver/src/stm32f10x_can.c ****   
 397:../Libraries/STM32F10x_StdPeriph_Driver/src/stm32f10x_can.c ****   /* Initialize the no automatic retransmission */
 398:../Libraries/STM32F10x_StdPeriph_Driver/src/stm32f10x_can.c ****   CAN_InitStruct->CAN_NART = DISABLE;
 20588              		.loc 1 398 0
 20589 0020 7B68     		ldr	r3, [r7, #4]
 20590 0022 4FF00002 		mov	r2, #0
 20591 0026 5A72     		strb	r2, [r3, #9]
 399:../Libraries/STM32F10x_StdPeriph_Driver/src/stm32f10x_can.c ****   
 400:../Libraries/STM32F10x_StdPeriph_Driver/src/stm32f10x_can.c ****   /* Initialize the receive FIFO locked mode */
 401:../Libraries/STM32F10x_StdPeriph_Driver/src/stm32f10x_can.c ****   CAN_InitStruct->CAN_RFLM = DISABLE;
 20592              		.loc 1 401 0
 20593 0028 7B68     		ldr	r3, [r7, #4]
 20594 002a 4FF00002 		mov	r2, #0
 20595 002e 9A72     		strb	r2, [r3, #10]
 402:../Libraries/STM32F10x_StdPeriph_Driver/src/stm32f10x_can.c ****   
 403:../Libraries/STM32F10x_StdPeriph_Driver/src/stm32f10x_can.c ****   /* Initialize the transmit FIFO priority */
 404:../Libraries/STM32F10x_StdPeriph_Driver/src/stm32f10x_can.c ****   CAN_InitStruct->CAN_TXFP = DISABLE;
 20596              		.loc 1 404 0
 20597 0030 7B68     		ldr	r3, [r7, #4]
 20598 0032 4FF00002 		mov	r2, #0
 20599 0036 DA72     		strb	r2, [r3, #11]
 405:../Libraries/STM32F10x_StdPeriph_Driver/src/stm32f10x_can.c ****   
 406:../Libraries/STM32F10x_StdPeriph_Driver/src/stm32f10x_can.c ****   /* Initialize the CAN_Mode member */
 407:../Libraries/STM32F10x_StdPeriph_Driver/src/stm32f10x_can.c ****   CAN_InitStruct->CAN_Mode = CAN_Mode_Normal;
 20600              		.loc 1 407 0
 20601 0038 7B68     		ldr	r3, [r7, #4]
 20602 003a 4FF00002 		mov	r2, #0
 20603 003e 9A70     		strb	r2, [r3, #2]
 408:../Libraries/STM32F10x_StdPeriph_Driver/src/stm32f10x_can.c ****   
 409:../Libraries/STM32F10x_StdPeriph_Driver/src/stm32f10x_can.c ****   /* Initialize the CAN_SJW member */
 410:../Libraries/STM32F10x_StdPeriph_Driver/src/stm32f10x_can.c ****   CAN_InitStruct->CAN_SJW = CAN_SJW_1tq;
 20604              		.loc 1 410 0
 20605 0040 7B68     		ldr	r3, [r7, #4]
 20606 0042 4FF00002 		mov	r2, #0
 20607 0046 DA70     		strb	r2, [r3, #3]
 411:../Libraries/STM32F10x_StdPeriph_Driver/src/stm32f10x_can.c ****   
 412:../Libraries/STM32F10x_StdPeriph_Driver/src/stm32f10x_can.c ****   /* Initialize the CAN_BS1 member */
 413:../Libraries/STM32F10x_StdPeriph_Driver/src/stm32f10x_can.c ****   CAN_InitStruct->CAN_BS1 = CAN_BS1_4tq;
 20608              		.loc 1 413 0
 20609 0048 7B68     		ldr	r3, [r7, #4]
 20610 004a 4FF00302 		mov	r2, #3
 20611 004e 1A71     		strb	r2, [r3, #4]
 414:../Libraries/STM32F10x_StdPeriph_Driver/src/stm32f10x_can.c ****   
 415:../Libraries/STM32F10x_StdPeriph_Driver/src/stm32f10x_can.c ****   /* Initialize the CAN_BS2 member */
 416:../Libraries/STM32F10x_StdPeriph_Driver/src/stm32f10x_can.c ****   CAN_InitStruct->CAN_BS2 = CAN_BS2_3tq;
 20612              		.loc 1 416 0
 20613 0050 7B68     		ldr	r3, [r7, #4]
 20614 0052 4FF00202 		mov	r2, #2
 20615 0056 5A71     		strb	r2, [r3, #5]
 417:../Libraries/STM32F10x_StdPeriph_Driver/src/stm32f10x_can.c ****   
 418:../Libraries/STM32F10x_StdPeriph_Driver/src/stm32f10x_can.c ****   /* Initialize the CAN_Prescaler member */
 419:../Libraries/STM32F10x_StdPeriph_Driver/src/stm32f10x_can.c ****   CAN_InitStruct->CAN_Prescaler = 1;
 20616              		.loc 1 419 0
 20617 0058 7B68     		ldr	r3, [r7, #4]
 20618 005a 4FF00102 		mov	r2, #1
 20619 005e 1A80     		strh	r2, [r3, #0]	@ movhi
 420:../Libraries/STM32F10x_StdPeriph_Driver/src/stm32f10x_can.c **** }
 20620              		.loc 1 420 0
 20621 0060 07F10C07 		add	r7, r7, #12
 20622 0064 BD46     		mov	sp, r7
 20623 0066 80BC     		pop	{r7}
 20624 0068 7047     		bx	lr
 20625              		.cfi_endproc
 20626              	.LFE32:
 20628 006a 00BF     		.section	.text.CAN_SlaveStartBank,"ax",%progbits
 20629              		.align	2
 20630              		.global	CAN_SlaveStartBank
 20631              		.thumb
 20632              		.thumb_func
 20634              	CAN_SlaveStartBank:
 20635              	.LFB33:
 421:../Libraries/STM32F10x_StdPeriph_Driver/src/stm32f10x_can.c **** 
 422:../Libraries/STM32F10x_StdPeriph_Driver/src/stm32f10x_can.c **** /**
 423:../Libraries/STM32F10x_StdPeriph_Driver/src/stm32f10x_can.c ****   * @brief  Select the start bank filter for slave CAN.
 424:../Libraries/STM32F10x_StdPeriph_Driver/src/stm32f10x_can.c ****   * @note   This function applies only to STM32 Connectivity line devices.
 425:../Libraries/STM32F10x_StdPeriph_Driver/src/stm32f10x_can.c ****   * @param  CAN_BankNumber: Select the start slave bank filter from 1..27.
 426:../Libraries/STM32F10x_StdPeriph_Driver/src/stm32f10x_can.c ****   * @retval None.
 427:../Libraries/STM32F10x_StdPeriph_Driver/src/stm32f10x_can.c ****   */
 428:../Libraries/STM32F10x_StdPeriph_Driver/src/stm32f10x_can.c **** void CAN_SlaveStartBank(uint8_t CAN_BankNumber) 
 429:../Libraries/STM32F10x_StdPeriph_Driver/src/stm32f10x_can.c **** {
 20636              		.loc 1 429 0
 20637              		.cfi_startproc
 20638              		@ args = 0, pretend = 0, frame = 8
 20639              		@ frame_needed = 1, uses_anonymous_args = 0
 20640              		@ link register save eliminated.
 20641 0000 80B4     		push	{r7}
 20642              	.LCFI12:
 20643              		.cfi_def_cfa_offset 4
 20644 0002 83B0     		sub	sp, sp, #12
 20645              	.LCFI13:
 20646              		.cfi_def_cfa_offset 16
 20647 0004 00AF     		add	r7, sp, #0
 20648              		.cfi_offset 7, -4
 20649              	.LCFI14:
 20650              		.cfi_def_cfa_register 7
 20651 0006 0346     		mov	r3, r0
 20652 0008 FB71     		strb	r3, [r7, #7]
 430:../Libraries/STM32F10x_StdPeriph_Driver/src/stm32f10x_can.c ****   /* Check the parameters */
 431:../Libraries/STM32F10x_StdPeriph_Driver/src/stm32f10x_can.c ****   assert_param(IS_CAN_BANKNUMBER(CAN_BankNumber));
 432:../Libraries/STM32F10x_StdPeriph_Driver/src/stm32f10x_can.c ****   
 433:../Libraries/STM32F10x_StdPeriph_Driver/src/stm32f10x_can.c ****   /* Enter Initialisation mode for the filter */
 434:../Libraries/STM32F10x_StdPeriph_Driver/src/stm32f10x_can.c ****   CAN1->FMR |= FMR_FINIT;
 20653              		.loc 1 434 0
 20654 000a 154B     		ldr	r3, .L40
 20655 000c 144A     		ldr	r2, .L40
 20656 000e D2F80022 		ldr	r2, [r2, #512]
 20657 0012 42F00102 		orr	r2, r2, #1
 20658 0016 C3F80022 		str	r2, [r3, #512]
 435:../Libraries/STM32F10x_StdPeriph_Driver/src/stm32f10x_can.c ****   
 436:../Libraries/STM32F10x_StdPeriph_Driver/src/stm32f10x_can.c ****   /* Select the start slave bank */
 437:../Libraries/STM32F10x_StdPeriph_Driver/src/stm32f10x_can.c ****   CAN1->FMR &= (uint32_t)0xFFFFC0F1 ;
 20659              		.loc 1 437 0
 20660 001a 114A     		ldr	r2, .L40
 20661 001c 104B     		ldr	r3, .L40
 20662 001e D3F80032 		ldr	r3, [r3, #512]
 20663 0022 23F47C53 		bic	r3, r3, #16128
 20664 0026 23F00E03 		bic	r3, r3, #14
 20665 002a C2F80032 		str	r3, [r2, #512]
 438:../Libraries/STM32F10x_StdPeriph_Driver/src/stm32f10x_can.c ****   CAN1->FMR |= (uint32_t)(CAN_BankNumber)<<8;
 20666              		.loc 1 438 0
 20667 002e 0C4B     		ldr	r3, .L40
 20668 0030 0B4A     		ldr	r2, .L40
 20669 0032 D2F80012 		ldr	r1, [r2, #512]
 20670 0036 FA79     		ldrb	r2, [r7, #7]	@ zero_extendqisi2
 20671 0038 4FEA0222 		lsl	r2, r2, #8
 20672 003c 41EA0202 		orr	r2, r1, r2
 20673 0040 C3F80022 		str	r2, [r3, #512]
 439:../Libraries/STM32F10x_StdPeriph_Driver/src/stm32f10x_can.c ****   
 440:../Libraries/STM32F10x_StdPeriph_Driver/src/stm32f10x_can.c ****   /* Leave Initialisation mode for the filter */
 441:../Libraries/STM32F10x_StdPeriph_Driver/src/stm32f10x_can.c ****   CAN1->FMR &= ~FMR_FINIT;
 20674              		.loc 1 441 0
 20675 0044 064B     		ldr	r3, .L40
 20676 0046 064A     		ldr	r2, .L40
 20677 0048 D2F80022 		ldr	r2, [r2, #512]
 20678 004c 22F00102 		bic	r2, r2, #1
 20679 0050 C3F80022 		str	r2, [r3, #512]
 442:../Libraries/STM32F10x_StdPeriph_Driver/src/stm32f10x_can.c **** }
 20680              		.loc 1 442 0
 20681 0054 07F10C07 		add	r7, r7, #12
 20682 0058 BD46     		mov	sp, r7
 20683 005a 80BC     		pop	{r7}
 20684 005c 7047     		bx	lr
 20685              	.L41:
 20686 005e 00BF     		.align	2
 20687              	.L40:
 20688 0060 00640040 		.word	1073767424
 20689              		.cfi_endproc
 20690              	.LFE33:
 20692              		.section	.text.CAN_DBGFreeze,"ax",%progbits
 20693              		.align	2
 20694              		.global	CAN_DBGFreeze
 20695              		.thumb
 20696              		.thumb_func
 20698              	CAN_DBGFreeze:
 20699              	.LFB34:
 443:../Libraries/STM32F10x_StdPeriph_Driver/src/stm32f10x_can.c **** 
 444:../Libraries/STM32F10x_StdPeriph_Driver/src/stm32f10x_can.c **** /**
 445:../Libraries/STM32F10x_StdPeriph_Driver/src/stm32f10x_can.c ****   * @brief  Enables or disables the DBG Freeze for CAN.
 446:../Libraries/STM32F10x_StdPeriph_Driver/src/stm32f10x_can.c ****   * @param  CANx:     where x can be 1 or 2 to to select the CAN peripheral.
 447:../Libraries/STM32F10x_StdPeriph_Driver/src/stm32f10x_can.c ****   * @param  NewState: new state of the CAN peripheral. This parameter can 
 448:../Libraries/STM32F10x_StdPeriph_Driver/src/stm32f10x_can.c ****   *                   be: ENABLE or DISABLE.
 449:../Libraries/STM32F10x_StdPeriph_Driver/src/stm32f10x_can.c ****   * @retval None.
 450:../Libraries/STM32F10x_StdPeriph_Driver/src/stm32f10x_can.c ****   */
 451:../Libraries/STM32F10x_StdPeriph_Driver/src/stm32f10x_can.c **** void CAN_DBGFreeze(CAN_TypeDef* CANx, FunctionalState NewState)
 452:../Libraries/STM32F10x_StdPeriph_Driver/src/stm32f10x_can.c **** {
 20700              		.loc 1 452 0
 20701              		.cfi_startproc
 20702              		@ args = 0, pretend = 0, frame = 8
 20703              		@ frame_needed = 1, uses_anonymous_args = 0
 20704              		@ link register save eliminated.
 20705 0000 80B4     		push	{r7}
 20706              	.LCFI15:
 20707              		.cfi_def_cfa_offset 4
 20708 0002 83B0     		sub	sp, sp, #12
 20709              	.LCFI16:
 20710              		.cfi_def_cfa_offset 16
 20711 0004 00AF     		add	r7, sp, #0
 20712              		.cfi_offset 7, -4
 20713              	.LCFI17:
 20714              		.cfi_def_cfa_register 7
 20715 0006 7860     		str	r0, [r7, #4]
 20716 0008 0B46     		mov	r3, r1
 20717 000a FB70     		strb	r3, [r7, #3]
 453:../Libraries/STM32F10x_StdPeriph_Driver/src/stm32f10x_can.c ****   /* Check the parameters */
 454:../Libraries/STM32F10x_StdPeriph_Driver/src/stm32f10x_can.c ****   assert_param(IS_CAN_ALL_PERIPH(CANx));
 455:../Libraries/STM32F10x_StdPeriph_Driver/src/stm32f10x_can.c ****   assert_param(IS_FUNCTIONAL_STATE(NewState));
 456:../Libraries/STM32F10x_StdPeriph_Driver/src/stm32f10x_can.c ****   
 457:../Libraries/STM32F10x_StdPeriph_Driver/src/stm32f10x_can.c ****   if (NewState != DISABLE)
 20718              		.loc 1 457 0
 20719 000c FB78     		ldrb	r3, [r7, #3]	@ zero_extendqisi2
 20720 000e 002B     		cmp	r3, #0
 20721 0010 06D0     		beq	.L43
 458:../Libraries/STM32F10x_StdPeriph_Driver/src/stm32f10x_can.c ****   {
 459:../Libraries/STM32F10x_StdPeriph_Driver/src/stm32f10x_can.c ****     /* Enable Debug Freeze  */
 460:../Libraries/STM32F10x_StdPeriph_Driver/src/stm32f10x_can.c ****     CANx->MCR |= MCR_DBF;
 20722              		.loc 1 460 0
 20723 0012 7B68     		ldr	r3, [r7, #4]
 20724 0014 1B68     		ldr	r3, [r3, #0]
 20725 0016 43F48032 		orr	r2, r3, #65536
 20726 001a 7B68     		ldr	r3, [r7, #4]
 20727 001c 1A60     		str	r2, [r3, #0]
 20728 001e 05E0     		b	.L42
 20729              	.L43:
 461:../Libraries/STM32F10x_StdPeriph_Driver/src/stm32f10x_can.c ****   }
 462:../Libraries/STM32F10x_StdPeriph_Driver/src/stm32f10x_can.c ****   else
 463:../Libraries/STM32F10x_StdPeriph_Driver/src/stm32f10x_can.c ****   {
 464:../Libraries/STM32F10x_StdPeriph_Driver/src/stm32f10x_can.c ****     /* Disable Debug Freeze */
 465:../Libraries/STM32F10x_StdPeriph_Driver/src/stm32f10x_can.c ****     CANx->MCR &= ~MCR_DBF;
 20730              		.loc 1 465 0
 20731 0020 7B68     		ldr	r3, [r7, #4]
 20732 0022 1B68     		ldr	r3, [r3, #0]
 20733 0024 23F48032 		bic	r2, r3, #65536
 20734 0028 7B68     		ldr	r3, [r7, #4]
 20735 002a 1A60     		str	r2, [r3, #0]
 20736              	.L42:
 466:../Libraries/STM32F10x_StdPeriph_Driver/src/stm32f10x_can.c ****   }
 467:../Libraries/STM32F10x_StdPeriph_Driver/src/stm32f10x_can.c **** }
 20737              		.loc 1 467 0
 20738 002c 07F10C07 		add	r7, r7, #12
 20739 0030 BD46     		mov	sp, r7
 20740 0032 80BC     		pop	{r7}
 20741 0034 7047     		bx	lr
 20742              		.cfi_endproc
 20743              	.LFE34:
 20745 0036 00BF     		.section	.text.CAN_TTComModeCmd,"ax",%progbits
 20746              		.align	2
 20747              		.global	CAN_TTComModeCmd
 20748              		.thumb
 20749              		.thumb_func
 20751              	CAN_TTComModeCmd:
 20752              	.LFB35:
 468:../Libraries/STM32F10x_StdPeriph_Driver/src/stm32f10x_can.c **** 
 469:../Libraries/STM32F10x_StdPeriph_Driver/src/stm32f10x_can.c **** 
 470:../Libraries/STM32F10x_StdPeriph_Driver/src/stm32f10x_can.c **** /**
 471:../Libraries/STM32F10x_StdPeriph_Driver/src/stm32f10x_can.c ****   * @brief  Enables or disabes the CAN Time TriggerOperation communication mode.
 472:../Libraries/STM32F10x_StdPeriph_Driver/src/stm32f10x_can.c ****   * @param  CANx:      where x can be 1 or 2 to to select the CAN peripheral.
 473:../Libraries/STM32F10x_StdPeriph_Driver/src/stm32f10x_can.c ****   * @param  NewState : Mode new state , can be one of @ref FunctionalState.
 474:../Libraries/STM32F10x_StdPeriph_Driver/src/stm32f10x_can.c ****   * @note   when enabled, Time stamp (TIME[15:0]) value is sent in the last 
 475:../Libraries/STM32F10x_StdPeriph_Driver/src/stm32f10x_can.c ****   *         two data bytes of the 8-byte message: TIME[7:0] in data byte 6 
 476:../Libraries/STM32F10x_StdPeriph_Driver/src/stm32f10x_can.c ****   *         and TIME[15:8] in data byte 7 
 477:../Libraries/STM32F10x_StdPeriph_Driver/src/stm32f10x_can.c ****   * @note   DLC must be programmed as 8 in order Time Stamp (2 bytes) to be 
 478:../Libraries/STM32F10x_StdPeriph_Driver/src/stm32f10x_can.c ****   *         sent over the CAN bus.  
 479:../Libraries/STM32F10x_StdPeriph_Driver/src/stm32f10x_can.c ****   * @retval None
 480:../Libraries/STM32F10x_StdPeriph_Driver/src/stm32f10x_can.c ****   */
 481:../Libraries/STM32F10x_StdPeriph_Driver/src/stm32f10x_can.c **** void CAN_TTComModeCmd(CAN_TypeDef* CANx, FunctionalState NewState)
 482:../Libraries/STM32F10x_StdPeriph_Driver/src/stm32f10x_can.c **** {
 20753              		.loc 1 482 0
 20754              		.cfi_startproc
 20755              		@ args = 0, pretend = 0, frame = 8
 20756              		@ frame_needed = 1, uses_anonymous_args = 0
 20757              		@ link register save eliminated.
 20758 0000 80B4     		push	{r7}
 20759              	.LCFI18:
 20760              		.cfi_def_cfa_offset 4
 20761 0002 83B0     		sub	sp, sp, #12
 20762              	.LCFI19:
 20763              		.cfi_def_cfa_offset 16
 20764 0004 00AF     		add	r7, sp, #0
 20765              		.cfi_offset 7, -4
 20766              	.LCFI20:
 20767              		.cfi_def_cfa_register 7
 20768 0006 7860     		str	r0, [r7, #4]
 20769 0008 0B46     		mov	r3, r1
 20770 000a FB70     		strb	r3, [r7, #3]
 483:../Libraries/STM32F10x_StdPeriph_Driver/src/stm32f10x_can.c ****   /* Check the parameters */
 484:../Libraries/STM32F10x_StdPeriph_Driver/src/stm32f10x_can.c ****   assert_param(IS_CAN_ALL_PERIPH(CANx));
 485:../Libraries/STM32F10x_StdPeriph_Driver/src/stm32f10x_can.c ****   assert_param(IS_FUNCTIONAL_STATE(NewState));
 486:../Libraries/STM32F10x_StdPeriph_Driver/src/stm32f10x_can.c ****   if (NewState != DISABLE)
 20771              		.loc 1 486 0
 20772 000c FB78     		ldrb	r3, [r7, #3]	@ zero_extendqisi2
 20773 000e 002B     		cmp	r3, #0
 20774 0010 1ED0     		beq	.L46
 487:../Libraries/STM32F10x_StdPeriph_Driver/src/stm32f10x_can.c ****   {
 488:../Libraries/STM32F10x_StdPeriph_Driver/src/stm32f10x_can.c ****     /* Enable the TTCM mode */
 489:../Libraries/STM32F10x_StdPeriph_Driver/src/stm32f10x_can.c ****     CANx->MCR |= CAN_MCR_TTCM;
 20775              		.loc 1 489 0
 20776 0012 7B68     		ldr	r3, [r7, #4]
 20777 0014 1B68     		ldr	r3, [r3, #0]
 20778 0016 43F08002 		orr	r2, r3, #128
 20779 001a 7B68     		ldr	r3, [r7, #4]
 20780 001c 1A60     		str	r2, [r3, #0]
 490:../Libraries/STM32F10x_StdPeriph_Driver/src/stm32f10x_can.c **** 
 491:../Libraries/STM32F10x_StdPeriph_Driver/src/stm32f10x_can.c ****     /* Set TGT bits */
 492:../Libraries/STM32F10x_StdPeriph_Driver/src/stm32f10x_can.c ****     CANx->sTxMailBox[0].TDTR |= ((uint32_t)CAN_TDT0R_TGT);
 20781              		.loc 1 492 0
 20782 001e 7B68     		ldr	r3, [r7, #4]
 20783 0020 D3F88431 		ldr	r3, [r3, #388]
 20784 0024 43F48072 		orr	r2, r3, #256
 20785 0028 7B68     		ldr	r3, [r7, #4]
 20786 002a C3F88421 		str	r2, [r3, #388]
 493:../Libraries/STM32F10x_StdPeriph_Driver/src/stm32f10x_can.c ****     CANx->sTxMailBox[1].TDTR |= ((uint32_t)CAN_TDT1R_TGT);
 20787              		.loc 1 493 0
 20788 002e 7B68     		ldr	r3, [r7, #4]
 20789 0030 D3F89431 		ldr	r3, [r3, #404]
 20790 0034 43F48072 		orr	r2, r3, #256
 20791 0038 7B68     		ldr	r3, [r7, #4]
 20792 003a C3F89421 		str	r2, [r3, #404]
 494:../Libraries/STM32F10x_StdPeriph_Driver/src/stm32f10x_can.c ****     CANx->sTxMailBox[2].TDTR |= ((uint32_t)CAN_TDT2R_TGT);
 20793              		.loc 1 494 0
 20794 003e 7B68     		ldr	r3, [r7, #4]
 20795 0040 D3F8A431 		ldr	r3, [r3, #420]
 20796 0044 43F48072 		orr	r2, r3, #256
 20797 0048 7B68     		ldr	r3, [r7, #4]
 20798 004a C3F8A421 		str	r2, [r3, #420]
 20799 004e 1DE0     		b	.L45
 20800              	.L46:
 495:../Libraries/STM32F10x_StdPeriph_Driver/src/stm32f10x_can.c ****   }
 496:../Libraries/STM32F10x_StdPeriph_Driver/src/stm32f10x_can.c ****   else
 497:../Libraries/STM32F10x_StdPeriph_Driver/src/stm32f10x_can.c ****   {
 498:../Libraries/STM32F10x_StdPeriph_Driver/src/stm32f10x_can.c ****     /* Disable the TTCM mode */
 499:../Libraries/STM32F10x_StdPeriph_Driver/src/stm32f10x_can.c ****     CANx->MCR &= (uint32_t)(~(uint32_t)CAN_MCR_TTCM);
 20801              		.loc 1 499 0
 20802 0050 7B68     		ldr	r3, [r7, #4]
 20803 0052 1B68     		ldr	r3, [r3, #0]
 20804 0054 23F08002 		bic	r2, r3, #128
 20805 0058 7B68     		ldr	r3, [r7, #4]
 20806 005a 1A60     		str	r2, [r3, #0]
 500:../Libraries/STM32F10x_StdPeriph_Driver/src/stm32f10x_can.c **** 
 501:../Libraries/STM32F10x_StdPeriph_Driver/src/stm32f10x_can.c ****     /* Reset TGT bits */
 502:../Libraries/STM32F10x_StdPeriph_Driver/src/stm32f10x_can.c ****     CANx->sTxMailBox[0].TDTR &= ((uint32_t)~CAN_TDT0R_TGT);
 20807              		.loc 1 502 0
 20808 005c 7B68     		ldr	r3, [r7, #4]
 20809 005e D3F88431 		ldr	r3, [r3, #388]
 20810 0062 23F48072 		bic	r2, r3, #256
 20811 0066 7B68     		ldr	r3, [r7, #4]
 20812 0068 C3F88421 		str	r2, [r3, #388]
 503:../Libraries/STM32F10x_StdPeriph_Driver/src/stm32f10x_can.c ****     CANx->sTxMailBox[1].TDTR &= ((uint32_t)~CAN_TDT1R_TGT);
 20813              		.loc 1 503 0
 20814 006c 7B68     		ldr	r3, [r7, #4]
 20815 006e D3F89431 		ldr	r3, [r3, #404]
 20816 0072 23F48072 		bic	r2, r3, #256
 20817 0076 7B68     		ldr	r3, [r7, #4]
 20818 0078 C3F89421 		str	r2, [r3, #404]
 504:../Libraries/STM32F10x_StdPeriph_Driver/src/stm32f10x_can.c ****     CANx->sTxMailBox[2].TDTR &= ((uint32_t)~CAN_TDT2R_TGT);
 20819              		.loc 1 504 0
 20820 007c 7B68     		ldr	r3, [r7, #4]
 20821 007e D3F8A431 		ldr	r3, [r3, #420]
 20822 0082 23F48072 		bic	r2, r3, #256
 20823 0086 7B68     		ldr	r3, [r7, #4]
 20824 0088 C3F8A421 		str	r2, [r3, #420]
 20825              	.L45:
 505:../Libraries/STM32F10x_StdPeriph_Driver/src/stm32f10x_can.c ****   }
 506:../Libraries/STM32F10x_StdPeriph_Driver/src/stm32f10x_can.c **** }
 20826              		.loc 1 506 0
 20827 008c 07F10C07 		add	r7, r7, #12
 20828 0090 BD46     		mov	sp, r7
 20829 0092 80BC     		pop	{r7}
 20830 0094 7047     		bx	lr
 20831              		.cfi_endproc
 20832              	.LFE35:
 20834 0096 00BF     		.section	.text.CAN_Transmit,"ax",%progbits
 20835              		.align	2
 20836              		.global	CAN_Transmit
 20837              		.thumb
 20838              		.thumb_func
 20840              	CAN_Transmit:
 20841              	.LFB36:
 507:../Libraries/STM32F10x_StdPeriph_Driver/src/stm32f10x_can.c **** /**
 508:../Libraries/STM32F10x_StdPeriph_Driver/src/stm32f10x_can.c ****   * @brief  Initiates the transmission of a message.
 509:../Libraries/STM32F10x_StdPeriph_Driver/src/stm32f10x_can.c ****   * @param  CANx:      where x can be 1 or 2 to to select the CAN peripheral.
 510:../Libraries/STM32F10x_StdPeriph_Driver/src/stm32f10x_can.c ****   * @param  TxMessage: pointer to a structure which contains CAN Id, CAN
 511:../Libraries/STM32F10x_StdPeriph_Driver/src/stm32f10x_can.c ****   *                    DLC and CAN data.
 512:../Libraries/STM32F10x_StdPeriph_Driver/src/stm32f10x_can.c ****   * @retval The number of the mailbox that is used for transmission
 513:../Libraries/STM32F10x_StdPeriph_Driver/src/stm32f10x_can.c ****   *                    or CAN_TxStatus_NoMailBox if there is no empty mailbox.
 514:../Libraries/STM32F10x_StdPeriph_Driver/src/stm32f10x_can.c ****   */
 515:../Libraries/STM32F10x_StdPeriph_Driver/src/stm32f10x_can.c **** uint8_t CAN_Transmit(CAN_TypeDef* CANx, CanTxMsg* TxMessage)
 516:../Libraries/STM32F10x_StdPeriph_Driver/src/stm32f10x_can.c **** {
 20842              		.loc 1 516 0
 20843              		.cfi_startproc
 20844              		@ args = 0, pretend = 0, frame = 16
 20845              		@ frame_needed = 1, uses_anonymous_args = 0
 20846              		@ link register save eliminated.
 20847 0000 80B4     		push	{r7}
 20848              	.LCFI21:
 20849              		.cfi_def_cfa_offset 4
 20850 0002 85B0     		sub	sp, sp, #20
 20851              	.LCFI22:
 20852              		.cfi_def_cfa_offset 24
 20853 0004 00AF     		add	r7, sp, #0
 20854              		.cfi_offset 7, -4
 20855              	.LCFI23:
 20856              		.cfi_def_cfa_register 7
 20857 0006 7860     		str	r0, [r7, #4]
 20858 0008 3960     		str	r1, [r7, #0]
 517:../Libraries/STM32F10x_StdPeriph_Driver/src/stm32f10x_can.c ****   uint8_t transmit_mailbox = 0;
 20859              		.loc 1 517 0
 20860 000a 4FF00003 		mov	r3, #0
 20861 000e FB73     		strb	r3, [r7, #15]
 518:../Libraries/STM32F10x_StdPeriph_Driver/src/stm32f10x_can.c ****   /* Check the parameters */
 519:../Libraries/STM32F10x_StdPeriph_Driver/src/stm32f10x_can.c ****   assert_param(IS_CAN_ALL_PERIPH(CANx));
 520:../Libraries/STM32F10x_StdPeriph_Driver/src/stm32f10x_can.c ****   assert_param(IS_CAN_IDTYPE(TxMessage->IDE));
 521:../Libraries/STM32F10x_StdPeriph_Driver/src/stm32f10x_can.c ****   assert_param(IS_CAN_RTR(TxMessage->RTR));
 522:../Libraries/STM32F10x_StdPeriph_Driver/src/stm32f10x_can.c ****   assert_param(IS_CAN_DLC(TxMessage->DLC));
 523:../Libraries/STM32F10x_StdPeriph_Driver/src/stm32f10x_can.c **** 
 524:../Libraries/STM32F10x_StdPeriph_Driver/src/stm32f10x_can.c ****   /* Select one empty transmit mailbox */
 525:../Libraries/STM32F10x_StdPeriph_Driver/src/stm32f10x_can.c ****   if ((CANx->TSR&CAN_TSR_TME0) == CAN_TSR_TME0)
 20862              		.loc 1 525 0
 20863 0010 7B68     		ldr	r3, [r7, #4]
 20864 0012 9B68     		ldr	r3, [r3, #8]
 20865 0014 03F08063 		and	r3, r3, #67108864
 20866 0018 002B     		cmp	r3, #0
 20867 001a 03D0     		beq	.L49
 526:../Libraries/STM32F10x_StdPeriph_Driver/src/stm32f10x_can.c ****   {
 527:../Libraries/STM32F10x_StdPeriph_Driver/src/stm32f10x_can.c ****     transmit_mailbox = 0;
 20868              		.loc 1 527 0
 20869 001c 4FF00003 		mov	r3, #0
 20870 0020 FB73     		strb	r3, [r7, #15]
 20871 0022 16E0     		b	.L50
 20872              	.L49:
 528:../Libraries/STM32F10x_StdPeriph_Driver/src/stm32f10x_can.c ****   }
 529:../Libraries/STM32F10x_StdPeriph_Driver/src/stm32f10x_can.c ****   else if ((CANx->TSR&CAN_TSR_TME1) == CAN_TSR_TME1)
 20873              		.loc 1 529 0
 20874 0024 7B68     		ldr	r3, [r7, #4]
 20875 0026 9B68     		ldr	r3, [r3, #8]
 20876 0028 03F00063 		and	r3, r3, #134217728
 20877 002c 002B     		cmp	r3, #0
 20878 002e 03D0     		beq	.L51
 530:../Libraries/STM32F10x_StdPeriph_Driver/src/stm32f10x_can.c ****   {
 531:../Libraries/STM32F10x_StdPeriph_Driver/src/stm32f10x_can.c ****     transmit_mailbox = 1;
 20879              		.loc 1 531 0
 20880 0030 4FF00103 		mov	r3, #1
 20881 0034 FB73     		strb	r3, [r7, #15]
 20882 0036 0CE0     		b	.L50
 20883              	.L51:
 532:../Libraries/STM32F10x_StdPeriph_Driver/src/stm32f10x_can.c ****   }
 533:../Libraries/STM32F10x_StdPeriph_Driver/src/stm32f10x_can.c ****   else if ((CANx->TSR&CAN_TSR_TME2) == CAN_TSR_TME2)
 20884              		.loc 1 533 0
 20885 0038 7B68     		ldr	r3, [r7, #4]
 20886 003a 9B68     		ldr	r3, [r3, #8]
 20887 003c 03F08053 		and	r3, r3, #268435456
 20888 0040 002B     		cmp	r3, #0
 20889 0042 03D0     		beq	.L52
 534:../Libraries/STM32F10x_StdPeriph_Driver/src/stm32f10x_can.c ****   {
 535:../Libraries/STM32F10x_StdPeriph_Driver/src/stm32f10x_can.c ****     transmit_mailbox = 2;
 20890              		.loc 1 535 0
 20891 0044 4FF00203 		mov	r3, #2
 20892 0048 FB73     		strb	r3, [r7, #15]
 20893 004a 02E0     		b	.L50
 20894              	.L52:
 536:../Libraries/STM32F10x_StdPeriph_Driver/src/stm32f10x_can.c ****   }
 537:../Libraries/STM32F10x_StdPeriph_Driver/src/stm32f10x_can.c ****   else
 538:../Libraries/STM32F10x_StdPeriph_Driver/src/stm32f10x_can.c ****   {
 539:../Libraries/STM32F10x_StdPeriph_Driver/src/stm32f10x_can.c ****     transmit_mailbox = CAN_TxStatus_NoMailBox;
 20895              		.loc 1 539 0
 20896 004c 4FF00403 		mov	r3, #4
 20897 0050 FB73     		strb	r3, [r7, #15]
 20898              	.L50:
 540:../Libraries/STM32F10x_StdPeriph_Driver/src/stm32f10x_can.c ****   }
 541:../Libraries/STM32F10x_StdPeriph_Driver/src/stm32f10x_can.c **** 
 542:../Libraries/STM32F10x_StdPeriph_Driver/src/stm32f10x_can.c ****   if (transmit_mailbox != CAN_TxStatus_NoMailBox)
 20899              		.loc 1 542 0
 20900 0052 FB7B     		ldrb	r3, [r7, #15]	@ zero_extendqisi2
 20901 0054 042B     		cmp	r3, #4
 20902 0056 00F0C180 		beq	.L53
 543:../Libraries/STM32F10x_StdPeriph_Driver/src/stm32f10x_can.c ****   {
 544:../Libraries/STM32F10x_StdPeriph_Driver/src/stm32f10x_can.c ****     /* Set up the Id */
 545:../Libraries/STM32F10x_StdPeriph_Driver/src/stm32f10x_can.c ****     CANx->sTxMailBox[transmit_mailbox].TIR &= TMIDxR_TXRQ;
 20903              		.loc 1 545 0
 20904 005a FB7B     		ldrb	r3, [r7, #15]	@ zero_extendqisi2
 20905 005c FA7B     		ldrb	r2, [r7, #15]	@ zero_extendqisi2
 20906 005e 7968     		ldr	r1, [r7, #4]
 20907 0060 02F11802 		add	r2, r2, #24
 20908 0064 4FEA0212 		lsl	r2, r2, #4
 20909 0068 8A18     		adds	r2, r1, r2
 20910 006a 1268     		ldr	r2, [r2, #0]
 20911 006c 02F00102 		and	r2, r2, #1
 20912 0070 7968     		ldr	r1, [r7, #4]
 20913 0072 03F11803 		add	r3, r3, #24
 20914 0076 4FEA0313 		lsl	r3, r3, #4
 20915 007a CB18     		adds	r3, r1, r3
 20916 007c 1A60     		str	r2, [r3, #0]
 546:../Libraries/STM32F10x_StdPeriph_Driver/src/stm32f10x_can.c ****     if (TxMessage->IDE == CAN_Id_Standard)
 20917              		.loc 1 546 0
 20918 007e 3B68     		ldr	r3, [r7, #0]
 20919 0080 1B7A     		ldrb	r3, [r3, #8]	@ zero_extendqisi2
 20920 0082 002B     		cmp	r3, #0
 20921 0084 1AD1     		bne	.L54
 547:../Libraries/STM32F10x_StdPeriph_Driver/src/stm32f10x_can.c ****     {
 548:../Libraries/STM32F10x_StdPeriph_Driver/src/stm32f10x_can.c ****       assert_param(IS_CAN_STDID(TxMessage->StdId));  
 549:../Libraries/STM32F10x_StdPeriph_Driver/src/stm32f10x_can.c ****       CANx->sTxMailBox[transmit_mailbox].TIR |= ((TxMessage->StdId << 21) | \
 20922              		.loc 1 549 0
 20923 0086 FB7B     		ldrb	r3, [r7, #15]	@ zero_extendqisi2
 20924 0088 FA7B     		ldrb	r2, [r7, #15]	@ zero_extendqisi2
 20925 008a 7968     		ldr	r1, [r7, #4]
 20926 008c 02F11802 		add	r2, r2, #24
 20927 0090 4FEA0212 		lsl	r2, r2, #4
 20928 0094 8A18     		adds	r2, r1, r2
 20929 0096 1168     		ldr	r1, [r2, #0]
 20930 0098 3A68     		ldr	r2, [r7, #0]
 20931 009a 1268     		ldr	r2, [r2, #0]
 20932 009c 4FEA4250 		lsl	r0, r2, #21
 550:../Libraries/STM32F10x_StdPeriph_Driver/src/stm32f10x_can.c ****                                                   TxMessage->RTR);
 20933              		.loc 1 550 0
 20934 00a0 3A68     		ldr	r2, [r7, #0]
 20935 00a2 527A     		ldrb	r2, [r2, #9]	@ zero_extendqisi2
 549:../Libraries/STM32F10x_StdPeriph_Driver/src/stm32f10x_can.c ****       CANx->sTxMailBox[transmit_mailbox].TIR |= ((TxMessage->StdId << 21) | \
 20936              		.loc 1 549 0
 20937 00a4 40EA0202 		orr	r2, r0, r2
 20938 00a8 41EA0202 		orr	r2, r1, r2
 20939 00ac 7968     		ldr	r1, [r7, #4]
 20940 00ae 03F11803 		add	r3, r3, #24
 20941 00b2 4FEA0313 		lsl	r3, r3, #4
 20942 00b6 CB18     		adds	r3, r1, r3
 20943 00b8 1A60     		str	r2, [r3, #0]
 20944 00ba 1CE0     		b	.L55
 20945              	.L54:
 551:../Libraries/STM32F10x_StdPeriph_Driver/src/stm32f10x_can.c ****     }
 552:../Libraries/STM32F10x_StdPeriph_Driver/src/stm32f10x_can.c ****     else
 553:../Libraries/STM32F10x_StdPeriph_Driver/src/stm32f10x_can.c ****     {
 554:../Libraries/STM32F10x_StdPeriph_Driver/src/stm32f10x_can.c ****       assert_param(IS_CAN_EXTID(TxMessage->ExtId));
 555:../Libraries/STM32F10x_StdPeriph_Driver/src/stm32f10x_can.c ****       CANx->sTxMailBox[transmit_mailbox].TIR |= ((TxMessage->ExtId << 3) | \
 20946              		.loc 1 555 0
 20947 00bc FB7B     		ldrb	r3, [r7, #15]	@ zero_extendqisi2
 20948 00be FA7B     		ldrb	r2, [r7, #15]	@ zero_extendqisi2
 20949 00c0 7968     		ldr	r1, [r7, #4]
 20950 00c2 02F11802 		add	r2, r2, #24
 20951 00c6 4FEA0212 		lsl	r2, r2, #4
 20952 00ca 8A18     		adds	r2, r1, r2
 20953 00cc 1168     		ldr	r1, [r2, #0]
 20954 00ce 3A68     		ldr	r2, [r7, #0]
 20955 00d0 5268     		ldr	r2, [r2, #4]
 20956 00d2 4FEAC200 		lsl	r0, r2, #3
 556:../Libraries/STM32F10x_StdPeriph_Driver/src/stm32f10x_can.c ****                                                   TxMessage->IDE | \
 20957              		.loc 1 556 0
 20958 00d6 3A68     		ldr	r2, [r7, #0]
 20959 00d8 127A     		ldrb	r2, [r2, #8]	@ zero_extendqisi2
 555:../Libraries/STM32F10x_StdPeriph_Driver/src/stm32f10x_can.c ****       CANx->sTxMailBox[transmit_mailbox].TIR |= ((TxMessage->ExtId << 3) | \
 20960              		.loc 1 555 0
 20961 00da 1043     		orrs	r0, r0, r2
 557:../Libraries/STM32F10x_StdPeriph_Driver/src/stm32f10x_can.c ****                                                   TxMessage->RTR);
 20962              		.loc 1 557 0
 20963 00dc 3A68     		ldr	r2, [r7, #0]
 20964 00de 527A     		ldrb	r2, [r2, #9]	@ zero_extendqisi2
 556:../Libraries/STM32F10x_StdPeriph_Driver/src/stm32f10x_can.c ****                                                   TxMessage->IDE | \
 20965              		.loc 1 556 0
 20966 00e0 40EA0202 		orr	r2, r0, r2
 555:../Libraries/STM32F10x_StdPeriph_Driver/src/stm32f10x_can.c ****       CANx->sTxMailBox[transmit_mailbox].TIR |= ((TxMessage->ExtId << 3) | \
 20967              		.loc 1 555 0
 20968 00e4 41EA0202 		orr	r2, r1, r2
 20969 00e8 7968     		ldr	r1, [r7, #4]
 20970 00ea 03F11803 		add	r3, r3, #24
 20971 00ee 4FEA0313 		lsl	r3, r3, #4
 20972 00f2 CB18     		adds	r3, r1, r3
 20973 00f4 1A60     		str	r2, [r3, #0]
 20974              	.L55:
 558:../Libraries/STM32F10x_StdPeriph_Driver/src/stm32f10x_can.c ****     }
 559:../Libraries/STM32F10x_StdPeriph_Driver/src/stm32f10x_can.c ****     
 560:../Libraries/STM32F10x_StdPeriph_Driver/src/stm32f10x_can.c ****     /* Set up the DLC */
 561:../Libraries/STM32F10x_StdPeriph_Driver/src/stm32f10x_can.c ****     TxMessage->DLC &= (uint8_t)0x0000000F;
 20975              		.loc 1 561 0
 20976 00f6 3B68     		ldr	r3, [r7, #0]
 20977 00f8 9B7A     		ldrb	r3, [r3, #10]	@ zero_extendqisi2
 20978 00fa 03F00F03 		and	r3, r3, #15
 20979 00fe DAB2     		uxtb	r2, r3
 20980 0100 3B68     		ldr	r3, [r7, #0]
 20981 0102 9A72     		strb	r2, [r3, #10]
 562:../Libraries/STM32F10x_StdPeriph_Driver/src/stm32f10x_can.c ****     CANx->sTxMailBox[transmit_mailbox].TDTR &= (uint32_t)0xFFFFFFF0;
 20982              		.loc 1 562 0
 20983 0104 FB7B     		ldrb	r3, [r7, #15]	@ zero_extendqisi2
 20984 0106 FA7B     		ldrb	r2, [r7, #15]	@ zero_extendqisi2
 20985 0108 7968     		ldr	r1, [r7, #4]
 20986 010a 02F11802 		add	r2, r2, #24
 20987 010e 4FEA0212 		lsl	r2, r2, #4
 20988 0112 8A18     		adds	r2, r1, r2
 20989 0114 5268     		ldr	r2, [r2, #4]
 20990 0116 22F00F02 		bic	r2, r2, #15
 20991 011a 7968     		ldr	r1, [r7, #4]
 20992 011c 03F11803 		add	r3, r3, #24
 20993 0120 4FEA0313 		lsl	r3, r3, #4
 20994 0124 CB18     		adds	r3, r1, r3
 20995 0126 5A60     		str	r2, [r3, #4]
 563:../Libraries/STM32F10x_StdPeriph_Driver/src/stm32f10x_can.c ****     CANx->sTxMailBox[transmit_mailbox].TDTR |= TxMessage->DLC;
 20996              		.loc 1 563 0
 20997 0128 FB7B     		ldrb	r3, [r7, #15]	@ zero_extendqisi2
 20998 012a FA7B     		ldrb	r2, [r7, #15]	@ zero_extendqisi2
 20999 012c 7968     		ldr	r1, [r7, #4]
 21000 012e 02F11802 		add	r2, r2, #24
 21001 0132 4FEA0212 		lsl	r2, r2, #4
 21002 0136 8A18     		adds	r2, r1, r2
 21003 0138 5168     		ldr	r1, [r2, #4]
 21004 013a 3A68     		ldr	r2, [r7, #0]
 21005 013c 927A     		ldrb	r2, [r2, #10]	@ zero_extendqisi2
 21006 013e 41EA0202 		orr	r2, r1, r2
 21007 0142 7968     		ldr	r1, [r7, #4]
 21008 0144 03F11803 		add	r3, r3, #24
 21009 0148 4FEA0313 		lsl	r3, r3, #4
 21010 014c CB18     		adds	r3, r1, r3
 21011 014e 5A60     		str	r2, [r3, #4]
 564:../Libraries/STM32F10x_StdPeriph_Driver/src/stm32f10x_can.c **** 
 565:../Libraries/STM32F10x_StdPeriph_Driver/src/stm32f10x_can.c ****     /* Set up the data field */
 566:../Libraries/STM32F10x_StdPeriph_Driver/src/stm32f10x_can.c ****     CANx->sTxMailBox[transmit_mailbox].TDLR = (((uint32_t)TxMessage->Data[3] << 24) | 
 21012              		.loc 1 566 0
 21013 0150 FB7B     		ldrb	r3, [r7, #15]	@ zero_extendqisi2
 21014 0152 3A68     		ldr	r2, [r7, #0]
 21015 0154 927B     		ldrb	r2, [r2, #14]	@ zero_extendqisi2
 21016 0156 4FEA0261 		lsl	r1, r2, #24
 567:../Libraries/STM32F10x_StdPeriph_Driver/src/stm32f10x_can.c ****                                              ((uint32_t)TxMessage->Data[2] << 16) |
 21017              		.loc 1 567 0
 21018 015a 3A68     		ldr	r2, [r7, #0]
 21019 015c 527B     		ldrb	r2, [r2, #13]	@ zero_extendqisi2
 21020 015e 4FEA0242 		lsl	r2, r2, #16
 566:../Libraries/STM32F10x_StdPeriph_Driver/src/stm32f10x_can.c ****     CANx->sTxMailBox[transmit_mailbox].TDLR = (((uint32_t)TxMessage->Data[3] << 24) | 
 21021              		.loc 1 566 0
 21022 0162 1143     		orrs	r1, r1, r2
 568:../Libraries/STM32F10x_StdPeriph_Driver/src/stm32f10x_can.c ****                                              ((uint32_t)TxMessage->Data[1] << 8) | 
 21023              		.loc 1 568 0
 21024 0164 3A68     		ldr	r2, [r7, #0]
 21025 0166 127B     		ldrb	r2, [r2, #12]	@ zero_extendqisi2
 21026 0168 4FEA0222 		lsl	r2, r2, #8
 567:../Libraries/STM32F10x_StdPeriph_Driver/src/stm32f10x_can.c ****                                              ((uint32_t)TxMessage->Data[2] << 16) |
 21027              		.loc 1 567 0
 21028 016c 1143     		orrs	r1, r1, r2
 569:../Libraries/STM32F10x_StdPeriph_Driver/src/stm32f10x_can.c ****                                              ((uint32_t)TxMessage->Data[0]));
 21029              		.loc 1 569 0
 21030 016e 3A68     		ldr	r2, [r7, #0]
 21031 0170 D27A     		ldrb	r2, [r2, #11]	@ zero_extendqisi2
 568:../Libraries/STM32F10x_StdPeriph_Driver/src/stm32f10x_can.c ****                                              ((uint32_t)TxMessage->Data[1] << 8) | 
 21032              		.loc 1 568 0
 21033 0172 41EA0202 		orr	r2, r1, r2
 566:../Libraries/STM32F10x_StdPeriph_Driver/src/stm32f10x_can.c ****     CANx->sTxMailBox[transmit_mailbox].TDLR = (((uint32_t)TxMessage->Data[3] << 24) | 
 21034              		.loc 1 566 0
 21035 0176 7968     		ldr	r1, [r7, #4]
 21036 0178 4FEA0313 		lsl	r3, r3, #4
 21037 017c CB18     		adds	r3, r1, r3
 21038 017e 03F5C473 		add	r3, r3, #392
 21039 0182 1A60     		str	r2, [r3, #0]
 570:../Libraries/STM32F10x_StdPeriph_Driver/src/stm32f10x_can.c ****     CANx->sTxMailBox[transmit_mailbox].TDHR = (((uint32_t)TxMessage->Data[7] << 24) | 
 21040              		.loc 1 570 0
 21041 0184 FB7B     		ldrb	r3, [r7, #15]	@ zero_extendqisi2
 21042 0186 3A68     		ldr	r2, [r7, #0]
 21043 0188 927C     		ldrb	r2, [r2, #18]	@ zero_extendqisi2
 21044 018a 4FEA0261 		lsl	r1, r2, #24
 571:../Libraries/STM32F10x_StdPeriph_Driver/src/stm32f10x_can.c ****                                              ((uint32_t)TxMessage->Data[6] << 16) |
 21045              		.loc 1 571 0
 21046 018e 3A68     		ldr	r2, [r7, #0]
 21047 0190 527C     		ldrb	r2, [r2, #17]	@ zero_extendqisi2
 21048 0192 4FEA0242 		lsl	r2, r2, #16
 570:../Libraries/STM32F10x_StdPeriph_Driver/src/stm32f10x_can.c ****     CANx->sTxMailBox[transmit_mailbox].TDHR = (((uint32_t)TxMessage->Data[7] << 24) | 
 21049              		.loc 1 570 0
 21050 0196 1143     		orrs	r1, r1, r2
 572:../Libraries/STM32F10x_StdPeriph_Driver/src/stm32f10x_can.c ****                                              ((uint32_t)TxMessage->Data[5] << 8) |
 21051              		.loc 1 572 0
 21052 0198 3A68     		ldr	r2, [r7, #0]
 21053 019a 127C     		ldrb	r2, [r2, #16]	@ zero_extendqisi2
 21054 019c 4FEA0222 		lsl	r2, r2, #8
 571:../Libraries/STM32F10x_StdPeriph_Driver/src/stm32f10x_can.c ****                                              ((uint32_t)TxMessage->Data[6] << 16) |
 21055              		.loc 1 571 0
 21056 01a0 1143     		orrs	r1, r1, r2
 573:../Libraries/STM32F10x_StdPeriph_Driver/src/stm32f10x_can.c ****                                              ((uint32_t)TxMessage->Data[4]));
 21057              		.loc 1 573 0
 21058 01a2 3A68     		ldr	r2, [r7, #0]
 21059 01a4 D27B     		ldrb	r2, [r2, #15]	@ zero_extendqisi2
 572:../Libraries/STM32F10x_StdPeriph_Driver/src/stm32f10x_can.c ****                                              ((uint32_t)TxMessage->Data[5] << 8) |
 21060              		.loc 1 572 0
 21061 01a6 41EA0202 		orr	r2, r1, r2
 570:../Libraries/STM32F10x_StdPeriph_Driver/src/stm32f10x_can.c ****     CANx->sTxMailBox[transmit_mailbox].TDHR = (((uint32_t)TxMessage->Data[7] << 24) | 
 21062              		.loc 1 570 0
 21063 01aa 7968     		ldr	r1, [r7, #4]
 21064 01ac 4FEA0313 		lsl	r3, r3, #4
 21065 01b0 CB18     		adds	r3, r1, r3
 21066 01b2 03F5C473 		add	r3, r3, #392
 21067 01b6 5A60     		str	r2, [r3, #4]
 574:../Libraries/STM32F10x_StdPeriph_Driver/src/stm32f10x_can.c ****     /* Request transmission */
 575:../Libraries/STM32F10x_StdPeriph_Driver/src/stm32f10x_can.c ****     CANx->sTxMailBox[transmit_mailbox].TIR |= TMIDxR_TXRQ;
 21068              		.loc 1 575 0
 21069 01b8 FB7B     		ldrb	r3, [r7, #15]	@ zero_extendqisi2
 21070 01ba FA7B     		ldrb	r2, [r7, #15]	@ zero_extendqisi2
 21071 01bc 7968     		ldr	r1, [r7, #4]
 21072 01be 02F11802 		add	r2, r2, #24
 21073 01c2 4FEA0212 		lsl	r2, r2, #4
 21074 01c6 8A18     		adds	r2, r1, r2
 21075 01c8 1268     		ldr	r2, [r2, #0]
 21076 01ca 42F00102 		orr	r2, r2, #1
 21077 01ce 7968     		ldr	r1, [r7, #4]
 21078 01d0 03F11803 		add	r3, r3, #24
 21079 01d4 4FEA0313 		lsl	r3, r3, #4
 21080 01d8 CB18     		adds	r3, r1, r3
 21081 01da 1A60     		str	r2, [r3, #0]
 21082              	.L53:
 576:../Libraries/STM32F10x_StdPeriph_Driver/src/stm32f10x_can.c ****   }
 577:../Libraries/STM32F10x_StdPeriph_Driver/src/stm32f10x_can.c ****   return transmit_mailbox;
 21083              		.loc 1 577 0
 21084 01dc FB7B     		ldrb	r3, [r7, #15]	@ zero_extendqisi2
 578:../Libraries/STM32F10x_StdPeriph_Driver/src/stm32f10x_can.c **** }
 21085              		.loc 1 578 0
 21086 01de 1846     		mov	r0, r3
 21087 01e0 07F11407 		add	r7, r7, #20
 21088 01e4 BD46     		mov	sp, r7
 21089 01e6 80BC     		pop	{r7}
 21090 01e8 7047     		bx	lr
 21091              		.cfi_endproc
 21092              	.LFE36:
 21094 01ea 00BF     		.section	.text.CAN_TransmitStatus,"ax",%progbits
 21095              		.align	2
 21096              		.global	CAN_TransmitStatus
 21097              		.thumb
 21098              		.thumb_func
 21100              	CAN_TransmitStatus:
 21101              	.LFB37:
 579:../Libraries/STM32F10x_StdPeriph_Driver/src/stm32f10x_can.c **** 
 580:../Libraries/STM32F10x_StdPeriph_Driver/src/stm32f10x_can.c **** /**
 581:../Libraries/STM32F10x_StdPeriph_Driver/src/stm32f10x_can.c ****   * @brief  Checks the transmission of a message.
 582:../Libraries/STM32F10x_StdPeriph_Driver/src/stm32f10x_can.c ****   * @param  CANx:            where x can be 1 or 2 to to select the 
 583:../Libraries/STM32F10x_StdPeriph_Driver/src/stm32f10x_can.c ****   *                          CAN peripheral.
 584:../Libraries/STM32F10x_StdPeriph_Driver/src/stm32f10x_can.c ****   * @param  TransmitMailbox: the number of the mailbox that is used for 
 585:../Libraries/STM32F10x_StdPeriph_Driver/src/stm32f10x_can.c ****   *                          transmission.
 586:../Libraries/STM32F10x_StdPeriph_Driver/src/stm32f10x_can.c ****   * @retval CAN_TxStatus_Ok if the CAN driver transmits the message, CAN_TxStatus_Failed 
 587:../Libraries/STM32F10x_StdPeriph_Driver/src/stm32f10x_can.c ****   *         in an other case.
 588:../Libraries/STM32F10x_StdPeriph_Driver/src/stm32f10x_can.c ****   */
 589:../Libraries/STM32F10x_StdPeriph_Driver/src/stm32f10x_can.c **** uint8_t CAN_TransmitStatus(CAN_TypeDef* CANx, uint8_t TransmitMailbox)
 590:../Libraries/STM32F10x_StdPeriph_Driver/src/stm32f10x_can.c **** {
 21102              		.loc 1 590 0
 21103              		.cfi_startproc
 21104              		@ args = 0, pretend = 0, frame = 16
 21105              		@ frame_needed = 1, uses_anonymous_args = 0
 21106              		@ link register save eliminated.
 21107 0000 80B4     		push	{r7}
 21108              	.LCFI24:
 21109              		.cfi_def_cfa_offset 4
 21110 0002 85B0     		sub	sp, sp, #20
 21111              	.LCFI25:
 21112              		.cfi_def_cfa_offset 24
 21113 0004 00AF     		add	r7, sp, #0
 21114              		.cfi_offset 7, -4
 21115              	.LCFI26:
 21116              		.cfi_def_cfa_register 7
 21117 0006 7860     		str	r0, [r7, #4]
 21118 0008 0B46     		mov	r3, r1
 21119 000a FB70     		strb	r3, [r7, #3]
 591:../Libraries/STM32F10x_StdPeriph_Driver/src/stm32f10x_can.c ****   uint32_t state = 0;
 21120              		.loc 1 591 0
 21121 000c 4FF00003 		mov	r3, #0
 21122 0010 FB60     		str	r3, [r7, #12]
 592:../Libraries/STM32F10x_StdPeriph_Driver/src/stm32f10x_can.c **** 
 593:../Libraries/STM32F10x_StdPeriph_Driver/src/stm32f10x_can.c ****   /* Check the parameters */
 594:../Libraries/STM32F10x_StdPeriph_Driver/src/stm32f10x_can.c ****   assert_param(IS_CAN_ALL_PERIPH(CANx));
 595:../Libraries/STM32F10x_StdPeriph_Driver/src/stm32f10x_can.c ****   assert_param(IS_CAN_TRANSMITMAILBOX(TransmitMailbox));
 596:../Libraries/STM32F10x_StdPeriph_Driver/src/stm32f10x_can.c ****  
 597:../Libraries/STM32F10x_StdPeriph_Driver/src/stm32f10x_can.c ****   switch (TransmitMailbox)
 21123              		.loc 1 597 0
 21124 0012 FB78     		ldrb	r3, [r7, #3]	@ zero_extendqisi2
 21125 0014 012B     		cmp	r3, #1
 21126 0016 0AD0     		beq	.L59
 21127 0018 022B     		cmp	r3, #2
 21128 001a 0FD0     		beq	.L60
 21129 001c 002B     		cmp	r3, #0
 21130 001e 14D1     		bne	.L72
 21131              	.L58:
 598:../Libraries/STM32F10x_StdPeriph_Driver/src/stm32f10x_can.c ****   {
 599:../Libraries/STM32F10x_StdPeriph_Driver/src/stm32f10x_can.c ****     case (CAN_TXMAILBOX_0): 
 600:../Libraries/STM32F10x_StdPeriph_Driver/src/stm32f10x_can.c ****       state =   CANx->TSR &  (CAN_TSR_RQCP0 | CAN_TSR_TXOK0 | CAN_TSR_TME0);
 21132              		.loc 1 600 0
 21133 0020 7B68     		ldr	r3, [r7, #4]
 21134 0022 9A68     		ldr	r2, [r3, #8]
 21135 0024 2C4B     		ldr	r3, .L73
 21136 0026 02EA0303 		and	r3, r2, r3
 21137 002a FB60     		str	r3, [r7, #12]
 601:../Libraries/STM32F10x_StdPeriph_Driver/src/stm32f10x_can.c ****       break;
 21138              		.loc 1 601 0
 21139 002c 11E0     		b	.L61
 21140              	.L59:
 602:../Libraries/STM32F10x_StdPeriph_Driver/src/stm32f10x_can.c ****     case (CAN_TXMAILBOX_1): 
 603:../Libraries/STM32F10x_StdPeriph_Driver/src/stm32f10x_can.c ****       state =   CANx->TSR &  (CAN_TSR_RQCP1 | CAN_TSR_TXOK1 | CAN_TSR_TME1);
 21141              		.loc 1 603 0
 21142 002e 7B68     		ldr	r3, [r7, #4]
 21143 0030 9A68     		ldr	r2, [r3, #8]
 21144 0032 2A4B     		ldr	r3, .L73+4
 21145 0034 02EA0303 		and	r3, r2, r3
 21146 0038 FB60     		str	r3, [r7, #12]
 604:../Libraries/STM32F10x_StdPeriph_Driver/src/stm32f10x_can.c ****       break;
 21147              		.loc 1 604 0
 21148 003a 0AE0     		b	.L61
 21149              	.L60:
 605:../Libraries/STM32F10x_StdPeriph_Driver/src/stm32f10x_can.c ****     case (CAN_TXMAILBOX_2): 
 606:../Libraries/STM32F10x_StdPeriph_Driver/src/stm32f10x_can.c ****       state =   CANx->TSR &  (CAN_TSR_RQCP2 | CAN_TSR_TXOK2 | CAN_TSR_TME2);
 21150              		.loc 1 606 0
 21151 003c 7B68     		ldr	r3, [r7, #4]
 21152 003e 9A68     		ldr	r2, [r3, #8]
 21153 0040 274B     		ldr	r3, .L73+8
 21154 0042 02EA0303 		and	r3, r2, r3
 21155 0046 FB60     		str	r3, [r7, #12]
 607:../Libraries/STM32F10x_StdPeriph_Driver/src/stm32f10x_can.c ****       break;
 21156              		.loc 1 607 0
 21157 0048 03E0     		b	.L61
 21158              	.L72:
 608:../Libraries/STM32F10x_StdPeriph_Driver/src/stm32f10x_can.c ****     default:
 609:../Libraries/STM32F10x_StdPeriph_Driver/src/stm32f10x_can.c ****       state = CAN_TxStatus_Failed;
 21159              		.loc 1 609 0
 21160 004a 4FF00003 		mov	r3, #0
 21161 004e FB60     		str	r3, [r7, #12]
 610:../Libraries/STM32F10x_StdPeriph_Driver/src/stm32f10x_can.c ****       break;
 21162              		.loc 1 610 0
 21163 0050 00BF     		nop
 21164              	.L61:
 611:../Libraries/STM32F10x_StdPeriph_Driver/src/stm32f10x_can.c ****   }
 612:../Libraries/STM32F10x_StdPeriph_Driver/src/stm32f10x_can.c ****   switch (state)
 21165              		.loc 1 612 0
 21166 0052 FB68     		ldr	r3, [r7, #12]
 21167 0054 234A     		ldr	r2, .L73+12
 21168 0056 9342     		cmp	r3, r2
 21169 0058 1DD0     		beq	.L66
 21170 005a 224A     		ldr	r2, .L73+12
 21171 005c 9342     		cmp	r3, r2
 21172 005e 08D8     		bhi	.L70
 21173 0060 214A     		ldr	r2, .L73+16
 21174 0062 9342     		cmp	r3, r2
 21175 0064 13D0     		beq	.L64
 21176 0066 1C4A     		ldr	r2, .L73
 21177 0068 9342     		cmp	r3, r2
 21178 006a 1CD0     		beq	.L65
 21179 006c 002B     		cmp	r3, #0
 21180 006e 0AD0     		beq	.L63
 21181 0070 25E0     		b	.L62
 21182              	.L70:
 21183 0072 1E4A     		ldr	r2, .L73+20
 21184 0074 9342     		cmp	r3, r2
 21185 0076 12D0     		beq	.L68
 21186 0078 194A     		ldr	r2, .L73+8
 21187 007a 9342     		cmp	r3, r2
 21188 007c 1BD0     		beq	.L69
 21189 007e 174A     		ldr	r2, .L73+4
 21190 0080 9342     		cmp	r3, r2
 21191 0082 14D0     		beq	.L67
 21192 0084 1BE0     		b	.L62
 21193              	.L63:
 613:../Libraries/STM32F10x_StdPeriph_Driver/src/stm32f10x_can.c ****   {
 614:../Libraries/STM32F10x_StdPeriph_Driver/src/stm32f10x_can.c ****       /* transmit pending  */
 615:../Libraries/STM32F10x_StdPeriph_Driver/src/stm32f10x_can.c ****     case (0x0): state = CAN_TxStatus_Pending;
 21194              		.loc 1 615 0
 21195 0086 4FF00203 		mov	r3, #2
 21196 008a FB60     		str	r3, [r7, #12]
 616:../Libraries/STM32F10x_StdPeriph_Driver/src/stm32f10x_can.c ****       break;
 21197              		.loc 1 616 0
 21198 008c 1BE0     		b	.L71
 21199              	.L64:
 617:../Libraries/STM32F10x_StdPeriph_Driver/src/stm32f10x_can.c ****       /* transmit failed  */
 618:../Libraries/STM32F10x_StdPeriph_Driver/src/stm32f10x_can.c ****      case (CAN_TSR_RQCP0 | CAN_TSR_TME0): state = CAN_TxStatus_Failed;
 21200              		.loc 1 618 0
 21201 008e 4FF00003 		mov	r3, #0
 21202 0092 FB60     		str	r3, [r7, #12]
 619:../Libraries/STM32F10x_StdPeriph_Driver/src/stm32f10x_can.c ****       break;
 21203              		.loc 1 619 0
 21204 0094 17E0     		b	.L71
 21205              	.L66:
 620:../Libraries/STM32F10x_StdPeriph_Driver/src/stm32f10x_can.c ****      case (CAN_TSR_RQCP1 | CAN_TSR_TME1): state = CAN_TxStatus_Failed;
 21206              		.loc 1 620 0
 21207 0096 4FF00003 		mov	r3, #0
 21208 009a FB60     		str	r3, [r7, #12]
 621:../Libraries/STM32F10x_StdPeriph_Driver/src/stm32f10x_can.c ****       break;
 21209              		.loc 1 621 0
 21210 009c 13E0     		b	.L71
 21211              	.L68:
 622:../Libraries/STM32F10x_StdPeriph_Driver/src/stm32f10x_can.c ****      case (CAN_TSR_RQCP2 | CAN_TSR_TME2): state = CAN_TxStatus_Failed;
 21212              		.loc 1 622 0
 21213 009e 4FF00003 		mov	r3, #0
 21214 00a2 FB60     		str	r3, [r7, #12]
 623:../Libraries/STM32F10x_StdPeriph_Driver/src/stm32f10x_can.c ****       break;
 21215              		.loc 1 623 0
 21216 00a4 0FE0     		b	.L71
 21217              	.L65:
 624:../Libraries/STM32F10x_StdPeriph_Driver/src/stm32f10x_can.c ****       /* transmit succeeded  */
 625:../Libraries/STM32F10x_StdPeriph_Driver/src/stm32f10x_can.c ****     case (CAN_TSR_RQCP0 | CAN_TSR_TXOK0 | CAN_TSR_TME0):state = CAN_TxStatus_Ok;
 21218              		.loc 1 625 0
 21219 00a6 4FF00103 		mov	r3, #1
 21220 00aa FB60     		str	r3, [r7, #12]
 626:../Libraries/STM32F10x_StdPeriph_Driver/src/stm32f10x_can.c ****       break;
 21221              		.loc 1 626 0
 21222 00ac 0BE0     		b	.L71
 21223              	.L67:
 627:../Libraries/STM32F10x_StdPeriph_Driver/src/stm32f10x_can.c ****     case (CAN_TSR_RQCP1 | CAN_TSR_TXOK1 | CAN_TSR_TME1):state = CAN_TxStatus_Ok;
 21224              		.loc 1 627 0
 21225 00ae 4FF00103 		mov	r3, #1
 21226 00b2 FB60     		str	r3, [r7, #12]
 628:../Libraries/STM32F10x_StdPeriph_Driver/src/stm32f10x_can.c ****       break;
 21227              		.loc 1 628 0
 21228 00b4 07E0     		b	.L71
 21229              	.L69:
 629:../Libraries/STM32F10x_StdPeriph_Driver/src/stm32f10x_can.c ****     case (CAN_TSR_RQCP2 | CAN_TSR_TXOK2 | CAN_TSR_TME2):state = CAN_TxStatus_Ok;
 21230              		.loc 1 629 0
 21231 00b6 4FF00103 		mov	r3, #1
 21232 00ba FB60     		str	r3, [r7, #12]
 630:../Libraries/STM32F10x_StdPeriph_Driver/src/stm32f10x_can.c ****       break;
 21233              		.loc 1 630 0
 21234 00bc 03E0     		b	.L71
 21235              	.L62:
 631:../Libraries/STM32F10x_StdPeriph_Driver/src/stm32f10x_can.c ****     default: state = CAN_TxStatus_Failed;
 21236              		.loc 1 631 0
 21237 00be 4FF00003 		mov	r3, #0
 21238 00c2 FB60     		str	r3, [r7, #12]
 632:../Libraries/STM32F10x_StdPeriph_Driver/src/stm32f10x_can.c ****       break;
 21239              		.loc 1 632 0
 21240 00c4 00BF     		nop
 21241              	.L71:
 633:../Libraries/STM32F10x_StdPeriph_Driver/src/stm32f10x_can.c ****   }
 634:../Libraries/STM32F10x_StdPeriph_Driver/src/stm32f10x_can.c ****   return (uint8_t) state;
 21242              		.loc 1 634 0
 21243 00c6 FB68     		ldr	r3, [r7, #12]
 21244 00c8 DBB2     		uxtb	r3, r3
 635:../Libraries/STM32F10x_StdPeriph_Driver/src/stm32f10x_can.c **** }
 21245              		.loc 1 635 0
 21246 00ca 1846     		mov	r0, r3
 21247 00cc 07F11407 		add	r7, r7, #20
 21248 00d0 BD46     		mov	sp, r7
 21249 00d2 80BC     		pop	{r7}
 21250 00d4 7047     		bx	lr
 21251              	.L74:
 21252 00d6 00BF     		.align	2
 21253              	.L73:
 21254 00d8 03000004 		.word	67108867
 21255 00dc 00030008 		.word	134218496
 21256 00e0 00000310 		.word	268632064
 21257 00e4 00010008 		.word	134217984
 21258 00e8 01000004 		.word	67108865
 21259 00ec 00000110 		.word	268500992
 21260              		.cfi_endproc
 21261              	.LFE37:
 21263              		.section	.text.CAN_CancelTransmit,"ax",%progbits
 21264              		.align	2
 21265              		.global	CAN_CancelTransmit
 21266              		.thumb
 21267              		.thumb_func
 21269              	CAN_CancelTransmit:
 21270              	.LFB38:
 636:../Libraries/STM32F10x_StdPeriph_Driver/src/stm32f10x_can.c **** 
 637:../Libraries/STM32F10x_StdPeriph_Driver/src/stm32f10x_can.c **** /**
 638:../Libraries/STM32F10x_StdPeriph_Driver/src/stm32f10x_can.c ****   * @brief  Cancels a transmit request.
 639:../Libraries/STM32F10x_StdPeriph_Driver/src/stm32f10x_can.c ****   * @param  CANx:     where x can be 1 or 2 to to select the CAN peripheral. 
 640:../Libraries/STM32F10x_StdPeriph_Driver/src/stm32f10x_can.c ****   * @param  Mailbox:  Mailbox number.
 641:../Libraries/STM32F10x_StdPeriph_Driver/src/stm32f10x_can.c ****   * @retval None.
 642:../Libraries/STM32F10x_StdPeriph_Driver/src/stm32f10x_can.c ****   */
 643:../Libraries/STM32F10x_StdPeriph_Driver/src/stm32f10x_can.c **** void CAN_CancelTransmit(CAN_TypeDef* CANx, uint8_t Mailbox)
 644:../Libraries/STM32F10x_StdPeriph_Driver/src/stm32f10x_can.c **** {
 21271              		.loc 1 644 0
 21272              		.cfi_startproc
 21273              		@ args = 0, pretend = 0, frame = 8
 21274              		@ frame_needed = 1, uses_anonymous_args = 0
 21275              		@ link register save eliminated.
 21276 0000 80B4     		push	{r7}
 21277              	.LCFI27:
 21278              		.cfi_def_cfa_offset 4
 21279 0002 83B0     		sub	sp, sp, #12
 21280              	.LCFI28:
 21281              		.cfi_def_cfa_offset 16
 21282 0004 00AF     		add	r7, sp, #0
 21283              		.cfi_offset 7, -4
 21284              	.LCFI29:
 21285              		.cfi_def_cfa_register 7
 21286 0006 7860     		str	r0, [r7, #4]
 21287 0008 0B46     		mov	r3, r1
 21288 000a FB70     		strb	r3, [r7, #3]
 645:../Libraries/STM32F10x_StdPeriph_Driver/src/stm32f10x_can.c ****   /* Check the parameters */
 646:../Libraries/STM32F10x_StdPeriph_Driver/src/stm32f10x_can.c ****   assert_param(IS_CAN_ALL_PERIPH(CANx));
 647:../Libraries/STM32F10x_StdPeriph_Driver/src/stm32f10x_can.c ****   assert_param(IS_CAN_TRANSMITMAILBOX(Mailbox));
 648:../Libraries/STM32F10x_StdPeriph_Driver/src/stm32f10x_can.c ****   /* abort transmission */
 649:../Libraries/STM32F10x_StdPeriph_Driver/src/stm32f10x_can.c ****   switch (Mailbox)
 21289              		.loc 1 649 0
 21290 000c FB78     		ldrb	r3, [r7, #3]	@ zero_extendqisi2
 21291 000e 012B     		cmp	r3, #1
 21292 0010 0AD0     		beq	.L78
 21293 0012 022B     		cmp	r3, #2
 21294 0014 0FD0     		beq	.L79
 21295 0016 002B     		cmp	r3, #0
 21296 0018 15D1     		bne	.L81
 21297              	.L77:
 650:../Libraries/STM32F10x_StdPeriph_Driver/src/stm32f10x_can.c ****   {
 651:../Libraries/STM32F10x_StdPeriph_Driver/src/stm32f10x_can.c ****     case (CAN_TXMAILBOX_0): CANx->TSR |= CAN_TSR_ABRQ0;
 21298              		.loc 1 651 0
 21299 001a 7B68     		ldr	r3, [r7, #4]
 21300 001c 9B68     		ldr	r3, [r3, #8]
 21301 001e 43F08002 		orr	r2, r3, #128
 21302 0022 7B68     		ldr	r3, [r7, #4]
 21303 0024 9A60     		str	r2, [r3, #8]
 652:../Libraries/STM32F10x_StdPeriph_Driver/src/stm32f10x_can.c ****       break;
 21304              		.loc 1 652 0
 21305 0026 0FE0     		b	.L75
 21306              	.L78:
 653:../Libraries/STM32F10x_StdPeriph_Driver/src/stm32f10x_can.c ****     case (CAN_TXMAILBOX_1): CANx->TSR |= CAN_TSR_ABRQ1;
 21307              		.loc 1 653 0
 21308 0028 7B68     		ldr	r3, [r7, #4]
 21309 002a 9B68     		ldr	r3, [r3, #8]
 21310 002c 43F40042 		orr	r2, r3, #32768
 21311 0030 7B68     		ldr	r3, [r7, #4]
 21312 0032 9A60     		str	r2, [r3, #8]
 654:../Libraries/STM32F10x_StdPeriph_Driver/src/stm32f10x_can.c ****       break;
 21313              		.loc 1 654 0
 21314 0034 08E0     		b	.L75
 21315              	.L79:
 655:../Libraries/STM32F10x_StdPeriph_Driver/src/stm32f10x_can.c ****     case (CAN_TXMAILBOX_2): CANx->TSR |= CAN_TSR_ABRQ2;
 21316              		.loc 1 655 0
 21317 0036 7B68     		ldr	r3, [r7, #4]
 21318 0038 9B68     		ldr	r3, [r3, #8]
 21319 003a 43F40002 		orr	r2, r3, #8388608
 21320 003e 7B68     		ldr	r3, [r7, #4]
 21321 0040 9A60     		str	r2, [r3, #8]
 656:../Libraries/STM32F10x_StdPeriph_Driver/src/stm32f10x_can.c ****       break;
 21322              		.loc 1 656 0
 21323 0042 00BF     		nop
 21324 0044 00E0     		b	.L75
 21325              	.L81:
 657:../Libraries/STM32F10x_StdPeriph_Driver/src/stm32f10x_can.c ****     default:
 658:../Libraries/STM32F10x_StdPeriph_Driver/src/stm32f10x_can.c ****       break;
 21326              		.loc 1 658 0
 21327 0046 00BF     		nop
 21328              	.L75:
 659:../Libraries/STM32F10x_StdPeriph_Driver/src/stm32f10x_can.c ****   }
 660:../Libraries/STM32F10x_StdPeriph_Driver/src/stm32f10x_can.c **** }
 21329              		.loc 1 660 0
 21330 0048 07F10C07 		add	r7, r7, #12
 21331 004c BD46     		mov	sp, r7
 21332 004e 80BC     		pop	{r7}
 21333 0050 7047     		bx	lr
 21334              		.cfi_endproc
 21335              	.LFE38:
 21337 0052 00BF     		.section	.text.CAN_Receive,"ax",%progbits
 21338              		.align	2
 21339              		.global	CAN_Receive
 21340              		.thumb
 21341              		.thumb_func
 21343              	CAN_Receive:
 21344              	.LFB39:
 661:../Libraries/STM32F10x_StdPeriph_Driver/src/stm32f10x_can.c **** 
 662:../Libraries/STM32F10x_StdPeriph_Driver/src/stm32f10x_can.c **** 
 663:../Libraries/STM32F10x_StdPeriph_Driver/src/stm32f10x_can.c **** /**
 664:../Libraries/STM32F10x_StdPeriph_Driver/src/stm32f10x_can.c ****   * @brief  Receives a message.
 665:../Libraries/STM32F10x_StdPeriph_Driver/src/stm32f10x_can.c ****   * @param  CANx:       where x can be 1 or 2 to to select the CAN peripheral.
 666:../Libraries/STM32F10x_StdPeriph_Driver/src/stm32f10x_can.c ****   * @param  FIFONumber: Receive FIFO number, CAN_FIFO0 or CAN_FIFO1.
 667:../Libraries/STM32F10x_StdPeriph_Driver/src/stm32f10x_can.c ****   * @param  RxMessage:  pointer to a structure receive message which contains 
 668:../Libraries/STM32F10x_StdPeriph_Driver/src/stm32f10x_can.c ****   *                     CAN Id, CAN DLC, CAN datas and FMI number.
 669:../Libraries/STM32F10x_StdPeriph_Driver/src/stm32f10x_can.c ****   * @retval None.
 670:../Libraries/STM32F10x_StdPeriph_Driver/src/stm32f10x_can.c ****   */
 671:../Libraries/STM32F10x_StdPeriph_Driver/src/stm32f10x_can.c **** void CAN_Receive(CAN_TypeDef* CANx, uint8_t FIFONumber, CanRxMsg* RxMessage)
 672:../Libraries/STM32F10x_StdPeriph_Driver/src/stm32f10x_can.c **** {
 21345              		.loc 1 672 0
 21346              		.cfi_startproc
 21347              		@ args = 0, pretend = 0, frame = 16
 21348              		@ frame_needed = 1, uses_anonymous_args = 0
 21349              		@ link register save eliminated.
 21350 0000 80B4     		push	{r7}
 21351              	.LCFI30:
 21352              		.cfi_def_cfa_offset 4
 21353 0002 85B0     		sub	sp, sp, #20
 21354              	.LCFI31:
 21355              		.cfi_def_cfa_offset 24
 21356 0004 00AF     		add	r7, sp, #0
 21357              		.cfi_offset 7, -4
 21358              	.LCFI32:
 21359              		.cfi_def_cfa_register 7
 21360 0006 F860     		str	r0, [r7, #12]
 21361 0008 0B46     		mov	r3, r1
 21362 000a 7A60     		str	r2, [r7, #4]
 21363 000c FB72     		strb	r3, [r7, #11]
 673:../Libraries/STM32F10x_StdPeriph_Driver/src/stm32f10x_can.c ****   /* Check the parameters */
 674:../Libraries/STM32F10x_StdPeriph_Driver/src/stm32f10x_can.c ****   assert_param(IS_CAN_ALL_PERIPH(CANx));
 675:../Libraries/STM32F10x_StdPeriph_Driver/src/stm32f10x_can.c ****   assert_param(IS_CAN_FIFO(FIFONumber));
 676:../Libraries/STM32F10x_StdPeriph_Driver/src/stm32f10x_can.c ****   /* Get the Id */
 677:../Libraries/STM32F10x_StdPeriph_Driver/src/stm32f10x_can.c ****   RxMessage->IDE = (uint8_t)0x04 & CANx->sFIFOMailBox[FIFONumber].RIR;
 21364              		.loc 1 677 0
 21365 000e FB7A     		ldrb	r3, [r7, #11]	@ zero_extendqisi2
 21366 0010 FA68     		ldr	r2, [r7, #12]
 21367 0012 03F11B03 		add	r3, r3, #27
 21368 0016 4FEA0313 		lsl	r3, r3, #4
 21369 001a D318     		adds	r3, r2, r3
 21370 001c 1B68     		ldr	r3, [r3, #0]
 21371 001e DBB2     		uxtb	r3, r3
 21372 0020 03F00403 		and	r3, r3, #4
 21373 0024 DAB2     		uxtb	r2, r3
 21374 0026 7B68     		ldr	r3, [r7, #4]
 21375 0028 1A72     		strb	r2, [r3, #8]
 678:../Libraries/STM32F10x_StdPeriph_Driver/src/stm32f10x_can.c ****   if (RxMessage->IDE == CAN_Id_Standard)
 21376              		.loc 1 678 0
 21377 002a 7B68     		ldr	r3, [r7, #4]
 21378 002c 1B7A     		ldrb	r3, [r3, #8]	@ zero_extendqisi2
 21379 002e 002B     		cmp	r3, #0
 21380 0030 0CD1     		bne	.L83
 679:../Libraries/STM32F10x_StdPeriph_Driver/src/stm32f10x_can.c ****   {
 680:../Libraries/STM32F10x_StdPeriph_Driver/src/stm32f10x_can.c ****     RxMessage->StdId = (uint32_t)0x000007FF & (CANx->sFIFOMailBox[FIFONumber].RIR >> 21);
 21381              		.loc 1 680 0
 21382 0032 FB7A     		ldrb	r3, [r7, #11]	@ zero_extendqisi2
 21383 0034 FA68     		ldr	r2, [r7, #12]
 21384 0036 03F11B03 		add	r3, r3, #27
 21385 003a 4FEA0313 		lsl	r3, r3, #4
 21386 003e D318     		adds	r3, r2, r3
 21387 0040 1B68     		ldr	r3, [r3, #0]
 21388 0042 4FEA5352 		lsr	r2, r3, #21
 21389 0046 7B68     		ldr	r3, [r7, #4]
 21390 0048 1A60     		str	r2, [r3, #0]
 21391 004a 0BE0     		b	.L84
 21392              	.L83:
 681:../Libraries/STM32F10x_StdPeriph_Driver/src/stm32f10x_can.c ****   }
 682:../Libraries/STM32F10x_StdPeriph_Driver/src/stm32f10x_can.c ****   else
 683:../Libraries/STM32F10x_StdPeriph_Driver/src/stm32f10x_can.c ****   {
 684:../Libraries/STM32F10x_StdPeriph_Driver/src/stm32f10x_can.c ****     RxMessage->ExtId = (uint32_t)0x1FFFFFFF & (CANx->sFIFOMailBox[FIFONumber].RIR >> 3);
 21393              		.loc 1 684 0
 21394 004c FB7A     		ldrb	r3, [r7, #11]	@ zero_extendqisi2
 21395 004e FA68     		ldr	r2, [r7, #12]
 21396 0050 03F11B03 		add	r3, r3, #27
 21397 0054 4FEA0313 		lsl	r3, r3, #4
 21398 0058 D318     		adds	r3, r2, r3
 21399 005a 1B68     		ldr	r3, [r3, #0]
 21400 005c 4FEAD302 		lsr	r2, r3, #3
 21401 0060 7B68     		ldr	r3, [r7, #4]
 21402 0062 5A60     		str	r2, [r3, #4]
 21403              	.L84:
 685:../Libraries/STM32F10x_StdPeriph_Driver/src/stm32f10x_can.c ****   }
 686:../Libraries/STM32F10x_StdPeriph_Driver/src/stm32f10x_can.c ****   
 687:../Libraries/STM32F10x_StdPeriph_Driver/src/stm32f10x_can.c ****   RxMessage->RTR = (uint8_t)0x02 & CANx->sFIFOMailBox[FIFONumber].RIR;
 21404              		.loc 1 687 0
 21405 0064 FB7A     		ldrb	r3, [r7, #11]	@ zero_extendqisi2
 21406 0066 FA68     		ldr	r2, [r7, #12]
 21407 0068 03F11B03 		add	r3, r3, #27
 21408 006c 4FEA0313 		lsl	r3, r3, #4
 21409 0070 D318     		adds	r3, r2, r3
 21410 0072 1B68     		ldr	r3, [r3, #0]
 21411 0074 DBB2     		uxtb	r3, r3
 21412 0076 03F00203 		and	r3, r3, #2
 21413 007a DAB2     		uxtb	r2, r3
 21414 007c 7B68     		ldr	r3, [r7, #4]
 21415 007e 5A72     		strb	r2, [r3, #9]
 688:../Libraries/STM32F10x_StdPeriph_Driver/src/stm32f10x_can.c ****   /* Get the DLC */
 689:../Libraries/STM32F10x_StdPeriph_Driver/src/stm32f10x_can.c ****   RxMessage->DLC = (uint8_t)0x0F & CANx->sFIFOMailBox[FIFONumber].RDTR;
 21416              		.loc 1 689 0
 21417 0080 FB7A     		ldrb	r3, [r7, #11]	@ zero_extendqisi2
 21418 0082 FA68     		ldr	r2, [r7, #12]
 21419 0084 03F11B03 		add	r3, r3, #27
 21420 0088 4FEA0313 		lsl	r3, r3, #4
 21421 008c D318     		adds	r3, r2, r3
 21422 008e 5B68     		ldr	r3, [r3, #4]
 21423 0090 DBB2     		uxtb	r3, r3
 21424 0092 03F00F03 		and	r3, r3, #15
 21425 0096 DAB2     		uxtb	r2, r3
 21426 0098 7B68     		ldr	r3, [r7, #4]
 21427 009a 9A72     		strb	r2, [r3, #10]
 690:../Libraries/STM32F10x_StdPeriph_Driver/src/stm32f10x_can.c ****   /* Get the FMI */
 691:../Libraries/STM32F10x_StdPeriph_Driver/src/stm32f10x_can.c ****   RxMessage->FMI = (uint8_t)0xFF & (CANx->sFIFOMailBox[FIFONumber].RDTR >> 8);
 21428              		.loc 1 691 0
 21429 009c FB7A     		ldrb	r3, [r7, #11]	@ zero_extendqisi2
 21430 009e FA68     		ldr	r2, [r7, #12]
 21431 00a0 03F11B03 		add	r3, r3, #27
 21432 00a4 4FEA0313 		lsl	r3, r3, #4
 21433 00a8 D318     		adds	r3, r2, r3
 21434 00aa 5B68     		ldr	r3, [r3, #4]
 21435 00ac 4FEA1323 		lsr	r3, r3, #8
 21436 00b0 DAB2     		uxtb	r2, r3
 21437 00b2 7B68     		ldr	r3, [r7, #4]
 21438 00b4 DA74     		strb	r2, [r3, #19]
 692:../Libraries/STM32F10x_StdPeriph_Driver/src/stm32f10x_can.c ****   /* Get the data field */
 693:../Libraries/STM32F10x_StdPeriph_Driver/src/stm32f10x_can.c ****   RxMessage->Data[0] = (uint8_t)0xFF & CANx->sFIFOMailBox[FIFONumber].RDLR;
 21439              		.loc 1 693 0
 21440 00b6 FB7A     		ldrb	r3, [r7, #11]	@ zero_extendqisi2
 21441 00b8 FA68     		ldr	r2, [r7, #12]
 21442 00ba 4FEA0313 		lsl	r3, r3, #4
 21443 00be D318     		adds	r3, r2, r3
 21444 00c0 03F5DC73 		add	r3, r3, #440
 21445 00c4 1B68     		ldr	r3, [r3, #0]
 21446 00c6 DAB2     		uxtb	r2, r3
 21447 00c8 7B68     		ldr	r3, [r7, #4]
 21448 00ca DA72     		strb	r2, [r3, #11]
 694:../Libraries/STM32F10x_StdPeriph_Driver/src/stm32f10x_can.c ****   RxMessage->Data[1] = (uint8_t)0xFF & (CANx->sFIFOMailBox[FIFONumber].RDLR >> 8);
 21449              		.loc 1 694 0
 21450 00cc FB7A     		ldrb	r3, [r7, #11]	@ zero_extendqisi2
 21451 00ce FA68     		ldr	r2, [r7, #12]
 21452 00d0 4FEA0313 		lsl	r3, r3, #4
 21453 00d4 D318     		adds	r3, r2, r3
 21454 00d6 03F5DC73 		add	r3, r3, #440
 21455 00da 1B68     		ldr	r3, [r3, #0]
 21456 00dc 4FEA1323 		lsr	r3, r3, #8
 21457 00e0 DAB2     		uxtb	r2, r3
 21458 00e2 7B68     		ldr	r3, [r7, #4]
 21459 00e4 1A73     		strb	r2, [r3, #12]
 695:../Libraries/STM32F10x_StdPeriph_Driver/src/stm32f10x_can.c ****   RxMessage->Data[2] = (uint8_t)0xFF & (CANx->sFIFOMailBox[FIFONumber].RDLR >> 16);
 21460              		.loc 1 695 0
 21461 00e6 FB7A     		ldrb	r3, [r7, #11]	@ zero_extendqisi2
 21462 00e8 FA68     		ldr	r2, [r7, #12]
 21463 00ea 4FEA0313 		lsl	r3, r3, #4
 21464 00ee D318     		adds	r3, r2, r3
 21465 00f0 03F5DC73 		add	r3, r3, #440
 21466 00f4 1B68     		ldr	r3, [r3, #0]
 21467 00f6 4FEA1343 		lsr	r3, r3, #16
 21468 00fa DAB2     		uxtb	r2, r3
 21469 00fc 7B68     		ldr	r3, [r7, #4]
 21470 00fe 5A73     		strb	r2, [r3, #13]
 696:../Libraries/STM32F10x_StdPeriph_Driver/src/stm32f10x_can.c ****   RxMessage->Data[3] = (uint8_t)0xFF & (CANx->sFIFOMailBox[FIFONumber].RDLR >> 24);
 21471              		.loc 1 696 0
 21472 0100 FB7A     		ldrb	r3, [r7, #11]	@ zero_extendqisi2
 21473 0102 FA68     		ldr	r2, [r7, #12]
 21474 0104 4FEA0313 		lsl	r3, r3, #4
 21475 0108 D318     		adds	r3, r2, r3
 21476 010a 03F5DC73 		add	r3, r3, #440
 21477 010e 1B68     		ldr	r3, [r3, #0]
 21478 0110 4FEA1363 		lsr	r3, r3, #24
 21479 0114 DAB2     		uxtb	r2, r3
 21480 0116 7B68     		ldr	r3, [r7, #4]
 21481 0118 9A73     		strb	r2, [r3, #14]
 697:../Libraries/STM32F10x_StdPeriph_Driver/src/stm32f10x_can.c ****   RxMessage->Data[4] = (uint8_t)0xFF & CANx->sFIFOMailBox[FIFONumber].RDHR;
 21482              		.loc 1 697 0
 21483 011a FB7A     		ldrb	r3, [r7, #11]	@ zero_extendqisi2
 21484 011c FA68     		ldr	r2, [r7, #12]
 21485 011e 4FEA0313 		lsl	r3, r3, #4
 21486 0122 D318     		adds	r3, r2, r3
 21487 0124 03F5DC73 		add	r3, r3, #440
 21488 0128 5B68     		ldr	r3, [r3, #4]
 21489 012a DAB2     		uxtb	r2, r3
 21490 012c 7B68     		ldr	r3, [r7, #4]
 21491 012e DA73     		strb	r2, [r3, #15]
 698:../Libraries/STM32F10x_StdPeriph_Driver/src/stm32f10x_can.c ****   RxMessage->Data[5] = (uint8_t)0xFF & (CANx->sFIFOMailBox[FIFONumber].RDHR >> 8);
 21492              		.loc 1 698 0
 21493 0130 FB7A     		ldrb	r3, [r7, #11]	@ zero_extendqisi2
 21494 0132 FA68     		ldr	r2, [r7, #12]
 21495 0134 4FEA0313 		lsl	r3, r3, #4
 21496 0138 D318     		adds	r3, r2, r3
 21497 013a 03F5DC73 		add	r3, r3, #440
 21498 013e 5B68     		ldr	r3, [r3, #4]
 21499 0140 4FEA1323 		lsr	r3, r3, #8
 21500 0144 DAB2     		uxtb	r2, r3
 21501 0146 7B68     		ldr	r3, [r7, #4]
 21502 0148 1A74     		strb	r2, [r3, #16]
 699:../Libraries/STM32F10x_StdPeriph_Driver/src/stm32f10x_can.c ****   RxMessage->Data[6] = (uint8_t)0xFF & (CANx->sFIFOMailBox[FIFONumber].RDHR >> 16);
 21503              		.loc 1 699 0
 21504 014a FB7A     		ldrb	r3, [r7, #11]	@ zero_extendqisi2
 21505 014c FA68     		ldr	r2, [r7, #12]
 21506 014e 4FEA0313 		lsl	r3, r3, #4
 21507 0152 D318     		adds	r3, r2, r3
 21508 0154 03F5DC73 		add	r3, r3, #440
 21509 0158 5B68     		ldr	r3, [r3, #4]
 21510 015a 4FEA1343 		lsr	r3, r3, #16
 21511 015e DAB2     		uxtb	r2, r3
 21512 0160 7B68     		ldr	r3, [r7, #4]
 21513 0162 5A74     		strb	r2, [r3, #17]
 700:../Libraries/STM32F10x_StdPeriph_Driver/src/stm32f10x_can.c ****   RxMessage->Data[7] = (uint8_t)0xFF & (CANx->sFIFOMailBox[FIFONumber].RDHR >> 24);
 21514              		.loc 1 700 0
 21515 0164 FB7A     		ldrb	r3, [r7, #11]	@ zero_extendqisi2
 21516 0166 FA68     		ldr	r2, [r7, #12]
 21517 0168 4FEA0313 		lsl	r3, r3, #4
 21518 016c D318     		adds	r3, r2, r3
 21519 016e 03F5DC73 		add	r3, r3, #440
 21520 0172 5B68     		ldr	r3, [r3, #4]
 21521 0174 4FEA1363 		lsr	r3, r3, #24
 21522 0178 DAB2     		uxtb	r2, r3
 21523 017a 7B68     		ldr	r3, [r7, #4]
 21524 017c 9A74     		strb	r2, [r3, #18]
 701:../Libraries/STM32F10x_StdPeriph_Driver/src/stm32f10x_can.c ****   /* Release the FIFO */
 702:../Libraries/STM32F10x_StdPeriph_Driver/src/stm32f10x_can.c ****   /* Release FIFO0 */
 703:../Libraries/STM32F10x_StdPeriph_Driver/src/stm32f10x_can.c ****   if (FIFONumber == CAN_FIFO0)
 21525              		.loc 1 703 0
 21526 017e FB7A     		ldrb	r3, [r7, #11]	@ zero_extendqisi2
 21527 0180 002B     		cmp	r3, #0
 21528 0182 06D1     		bne	.L85
 704:../Libraries/STM32F10x_StdPeriph_Driver/src/stm32f10x_can.c ****   {
 705:../Libraries/STM32F10x_StdPeriph_Driver/src/stm32f10x_can.c ****     CANx->RF0R |= CAN_RF0R_RFOM0;
 21529              		.loc 1 705 0
 21530 0184 FB68     		ldr	r3, [r7, #12]
 21531 0186 DB68     		ldr	r3, [r3, #12]
 21532 0188 43F02002 		orr	r2, r3, #32
 21533 018c FB68     		ldr	r3, [r7, #12]
 21534 018e DA60     		str	r2, [r3, #12]
 21535 0190 05E0     		b	.L82
 21536              	.L85:
 706:../Libraries/STM32F10x_StdPeriph_Driver/src/stm32f10x_can.c ****   }
 707:../Libraries/STM32F10x_StdPeriph_Driver/src/stm32f10x_can.c ****   /* Release FIFO1 */
 708:../Libraries/STM32F10x_StdPeriph_Driver/src/stm32f10x_can.c ****   else /* FIFONumber == CAN_FIFO1 */
 709:../Libraries/STM32F10x_StdPeriph_Driver/src/stm32f10x_can.c ****   {
 710:../Libraries/STM32F10x_StdPeriph_Driver/src/stm32f10x_can.c ****     CANx->RF1R |= CAN_RF1R_RFOM1;
 21537              		.loc 1 710 0
 21538 0192 FB68     		ldr	r3, [r7, #12]
 21539 0194 1B69     		ldr	r3, [r3, #16]
 21540 0196 43F02002 		orr	r2, r3, #32
 21541 019a FB68     		ldr	r3, [r7, #12]
 21542 019c 1A61     		str	r2, [r3, #16]
 21543              	.L82:
 711:../Libraries/STM32F10x_StdPeriph_Driver/src/stm32f10x_can.c ****   }
 712:../Libraries/STM32F10x_StdPeriph_Driver/src/stm32f10x_can.c **** }
 21544              		.loc 1 712 0
 21545 019e 07F11407 		add	r7, r7, #20
 21546 01a2 BD46     		mov	sp, r7
 21547 01a4 80BC     		pop	{r7}
 21548 01a6 7047     		bx	lr
 21549              		.cfi_endproc
 21550              	.LFE39:
 21552              		.section	.text.CAN_FIFORelease,"ax",%progbits
 21553              		.align	2
 21554              		.global	CAN_FIFORelease
 21555              		.thumb
 21556              		.thumb_func
 21558              	CAN_FIFORelease:
 21559              	.LFB40:
 713:../Libraries/STM32F10x_StdPeriph_Driver/src/stm32f10x_can.c **** 
 714:../Libraries/STM32F10x_StdPeriph_Driver/src/stm32f10x_can.c **** /**
 715:../Libraries/STM32F10x_StdPeriph_Driver/src/stm32f10x_can.c ****   * @brief  Releases the specified FIFO.
 716:../Libraries/STM32F10x_StdPeriph_Driver/src/stm32f10x_can.c ****   * @param  CANx:       where x can be 1 or 2 to to select the CAN peripheral. 
 717:../Libraries/STM32F10x_StdPeriph_Driver/src/stm32f10x_can.c ****   * @param  FIFONumber: FIFO to release, CAN_FIFO0 or CAN_FIFO1.
 718:../Libraries/STM32F10x_StdPeriph_Driver/src/stm32f10x_can.c ****   * @retval None.
 719:../Libraries/STM32F10x_StdPeriph_Driver/src/stm32f10x_can.c ****   */
 720:../Libraries/STM32F10x_StdPeriph_Driver/src/stm32f10x_can.c **** void CAN_FIFORelease(CAN_TypeDef* CANx, uint8_t FIFONumber)
 721:../Libraries/STM32F10x_StdPeriph_Driver/src/stm32f10x_can.c **** {
 21560              		.loc 1 721 0
 21561              		.cfi_startproc
 21562              		@ args = 0, pretend = 0, frame = 8
 21563              		@ frame_needed = 1, uses_anonymous_args = 0
 21564              		@ link register save eliminated.
 21565 0000 80B4     		push	{r7}
 21566              	.LCFI33:
 21567              		.cfi_def_cfa_offset 4
 21568 0002 83B0     		sub	sp, sp, #12
 21569              	.LCFI34:
 21570              		.cfi_def_cfa_offset 16
 21571 0004 00AF     		add	r7, sp, #0
 21572              		.cfi_offset 7, -4
 21573              	.LCFI35:
 21574              		.cfi_def_cfa_register 7
 21575 0006 7860     		str	r0, [r7, #4]
 21576 0008 0B46     		mov	r3, r1
 21577 000a FB70     		strb	r3, [r7, #3]
 722:../Libraries/STM32F10x_StdPeriph_Driver/src/stm32f10x_can.c ****   /* Check the parameters */
 723:../Libraries/STM32F10x_StdPeriph_Driver/src/stm32f10x_can.c ****   assert_param(IS_CAN_ALL_PERIPH(CANx));
 724:../Libraries/STM32F10x_StdPeriph_Driver/src/stm32f10x_can.c ****   assert_param(IS_CAN_FIFO(FIFONumber));
 725:../Libraries/STM32F10x_StdPeriph_Driver/src/stm32f10x_can.c ****   /* Release FIFO0 */
 726:../Libraries/STM32F10x_StdPeriph_Driver/src/stm32f10x_can.c ****   if (FIFONumber == CAN_FIFO0)
 21578              		.loc 1 726 0
 21579 000c FB78     		ldrb	r3, [r7, #3]	@ zero_extendqisi2
 21580 000e 002B     		cmp	r3, #0
 21581 0010 06D1     		bne	.L88
 727:../Libraries/STM32F10x_StdPeriph_Driver/src/stm32f10x_can.c ****   {
 728:../Libraries/STM32F10x_StdPeriph_Driver/src/stm32f10x_can.c ****     CANx->RF0R |= CAN_RF0R_RFOM0;
 21582              		.loc 1 728 0
 21583 0012 7B68     		ldr	r3, [r7, #4]
 21584 0014 DB68     		ldr	r3, [r3, #12]
 21585 0016 43F02002 		orr	r2, r3, #32
 21586 001a 7B68     		ldr	r3, [r7, #4]
 21587 001c DA60     		str	r2, [r3, #12]
 21588 001e 05E0     		b	.L87
 21589              	.L88:
 729:../Libraries/STM32F10x_StdPeriph_Driver/src/stm32f10x_can.c ****   }
 730:../Libraries/STM32F10x_StdPeriph_Driver/src/stm32f10x_can.c ****   /* Release FIFO1 */
 731:../Libraries/STM32F10x_StdPeriph_Driver/src/stm32f10x_can.c ****   else /* FIFONumber == CAN_FIFO1 */
 732:../Libraries/STM32F10x_StdPeriph_Driver/src/stm32f10x_can.c ****   {
 733:../Libraries/STM32F10x_StdPeriph_Driver/src/stm32f10x_can.c ****     CANx->RF1R |= CAN_RF1R_RFOM1;
 21590              		.loc 1 733 0
 21591 0020 7B68     		ldr	r3, [r7, #4]
 21592 0022 1B69     		ldr	r3, [r3, #16]
 21593 0024 43F02002 		orr	r2, r3, #32
 21594 0028 7B68     		ldr	r3, [r7, #4]
 21595 002a 1A61     		str	r2, [r3, #16]
 21596              	.L87:
 734:../Libraries/STM32F10x_StdPeriph_Driver/src/stm32f10x_can.c ****   }
 735:../Libraries/STM32F10x_StdPeriph_Driver/src/stm32f10x_can.c **** }
 21597              		.loc 1 735 0
 21598 002c 07F10C07 		add	r7, r7, #12
 21599 0030 BD46     		mov	sp, r7
 21600 0032 80BC     		pop	{r7}
 21601 0034 7047     		bx	lr
 21602              		.cfi_endproc
 21603              	.LFE40:
 21605 0036 00BF     		.section	.text.CAN_MessagePending,"ax",%progbits
 21606              		.align	2
 21607              		.global	CAN_MessagePending
 21608              		.thumb
 21609              		.thumb_func
 21611              	CAN_MessagePending:
 21612              	.LFB41:
 736:../Libraries/STM32F10x_StdPeriph_Driver/src/stm32f10x_can.c **** 
 737:../Libraries/STM32F10x_StdPeriph_Driver/src/stm32f10x_can.c **** /**
 738:../Libraries/STM32F10x_StdPeriph_Driver/src/stm32f10x_can.c ****   * @brief  Returns the number of pending messages.
 739:../Libraries/STM32F10x_StdPeriph_Driver/src/stm32f10x_can.c ****   * @param  CANx:       where x can be 1 or 2 to to select the CAN peripheral.
 740:../Libraries/STM32F10x_StdPeriph_Driver/src/stm32f10x_can.c ****   * @param  FIFONumber: Receive FIFO number, CAN_FIFO0 or CAN_FIFO1.
 741:../Libraries/STM32F10x_StdPeriph_Driver/src/stm32f10x_can.c ****   * @retval NbMessage : which is the number of pending message.
 742:../Libraries/STM32F10x_StdPeriph_Driver/src/stm32f10x_can.c ****   */
 743:../Libraries/STM32F10x_StdPeriph_Driver/src/stm32f10x_can.c **** uint8_t CAN_MessagePending(CAN_TypeDef* CANx, uint8_t FIFONumber)
 744:../Libraries/STM32F10x_StdPeriph_Driver/src/stm32f10x_can.c **** {
 21613              		.loc 1 744 0
 21614              		.cfi_startproc
 21615              		@ args = 0, pretend = 0, frame = 16
 21616              		@ frame_needed = 1, uses_anonymous_args = 0
 21617              		@ link register save eliminated.
 21618 0000 80B4     		push	{r7}
 21619              	.LCFI36:
 21620              		.cfi_def_cfa_offset 4
 21621 0002 85B0     		sub	sp, sp, #20
 21622              	.LCFI37:
 21623              		.cfi_def_cfa_offset 24
 21624 0004 00AF     		add	r7, sp, #0
 21625              		.cfi_offset 7, -4
 21626              	.LCFI38:
 21627              		.cfi_def_cfa_register 7
 21628 0006 7860     		str	r0, [r7, #4]
 21629 0008 0B46     		mov	r3, r1
 21630 000a FB70     		strb	r3, [r7, #3]
 745:../Libraries/STM32F10x_StdPeriph_Driver/src/stm32f10x_can.c ****   uint8_t message_pending=0;
 21631              		.loc 1 745 0
 21632 000c 4FF00003 		mov	r3, #0
 21633 0010 FB73     		strb	r3, [r7, #15]
 746:../Libraries/STM32F10x_StdPeriph_Driver/src/stm32f10x_can.c ****   /* Check the parameters */
 747:../Libraries/STM32F10x_StdPeriph_Driver/src/stm32f10x_can.c ****   assert_param(IS_CAN_ALL_PERIPH(CANx));
 748:../Libraries/STM32F10x_StdPeriph_Driver/src/stm32f10x_can.c ****   assert_param(IS_CAN_FIFO(FIFONumber));
 749:../Libraries/STM32F10x_StdPeriph_Driver/src/stm32f10x_can.c ****   if (FIFONumber == CAN_FIFO0)
 21634              		.loc 1 749 0
 21635 0012 FB78     		ldrb	r3, [r7, #3]	@ zero_extendqisi2
 21636 0014 002B     		cmp	r3, #0
 21637 0016 06D1     		bne	.L91
 750:../Libraries/STM32F10x_StdPeriph_Driver/src/stm32f10x_can.c ****   {
 751:../Libraries/STM32F10x_StdPeriph_Driver/src/stm32f10x_can.c ****     message_pending = (uint8_t)(CANx->RF0R&(uint32_t)0x03);
 21638              		.loc 1 751 0
 21639 0018 7B68     		ldr	r3, [r7, #4]
 21640 001a DB68     		ldr	r3, [r3, #12]
 21641 001c DBB2     		uxtb	r3, r3
 21642 001e 03F00303 		and	r3, r3, #3
 21643 0022 FB73     		strb	r3, [r7, #15]
 21644 0024 0CE0     		b	.L92
 21645              	.L91:
 752:../Libraries/STM32F10x_StdPeriph_Driver/src/stm32f10x_can.c ****   }
 753:../Libraries/STM32F10x_StdPeriph_Driver/src/stm32f10x_can.c ****   else if (FIFONumber == CAN_FIFO1)
 21646              		.loc 1 753 0
 21647 0026 FB78     		ldrb	r3, [r7, #3]	@ zero_extendqisi2
 21648 0028 012B     		cmp	r3, #1
 21649 002a 06D1     		bne	.L93
 754:../Libraries/STM32F10x_StdPeriph_Driver/src/stm32f10x_can.c ****   {
 755:../Libraries/STM32F10x_StdPeriph_Driver/src/stm32f10x_can.c ****     message_pending = (uint8_t)(CANx->RF1R&(uint32_t)0x03);
 21650              		.loc 1 755 0
 21651 002c 7B68     		ldr	r3, [r7, #4]
 21652 002e 1B69     		ldr	r3, [r3, #16]
 21653 0030 DBB2     		uxtb	r3, r3
 21654 0032 03F00303 		and	r3, r3, #3
 21655 0036 FB73     		strb	r3, [r7, #15]
 21656 0038 02E0     		b	.L92
 21657              	.L93:
 756:../Libraries/STM32F10x_StdPeriph_Driver/src/stm32f10x_can.c ****   }
 757:../Libraries/STM32F10x_StdPeriph_Driver/src/stm32f10x_can.c ****   else
 758:../Libraries/STM32F10x_StdPeriph_Driver/src/stm32f10x_can.c ****   {
 759:../Libraries/STM32F10x_StdPeriph_Driver/src/stm32f10x_can.c ****     message_pending = 0;
 21658              		.loc 1 759 0
 21659 003a 4FF00003 		mov	r3, #0
 21660 003e FB73     		strb	r3, [r7, #15]
 21661              	.L92:
 760:../Libraries/STM32F10x_StdPeriph_Driver/src/stm32f10x_can.c ****   }
 761:../Libraries/STM32F10x_StdPeriph_Driver/src/stm32f10x_can.c ****   return message_pending;
 21662              		.loc 1 761 0
 21663 0040 FB7B     		ldrb	r3, [r7, #15]	@ zero_extendqisi2
 762:../Libraries/STM32F10x_StdPeriph_Driver/src/stm32f10x_can.c **** }
 21664              		.loc 1 762 0
 21665 0042 1846     		mov	r0, r3
 21666 0044 07F11407 		add	r7, r7, #20
 21667 0048 BD46     		mov	sp, r7
 21668 004a 80BC     		pop	{r7}
 21669 004c 7047     		bx	lr
 21670              		.cfi_endproc
 21671              	.LFE41:
 21673 004e 00BF     		.section	.text.CAN_OperatingModeRequest,"ax",%progbits
 21674              		.align	2
 21675              		.global	CAN_OperatingModeRequest
 21676              		.thumb
 21677              		.thumb_func
 21679              	CAN_OperatingModeRequest:
 21680              	.LFB42:
 763:../Libraries/STM32F10x_StdPeriph_Driver/src/stm32f10x_can.c **** 
 764:../Libraries/STM32F10x_StdPeriph_Driver/src/stm32f10x_can.c **** 
 765:../Libraries/STM32F10x_StdPeriph_Driver/src/stm32f10x_can.c **** /**
 766:../Libraries/STM32F10x_StdPeriph_Driver/src/stm32f10x_can.c ****   * @brief   Select the CAN Operation mode.
 767:../Libraries/STM32F10x_StdPeriph_Driver/src/stm32f10x_can.c ****   * @param CAN_OperatingMode : CAN Operating Mode. This parameter can be one 
 768:../Libraries/STM32F10x_StdPeriph_Driver/src/stm32f10x_can.c ****   *                            of @ref CAN_OperatingMode_TypeDef enumeration.
 769:../Libraries/STM32F10x_StdPeriph_Driver/src/stm32f10x_can.c ****   * @retval status of the requested mode which can be 
 770:../Libraries/STM32F10x_StdPeriph_Driver/src/stm32f10x_can.c ****   *         - CAN_ModeStatus_Failed    CAN failed entering the specific mode 
 771:../Libraries/STM32F10x_StdPeriph_Driver/src/stm32f10x_can.c ****   *         - CAN_ModeStatus_Success   CAN Succeed entering the specific mode 
 772:../Libraries/STM32F10x_StdPeriph_Driver/src/stm32f10x_can.c **** 
 773:../Libraries/STM32F10x_StdPeriph_Driver/src/stm32f10x_can.c ****   */
 774:../Libraries/STM32F10x_StdPeriph_Driver/src/stm32f10x_can.c **** uint8_t CAN_OperatingModeRequest(CAN_TypeDef* CANx, uint8_t CAN_OperatingMode)
 775:../Libraries/STM32F10x_StdPeriph_Driver/src/stm32f10x_can.c **** {
 21681              		.loc 1 775 0
 21682              		.cfi_startproc
 21683              		@ args = 0, pretend = 0, frame = 16
 21684              		@ frame_needed = 1, uses_anonymous_args = 0
 21685              		@ link register save eliminated.
 21686 0000 80B4     		push	{r7}
 21687              	.LCFI39:
 21688              		.cfi_def_cfa_offset 4
 21689 0002 85B0     		sub	sp, sp, #20
 21690              	.LCFI40:
 21691              		.cfi_def_cfa_offset 24
 21692 0004 00AF     		add	r7, sp, #0
 21693              		.cfi_offset 7, -4
 21694              	.LCFI41:
 21695              		.cfi_def_cfa_register 7
 21696 0006 7860     		str	r0, [r7, #4]
 21697 0008 0B46     		mov	r3, r1
 21698 000a FB70     		strb	r3, [r7, #3]
 776:../Libraries/STM32F10x_StdPeriph_Driver/src/stm32f10x_can.c ****   uint8_t status = CAN_ModeStatus_Failed;
 21699              		.loc 1 776 0
 21700 000c 4FF00003 		mov	r3, #0
 21701 0010 FB73     		strb	r3, [r7, #15]
 777:../Libraries/STM32F10x_StdPeriph_Driver/src/stm32f10x_can.c ****   
 778:../Libraries/STM32F10x_StdPeriph_Driver/src/stm32f10x_can.c ****   /* Timeout for INAK or also for SLAK bits*/
 779:../Libraries/STM32F10x_StdPeriph_Driver/src/stm32f10x_can.c ****   uint32_t timeout = INAK_TIMEOUT; 
 21702              		.loc 1 779 0
 21703 0012 4FF6FF73 		movw	r3, #65535
 21704 0016 BB60     		str	r3, [r7, #8]
 780:../Libraries/STM32F10x_StdPeriph_Driver/src/stm32f10x_can.c **** 
 781:../Libraries/STM32F10x_StdPeriph_Driver/src/stm32f10x_can.c ****   /* Check the parameters */
 782:../Libraries/STM32F10x_StdPeriph_Driver/src/stm32f10x_can.c ****   assert_param(IS_CAN_ALL_PERIPH(CANx));
 783:../Libraries/STM32F10x_StdPeriph_Driver/src/stm32f10x_can.c ****   assert_param(IS_CAN_OPERATING_MODE(CAN_OperatingMode));
 784:../Libraries/STM32F10x_StdPeriph_Driver/src/stm32f10x_can.c **** 
 785:../Libraries/STM32F10x_StdPeriph_Driver/src/stm32f10x_can.c ****   if (CAN_OperatingMode == CAN_OperatingMode_Initialization)
 21705              		.loc 1 785 0
 21706 0018 FB78     		ldrb	r3, [r7, #3]	@ zero_extendqisi2
 21707 001a 002B     		cmp	r3, #0
 21708 001c 23D1     		bne	.L95
 786:../Libraries/STM32F10x_StdPeriph_Driver/src/stm32f10x_can.c ****   {
 787:../Libraries/STM32F10x_StdPeriph_Driver/src/stm32f10x_can.c ****     /* Request initialisation */
 788:../Libraries/STM32F10x_StdPeriph_Driver/src/stm32f10x_can.c ****     CANx->MCR = (uint32_t)((CANx->MCR & (uint32_t)(~(uint32_t)CAN_MCR_SLEEP)) | CAN_MCR_INRQ);
 21709              		.loc 1 788 0
 21710 001e 7B68     		ldr	r3, [r7, #4]
 21711 0020 1B68     		ldr	r3, [r3, #0]
 21712 0022 23F00303 		bic	r3, r3, #3
 21713 0026 43F00102 		orr	r2, r3, #1
 21714 002a 7B68     		ldr	r3, [r7, #4]
 21715 002c 1A60     		str	r2, [r3, #0]
 789:../Libraries/STM32F10x_StdPeriph_Driver/src/stm32f10x_can.c **** 
 790:../Libraries/STM32F10x_StdPeriph_Driver/src/stm32f10x_can.c ****     /* Wait the acknowledge */
 791:../Libraries/STM32F10x_StdPeriph_Driver/src/stm32f10x_can.c ****     while (((CANx->MSR & CAN_MODE_MASK) != CAN_MSR_INAK) && (timeout != 0))
 21716              		.loc 1 791 0
 21717 002e 03E0     		b	.L96
 21718              	.L98:
 792:../Libraries/STM32F10x_StdPeriph_Driver/src/stm32f10x_can.c ****     {
 793:../Libraries/STM32F10x_StdPeriph_Driver/src/stm32f10x_can.c ****       timeout--;
 21719              		.loc 1 793 0
 21720 0030 BB68     		ldr	r3, [r7, #8]
 21721 0032 03F1FF33 		add	r3, r3, #-1
 21722 0036 BB60     		str	r3, [r7, #8]
 21723              	.L96:
 791:../Libraries/STM32F10x_StdPeriph_Driver/src/stm32f10x_can.c ****     while (((CANx->MSR & CAN_MODE_MASK) != CAN_MSR_INAK) && (timeout != 0))
 21724              		.loc 1 791 0 discriminator 1
 21725 0038 7B68     		ldr	r3, [r7, #4]
 21726 003a 5B68     		ldr	r3, [r3, #4]
 21727 003c 03F00303 		and	r3, r3, #3
 21728 0040 012B     		cmp	r3, #1
 21729 0042 02D0     		beq	.L97
 791:../Libraries/STM32F10x_StdPeriph_Driver/src/stm32f10x_can.c ****     while (((CANx->MSR & CAN_MODE_MASK) != CAN_MSR_INAK) && (timeout != 0))
 21730              		.loc 1 791 0 is_stmt 0 discriminator 2
 21731 0044 BB68     		ldr	r3, [r7, #8]
 21732 0046 002B     		cmp	r3, #0
 21733 0048 F2D1     		bne	.L98
 21734              	.L97:
 794:../Libraries/STM32F10x_StdPeriph_Driver/src/stm32f10x_can.c ****     }
 795:../Libraries/STM32F10x_StdPeriph_Driver/src/stm32f10x_can.c ****     if ((CANx->MSR & CAN_MODE_MASK) != CAN_MSR_INAK)
 21735              		.loc 1 795 0 is_stmt 1
 21736 004a 7B68     		ldr	r3, [r7, #4]
 21737 004c 5B68     		ldr	r3, [r3, #4]
 21738 004e 03F00303 		and	r3, r3, #3
 21739 0052 012B     		cmp	r3, #1
 21740 0054 03D0     		beq	.L99
 796:../Libraries/STM32F10x_StdPeriph_Driver/src/stm32f10x_can.c ****     {
 797:../Libraries/STM32F10x_StdPeriph_Driver/src/stm32f10x_can.c ****       status = CAN_ModeStatus_Failed;
 21741              		.loc 1 797 0
 21742 0056 4FF00003 		mov	r3, #0
 21743 005a FB73     		strb	r3, [r7, #15]
 21744 005c 52E0     		b	.L100
 21745              	.L99:
 798:../Libraries/STM32F10x_StdPeriph_Driver/src/stm32f10x_can.c ****     }
 799:../Libraries/STM32F10x_StdPeriph_Driver/src/stm32f10x_can.c ****     else
 800:../Libraries/STM32F10x_StdPeriph_Driver/src/stm32f10x_can.c ****     {
 801:../Libraries/STM32F10x_StdPeriph_Driver/src/stm32f10x_can.c ****       status = CAN_ModeStatus_Success;
 21746              		.loc 1 801 0
 21747 005e 4FF00103 		mov	r3, #1
 21748 0062 FB73     		strb	r3, [r7, #15]
 21749 0064 4EE0     		b	.L100
 21750              	.L95:
 802:../Libraries/STM32F10x_StdPeriph_Driver/src/stm32f10x_can.c ****     }
 803:../Libraries/STM32F10x_StdPeriph_Driver/src/stm32f10x_can.c ****   }
 804:../Libraries/STM32F10x_StdPeriph_Driver/src/stm32f10x_can.c ****   else  if (CAN_OperatingMode == CAN_OperatingMode_Normal)
 21751              		.loc 1 804 0
 21752 0066 FB78     		ldrb	r3, [r7, #3]	@ zero_extendqisi2
 21753 0068 012B     		cmp	r3, #1
 21754 006a 21D1     		bne	.L101
 805:../Libraries/STM32F10x_StdPeriph_Driver/src/stm32f10x_can.c ****   {
 806:../Libraries/STM32F10x_StdPeriph_Driver/src/stm32f10x_can.c ****     /* Request leave initialisation and sleep mode  and enter Normal mode */
 807:../Libraries/STM32F10x_StdPeriph_Driver/src/stm32f10x_can.c ****     CANx->MCR &= (uint32_t)(~(CAN_MCR_SLEEP|CAN_MCR_INRQ));
 21755              		.loc 1 807 0
 21756 006c 7B68     		ldr	r3, [r7, #4]
 21757 006e 1B68     		ldr	r3, [r3, #0]
 21758 0070 23F00302 		bic	r2, r3, #3
 21759 0074 7B68     		ldr	r3, [r7, #4]
 21760 0076 1A60     		str	r2, [r3, #0]
 808:../Libraries/STM32F10x_StdPeriph_Driver/src/stm32f10x_can.c **** 
 809:../Libraries/STM32F10x_StdPeriph_Driver/src/stm32f10x_can.c ****     /* Wait the acknowledge */
 810:../Libraries/STM32F10x_StdPeriph_Driver/src/stm32f10x_can.c ****     while (((CANx->MSR & CAN_MODE_MASK) != 0) && (timeout!=0))
 21761              		.loc 1 810 0
 21762 0078 03E0     		b	.L102
 21763              	.L104:
 811:../Libraries/STM32F10x_StdPeriph_Driver/src/stm32f10x_can.c ****     {
 812:../Libraries/STM32F10x_StdPeriph_Driver/src/stm32f10x_can.c ****       timeout--;
 21764              		.loc 1 812 0
 21765 007a BB68     		ldr	r3, [r7, #8]
 21766 007c 03F1FF33 		add	r3, r3, #-1
 21767 0080 BB60     		str	r3, [r7, #8]
 21768              	.L102:
 810:../Libraries/STM32F10x_StdPeriph_Driver/src/stm32f10x_can.c ****     while (((CANx->MSR & CAN_MODE_MASK) != 0) && (timeout!=0))
 21769              		.loc 1 810 0 discriminator 1
 21770 0082 7B68     		ldr	r3, [r7, #4]
 21771 0084 5B68     		ldr	r3, [r3, #4]
 21772 0086 03F00303 		and	r3, r3, #3
 21773 008a 002B     		cmp	r3, #0
 21774 008c 02D0     		beq	.L103
 810:../Libraries/STM32F10x_StdPeriph_Driver/src/stm32f10x_can.c ****     while (((CANx->MSR & CAN_MODE_MASK) != 0) && (timeout!=0))
 21775              		.loc 1 810 0 is_stmt 0 discriminator 2
 21776 008e BB68     		ldr	r3, [r7, #8]
 21777 0090 002B     		cmp	r3, #0
 21778 0092 F2D1     		bne	.L104
 21779              	.L103:
 813:../Libraries/STM32F10x_StdPeriph_Driver/src/stm32f10x_can.c ****     }
 814:../Libraries/STM32F10x_StdPeriph_Driver/src/stm32f10x_can.c ****     if ((CANx->MSR & CAN_MODE_MASK) != 0)
 21780              		.loc 1 814 0 is_stmt 1
 21781 0094 7B68     		ldr	r3, [r7, #4]
 21782 0096 5B68     		ldr	r3, [r3, #4]
 21783 0098 03F00303 		and	r3, r3, #3
 21784 009c 002B     		cmp	r3, #0
 21785 009e 03D0     		beq	.L105
 815:../Libraries/STM32F10x_StdPeriph_Driver/src/stm32f10x_can.c ****     {
 816:../Libraries/STM32F10x_StdPeriph_Driver/src/stm32f10x_can.c ****       status = CAN_ModeStatus_Failed;
 21786              		.loc 1 816 0
 21787 00a0 4FF00003 		mov	r3, #0
 21788 00a4 FB73     		strb	r3, [r7, #15]
 21789 00a6 2DE0     		b	.L100
 21790              	.L105:
 817:../Libraries/STM32F10x_StdPeriph_Driver/src/stm32f10x_can.c ****     }
 818:../Libraries/STM32F10x_StdPeriph_Driver/src/stm32f10x_can.c ****     else
 819:../Libraries/STM32F10x_StdPeriph_Driver/src/stm32f10x_can.c ****     {
 820:../Libraries/STM32F10x_StdPeriph_Driver/src/stm32f10x_can.c ****       status = CAN_ModeStatus_Success;
 21791              		.loc 1 820 0
 21792 00a8 4FF00103 		mov	r3, #1
 21793 00ac FB73     		strb	r3, [r7, #15]
 21794 00ae 29E0     		b	.L100
 21795              	.L101:
 821:../Libraries/STM32F10x_StdPeriph_Driver/src/stm32f10x_can.c ****     }
 822:../Libraries/STM32F10x_StdPeriph_Driver/src/stm32f10x_can.c ****   }
 823:../Libraries/STM32F10x_StdPeriph_Driver/src/stm32f10x_can.c ****   else  if (CAN_OperatingMode == CAN_OperatingMode_Sleep)
 21796              		.loc 1 823 0
 21797 00b0 FB78     		ldrb	r3, [r7, #3]	@ zero_extendqisi2
 21798 00b2 022B     		cmp	r3, #2
 21799 00b4 23D1     		bne	.L106
 824:../Libraries/STM32F10x_StdPeriph_Driver/src/stm32f10x_can.c ****   {
 825:../Libraries/STM32F10x_StdPeriph_Driver/src/stm32f10x_can.c ****     /* Request Sleep mode */
 826:../Libraries/STM32F10x_StdPeriph_Driver/src/stm32f10x_can.c ****     CANx->MCR = (uint32_t)((CANx->MCR & (uint32_t)(~(uint32_t)CAN_MCR_INRQ)) | CAN_MCR_SLEEP);
 21800              		.loc 1 826 0
 21801 00b6 7B68     		ldr	r3, [r7, #4]
 21802 00b8 1B68     		ldr	r3, [r3, #0]
 21803 00ba 23F00303 		bic	r3, r3, #3
 21804 00be 43F00202 		orr	r2, r3, #2
 21805 00c2 7B68     		ldr	r3, [r7, #4]
 21806 00c4 1A60     		str	r2, [r3, #0]
 827:../Libraries/STM32F10x_StdPeriph_Driver/src/stm32f10x_can.c **** 
 828:../Libraries/STM32F10x_StdPeriph_Driver/src/stm32f10x_can.c ****     /* Wait the acknowledge */
 829:../Libraries/STM32F10x_StdPeriph_Driver/src/stm32f10x_can.c ****     while (((CANx->MSR & CAN_MODE_MASK) != CAN_MSR_SLAK) && (timeout!=0))
 21807              		.loc 1 829 0
 21808 00c6 03E0     		b	.L107
 21809              	.L109:
 830:../Libraries/STM32F10x_StdPeriph_Driver/src/stm32f10x_can.c ****     {
 831:../Libraries/STM32F10x_StdPeriph_Driver/src/stm32f10x_can.c ****       timeout--;
 21810              		.loc 1 831 0
 21811 00c8 BB68     		ldr	r3, [r7, #8]
 21812 00ca 03F1FF33 		add	r3, r3, #-1
 21813 00ce BB60     		str	r3, [r7, #8]
 21814              	.L107:
 829:../Libraries/STM32F10x_StdPeriph_Driver/src/stm32f10x_can.c ****     while (((CANx->MSR & CAN_MODE_MASK) != CAN_MSR_SLAK) && (timeout!=0))
 21815              		.loc 1 829 0 discriminator 1
 21816 00d0 7B68     		ldr	r3, [r7, #4]
 21817 00d2 5B68     		ldr	r3, [r3, #4]
 21818 00d4 03F00303 		and	r3, r3, #3
 21819 00d8 022B     		cmp	r3, #2
 21820 00da 02D0     		beq	.L108
 829:../Libraries/STM32F10x_StdPeriph_Driver/src/stm32f10x_can.c ****     while (((CANx->MSR & CAN_MODE_MASK) != CAN_MSR_SLAK) && (timeout!=0))
 21821              		.loc 1 829 0 is_stmt 0 discriminator 2
 21822 00dc BB68     		ldr	r3, [r7, #8]
 21823 00de 002B     		cmp	r3, #0
 21824 00e0 F2D1     		bne	.L109
 21825              	.L108:
 832:../Libraries/STM32F10x_StdPeriph_Driver/src/stm32f10x_can.c ****     }
 833:../Libraries/STM32F10x_StdPeriph_Driver/src/stm32f10x_can.c ****     if ((CANx->MSR & CAN_MODE_MASK) != CAN_MSR_SLAK)
 21826              		.loc 1 833 0 is_stmt 1
 21827 00e2 7B68     		ldr	r3, [r7, #4]
 21828 00e4 5B68     		ldr	r3, [r3, #4]
 21829 00e6 03F00303 		and	r3, r3, #3
 21830 00ea 022B     		cmp	r3, #2
 21831 00ec 03D0     		beq	.L110
 834:../Libraries/STM32F10x_StdPeriph_Driver/src/stm32f10x_can.c ****     {
 835:../Libraries/STM32F10x_StdPeriph_Driver/src/stm32f10x_can.c ****       status = CAN_ModeStatus_Failed;
 21832              		.loc 1 835 0
 21833 00ee 4FF00003 		mov	r3, #0
 21834 00f2 FB73     		strb	r3, [r7, #15]
 21835 00f4 06E0     		b	.L100
 21836              	.L110:
 836:../Libraries/STM32F10x_StdPeriph_Driver/src/stm32f10x_can.c ****     }
 837:../Libraries/STM32F10x_StdPeriph_Driver/src/stm32f10x_can.c ****     else
 838:../Libraries/STM32F10x_StdPeriph_Driver/src/stm32f10x_can.c ****     {
 839:../Libraries/STM32F10x_StdPeriph_Driver/src/stm32f10x_can.c ****       status = CAN_ModeStatus_Success;
 21837              		.loc 1 839 0
 21838 00f6 4FF00103 		mov	r3, #1
 21839 00fa FB73     		strb	r3, [r7, #15]
 21840 00fc 02E0     		b	.L100
 21841              	.L106:
 840:../Libraries/STM32F10x_StdPeriph_Driver/src/stm32f10x_can.c ****     }
 841:../Libraries/STM32F10x_StdPeriph_Driver/src/stm32f10x_can.c ****   }
 842:../Libraries/STM32F10x_StdPeriph_Driver/src/stm32f10x_can.c ****   else
 843:../Libraries/STM32F10x_StdPeriph_Driver/src/stm32f10x_can.c ****   {
 844:../Libraries/STM32F10x_StdPeriph_Driver/src/stm32f10x_can.c ****     status = CAN_ModeStatus_Failed;
 21842              		.loc 1 844 0
 21843 00fe 4FF00003 		mov	r3, #0
 21844 0102 FB73     		strb	r3, [r7, #15]
 21845              	.L100:
 845:../Libraries/STM32F10x_StdPeriph_Driver/src/stm32f10x_can.c ****   }
 846:../Libraries/STM32F10x_StdPeriph_Driver/src/stm32f10x_can.c **** 
 847:../Libraries/STM32F10x_StdPeriph_Driver/src/stm32f10x_can.c ****   return  (uint8_t) status;
 21846              		.loc 1 847 0
 21847 0104 FB7B     		ldrb	r3, [r7, #15]	@ zero_extendqisi2
 848:../Libraries/STM32F10x_StdPeriph_Driver/src/stm32f10x_can.c **** }
 21848              		.loc 1 848 0
 21849 0106 1846     		mov	r0, r3
 21850 0108 07F11407 		add	r7, r7, #20
 21851 010c BD46     		mov	sp, r7
 21852 010e 80BC     		pop	{r7}
 21853 0110 7047     		bx	lr
 21854              		.cfi_endproc
 21855              	.LFE42:
 21857 0112 00BF     		.section	.text.CAN_Sleep,"ax",%progbits
 21858              		.align	2
 21859              		.global	CAN_Sleep
 21860              		.thumb
 21861              		.thumb_func
 21863              	CAN_Sleep:
 21864              	.LFB43:
 849:../Libraries/STM32F10x_StdPeriph_Driver/src/stm32f10x_can.c **** 
 850:../Libraries/STM32F10x_StdPeriph_Driver/src/stm32f10x_can.c **** /**
 851:../Libraries/STM32F10x_StdPeriph_Driver/src/stm32f10x_can.c ****   * @brief  Enters the low power mode.
 852:../Libraries/STM32F10x_StdPeriph_Driver/src/stm32f10x_can.c ****   * @param  CANx:   where x can be 1 or 2 to to select the CAN peripheral.
 853:../Libraries/STM32F10x_StdPeriph_Driver/src/stm32f10x_can.c ****   * @retval status: CAN_Sleep_Ok if sleep entered, CAN_Sleep_Failed in an 
 854:../Libraries/STM32F10x_StdPeriph_Driver/src/stm32f10x_can.c ****   *                 other case.
 855:../Libraries/STM32F10x_StdPeriph_Driver/src/stm32f10x_can.c ****   */
 856:../Libraries/STM32F10x_StdPeriph_Driver/src/stm32f10x_can.c **** uint8_t CAN_Sleep(CAN_TypeDef* CANx)
 857:../Libraries/STM32F10x_StdPeriph_Driver/src/stm32f10x_can.c **** {
 21865              		.loc 1 857 0
 21866              		.cfi_startproc
 21867              		@ args = 0, pretend = 0, frame = 16
 21868              		@ frame_needed = 1, uses_anonymous_args = 0
 21869              		@ link register save eliminated.
 21870 0000 80B4     		push	{r7}
 21871              	.LCFI42:
 21872              		.cfi_def_cfa_offset 4
 21873 0002 85B0     		sub	sp, sp, #20
 21874              	.LCFI43:
 21875              		.cfi_def_cfa_offset 24
 21876 0004 00AF     		add	r7, sp, #0
 21877              		.cfi_offset 7, -4
 21878              	.LCFI44:
 21879              		.cfi_def_cfa_register 7
 21880 0006 7860     		str	r0, [r7, #4]
 858:../Libraries/STM32F10x_StdPeriph_Driver/src/stm32f10x_can.c ****   uint8_t sleepstatus = CAN_Sleep_Failed;
 21881              		.loc 1 858 0
 21882 0008 4FF00003 		mov	r3, #0
 21883 000c FB73     		strb	r3, [r7, #15]
 859:../Libraries/STM32F10x_StdPeriph_Driver/src/stm32f10x_can.c ****   
 860:../Libraries/STM32F10x_StdPeriph_Driver/src/stm32f10x_can.c ****   /* Check the parameters */
 861:../Libraries/STM32F10x_StdPeriph_Driver/src/stm32f10x_can.c ****   assert_param(IS_CAN_ALL_PERIPH(CANx));
 862:../Libraries/STM32F10x_StdPeriph_Driver/src/stm32f10x_can.c ****     
 863:../Libraries/STM32F10x_StdPeriph_Driver/src/stm32f10x_can.c ****   /* Request Sleep mode */
 864:../Libraries/STM32F10x_StdPeriph_Driver/src/stm32f10x_can.c ****    CANx->MCR = (((CANx->MCR) & (uint32_t)(~(uint32_t)CAN_MCR_INRQ)) | CAN_MCR_SLEEP);
 21884              		.loc 1 864 0
 21885 000e 7B68     		ldr	r3, [r7, #4]
 21886 0010 1B68     		ldr	r3, [r3, #0]
 21887 0012 23F00303 		bic	r3, r3, #3
 21888 0016 43F00202 		orr	r2, r3, #2
 21889 001a 7B68     		ldr	r3, [r7, #4]
 21890 001c 1A60     		str	r2, [r3, #0]
 865:../Libraries/STM32F10x_StdPeriph_Driver/src/stm32f10x_can.c ****    
 866:../Libraries/STM32F10x_StdPeriph_Driver/src/stm32f10x_can.c ****   /* Sleep mode status */
 867:../Libraries/STM32F10x_StdPeriph_Driver/src/stm32f10x_can.c ****   if ((CANx->MSR & (CAN_MSR_SLAK|CAN_MSR_INAK)) == CAN_MSR_SLAK)
 21891              		.loc 1 867 0
 21892 001e 7B68     		ldr	r3, [r7, #4]
 21893 0020 5B68     		ldr	r3, [r3, #4]
 21894 0022 03F00303 		and	r3, r3, #3
 21895 0026 022B     		cmp	r3, #2
 21896 0028 02D1     		bne	.L112
 868:../Libraries/STM32F10x_StdPeriph_Driver/src/stm32f10x_can.c ****   {
 869:../Libraries/STM32F10x_StdPeriph_Driver/src/stm32f10x_can.c ****     /* Sleep mode not entered */
 870:../Libraries/STM32F10x_StdPeriph_Driver/src/stm32f10x_can.c ****     sleepstatus =  CAN_Sleep_Ok;
 21897              		.loc 1 870 0
 21898 002a 4FF00103 		mov	r3, #1
 21899 002e FB73     		strb	r3, [r7, #15]
 21900              	.L112:
 871:../Libraries/STM32F10x_StdPeriph_Driver/src/stm32f10x_can.c ****   }
 872:../Libraries/STM32F10x_StdPeriph_Driver/src/stm32f10x_can.c ****   /* return sleep mode status */
 873:../Libraries/STM32F10x_StdPeriph_Driver/src/stm32f10x_can.c ****    return (uint8_t)sleepstatus;
 21901              		.loc 1 873 0
 21902 0030 FB7B     		ldrb	r3, [r7, #15]	@ zero_extendqisi2
 874:../Libraries/STM32F10x_StdPeriph_Driver/src/stm32f10x_can.c **** }
 21903              		.loc 1 874 0
 21904 0032 1846     		mov	r0, r3
 21905 0034 07F11407 		add	r7, r7, #20
 21906 0038 BD46     		mov	sp, r7
 21907 003a 80BC     		pop	{r7}
 21908 003c 7047     		bx	lr
 21909              		.cfi_endproc
 21910              	.LFE43:
 21912 003e 00BF     		.section	.text.CAN_WakeUp,"ax",%progbits
 21913              		.align	2
 21914              		.global	CAN_WakeUp
 21915              		.thumb
 21916              		.thumb_func
 21918              	CAN_WakeUp:
 21919              	.LFB44:
 875:../Libraries/STM32F10x_StdPeriph_Driver/src/stm32f10x_can.c **** 
 876:../Libraries/STM32F10x_StdPeriph_Driver/src/stm32f10x_can.c **** /**
 877:../Libraries/STM32F10x_StdPeriph_Driver/src/stm32f10x_can.c ****   * @brief  Wakes the CAN up.
 878:../Libraries/STM32F10x_StdPeriph_Driver/src/stm32f10x_can.c ****   * @param  CANx:    where x can be 1 or 2 to to select the CAN peripheral.
 879:../Libraries/STM32F10x_StdPeriph_Driver/src/stm32f10x_can.c ****   * @retval status:  CAN_WakeUp_Ok if sleep mode left, CAN_WakeUp_Failed in an 
 880:../Libraries/STM32F10x_StdPeriph_Driver/src/stm32f10x_can.c ****   *                  other case.
 881:../Libraries/STM32F10x_StdPeriph_Driver/src/stm32f10x_can.c ****   */
 882:../Libraries/STM32F10x_StdPeriph_Driver/src/stm32f10x_can.c **** uint8_t CAN_WakeUp(CAN_TypeDef* CANx)
 883:../Libraries/STM32F10x_StdPeriph_Driver/src/stm32f10x_can.c **** {
 21920              		.loc 1 883 0
 21921              		.cfi_startproc
 21922              		@ args = 0, pretend = 0, frame = 16
 21923              		@ frame_needed = 1, uses_anonymous_args = 0
 21924              		@ link register save eliminated.
 21925 0000 80B4     		push	{r7}
 21926              	.LCFI45:
 21927              		.cfi_def_cfa_offset 4
 21928 0002 85B0     		sub	sp, sp, #20
 21929              	.LCFI46:
 21930              		.cfi_def_cfa_offset 24
 21931 0004 00AF     		add	r7, sp, #0
 21932              		.cfi_offset 7, -4
 21933              	.LCFI47:
 21934              		.cfi_def_cfa_register 7
 21935 0006 7860     		str	r0, [r7, #4]
 884:../Libraries/STM32F10x_StdPeriph_Driver/src/stm32f10x_can.c ****   uint32_t wait_slak = SLAK_TIMEOUT;
 21936              		.loc 1 884 0
 21937 0008 4FF6FF73 		movw	r3, #65535
 21938 000c FB60     		str	r3, [r7, #12]
 885:../Libraries/STM32F10x_StdPeriph_Driver/src/stm32f10x_can.c ****   uint8_t wakeupstatus = CAN_WakeUp_Failed;
 21939              		.loc 1 885 0
 21940 000e 4FF00003 		mov	r3, #0
 21941 0012 FB72     		strb	r3, [r7, #11]
 886:../Libraries/STM32F10x_StdPeriph_Driver/src/stm32f10x_can.c ****   
 887:../Libraries/STM32F10x_StdPeriph_Driver/src/stm32f10x_can.c ****   /* Check the parameters */
 888:../Libraries/STM32F10x_StdPeriph_Driver/src/stm32f10x_can.c ****   assert_param(IS_CAN_ALL_PERIPH(CANx));
 889:../Libraries/STM32F10x_StdPeriph_Driver/src/stm32f10x_can.c ****     
 890:../Libraries/STM32F10x_StdPeriph_Driver/src/stm32f10x_can.c ****   /* Wake up request */
 891:../Libraries/STM32F10x_StdPeriph_Driver/src/stm32f10x_can.c ****   CANx->MCR &= ~(uint32_t)CAN_MCR_SLEEP;
 21942              		.loc 1 891 0
 21943 0014 7B68     		ldr	r3, [r7, #4]
 21944 0016 1B68     		ldr	r3, [r3, #0]
 21945 0018 23F00202 		bic	r2, r3, #2
 21946 001c 7B68     		ldr	r3, [r7, #4]
 21947 001e 1A60     		str	r2, [r3, #0]
 892:../Libraries/STM32F10x_StdPeriph_Driver/src/stm32f10x_can.c ****     
 893:../Libraries/STM32F10x_StdPeriph_Driver/src/stm32f10x_can.c ****   /* Sleep mode status */
 894:../Libraries/STM32F10x_StdPeriph_Driver/src/stm32f10x_can.c ****   while(((CANx->MSR & CAN_MSR_SLAK) == CAN_MSR_SLAK)&&(wait_slak!=0x00))
 21948              		.loc 1 894 0
 21949 0020 03E0     		b	.L114
 21950              	.L116:
 895:../Libraries/STM32F10x_StdPeriph_Driver/src/stm32f10x_can.c ****   {
 896:../Libraries/STM32F10x_StdPeriph_Driver/src/stm32f10x_can.c ****    wait_slak--;
 21951              		.loc 1 896 0
 21952 0022 FB68     		ldr	r3, [r7, #12]
 21953 0024 03F1FF33 		add	r3, r3, #-1
 21954 0028 FB60     		str	r3, [r7, #12]
 21955              	.L114:
 894:../Libraries/STM32F10x_StdPeriph_Driver/src/stm32f10x_can.c ****   while(((CANx->MSR & CAN_MSR_SLAK) == CAN_MSR_SLAK)&&(wait_slak!=0x00))
 21956              		.loc 1 894 0 discriminator 1
 21957 002a 7B68     		ldr	r3, [r7, #4]
 21958 002c 5B68     		ldr	r3, [r3, #4]
 21959 002e 03F00203 		and	r3, r3, #2
 21960 0032 002B     		cmp	r3, #0
 21961 0034 02D0     		beq	.L115
 894:../Libraries/STM32F10x_StdPeriph_Driver/src/stm32f10x_can.c ****   while(((CANx->MSR & CAN_MSR_SLAK) == CAN_MSR_SLAK)&&(wait_slak!=0x00))
 21962              		.loc 1 894 0 is_stmt 0 discriminator 2
 21963 0036 FB68     		ldr	r3, [r7, #12]
 21964 0038 002B     		cmp	r3, #0
 21965 003a F2D1     		bne	.L116
 21966              	.L115:
 897:../Libraries/STM32F10x_StdPeriph_Driver/src/stm32f10x_can.c ****   }
 898:../Libraries/STM32F10x_StdPeriph_Driver/src/stm32f10x_can.c ****   if((CANx->MSR & CAN_MSR_SLAK) != CAN_MSR_SLAK)
 21967              		.loc 1 898 0 is_stmt 1
 21968 003c 7B68     		ldr	r3, [r7, #4]
 21969 003e 5B68     		ldr	r3, [r3, #4]
 21970 0040 03F00203 		and	r3, r3, #2
 21971 0044 002B     		cmp	r3, #0
 21972 0046 02D1     		bne	.L117
 899:../Libraries/STM32F10x_StdPeriph_Driver/src/stm32f10x_can.c ****   {
 900:../Libraries/STM32F10x_StdPeriph_Driver/src/stm32f10x_can.c ****    /* wake up done : Sleep mode exited */
 901:../Libraries/STM32F10x_StdPeriph_Driver/src/stm32f10x_can.c ****     wakeupstatus = CAN_WakeUp_Ok;
 21973              		.loc 1 901 0
 21974 0048 4FF00103 		mov	r3, #1
 21975 004c FB72     		strb	r3, [r7, #11]
 21976              	.L117:
 902:../Libraries/STM32F10x_StdPeriph_Driver/src/stm32f10x_can.c ****   }
 903:../Libraries/STM32F10x_StdPeriph_Driver/src/stm32f10x_can.c ****   /* return wakeup status */
 904:../Libraries/STM32F10x_StdPeriph_Driver/src/stm32f10x_can.c ****   return (uint8_t)wakeupstatus;
 21977              		.loc 1 904 0
 21978 004e FB7A     		ldrb	r3, [r7, #11]	@ zero_extendqisi2
 905:../Libraries/STM32F10x_StdPeriph_Driver/src/stm32f10x_can.c **** }
 21979              		.loc 1 905 0
 21980 0050 1846     		mov	r0, r3
 21981 0052 07F11407 		add	r7, r7, #20
 21982 0056 BD46     		mov	sp, r7
 21983 0058 80BC     		pop	{r7}
 21984 005a 7047     		bx	lr
 21985              		.cfi_endproc
 21986              	.LFE44:
 21988              		.section	.text.CAN_GetLastErrorCode,"ax",%progbits
 21989              		.align	2
 21990              		.global	CAN_GetLastErrorCode
 21991              		.thumb
 21992              		.thumb_func
 21994              	CAN_GetLastErrorCode:
 21995              	.LFB45:
 906:../Libraries/STM32F10x_StdPeriph_Driver/src/stm32f10x_can.c **** 
 907:../Libraries/STM32F10x_StdPeriph_Driver/src/stm32f10x_can.c **** 
 908:../Libraries/STM32F10x_StdPeriph_Driver/src/stm32f10x_can.c **** /**
 909:../Libraries/STM32F10x_StdPeriph_Driver/src/stm32f10x_can.c ****   * @brief  Returns the CANx's last error code (LEC).
 910:../Libraries/STM32F10x_StdPeriph_Driver/src/stm32f10x_can.c ****   * @param  CANx:          where x can be 1 or 2 to to select the CAN peripheral.  
 911:../Libraries/STM32F10x_StdPeriph_Driver/src/stm32f10x_can.c ****   * @retval CAN_ErrorCode: specifies the Error code : 
 912:../Libraries/STM32F10x_StdPeriph_Driver/src/stm32f10x_can.c ****   *                        - CAN_ERRORCODE_NoErr            No Error  
 913:../Libraries/STM32F10x_StdPeriph_Driver/src/stm32f10x_can.c ****   *                        - CAN_ERRORCODE_StuffErr         Stuff Error
 914:../Libraries/STM32F10x_StdPeriph_Driver/src/stm32f10x_can.c ****   *                        - CAN_ERRORCODE_FormErr          Form Error
 915:../Libraries/STM32F10x_StdPeriph_Driver/src/stm32f10x_can.c ****   *                        - CAN_ERRORCODE_ACKErr           Acknowledgment Error
 916:../Libraries/STM32F10x_StdPeriph_Driver/src/stm32f10x_can.c ****   *                        - CAN_ERRORCODE_BitRecessiveErr  Bit Recessive Error
 917:../Libraries/STM32F10x_StdPeriph_Driver/src/stm32f10x_can.c ****   *                        - CAN_ERRORCODE_BitDominantErr   Bit Dominant Error
 918:../Libraries/STM32F10x_StdPeriph_Driver/src/stm32f10x_can.c ****   *                        - CAN_ERRORCODE_CRCErr           CRC Error
 919:../Libraries/STM32F10x_StdPeriph_Driver/src/stm32f10x_can.c ****   *                        - CAN_ERRORCODE_SoftwareSetErr   Software Set Error  
 920:../Libraries/STM32F10x_StdPeriph_Driver/src/stm32f10x_can.c ****   */
 921:../Libraries/STM32F10x_StdPeriph_Driver/src/stm32f10x_can.c ****  
 922:../Libraries/STM32F10x_StdPeriph_Driver/src/stm32f10x_can.c **** uint8_t CAN_GetLastErrorCode(CAN_TypeDef* CANx)
 923:../Libraries/STM32F10x_StdPeriph_Driver/src/stm32f10x_can.c **** {
 21996              		.loc 1 923 0
 21997              		.cfi_startproc
 21998              		@ args = 0, pretend = 0, frame = 16
 21999              		@ frame_needed = 1, uses_anonymous_args = 0
 22000              		@ link register save eliminated.
 22001 0000 80B4     		push	{r7}
 22002              	.LCFI48:
 22003              		.cfi_def_cfa_offset 4
 22004 0002 85B0     		sub	sp, sp, #20
 22005              	.LCFI49:
 22006              		.cfi_def_cfa_offset 24
 22007 0004 00AF     		add	r7, sp, #0
 22008              		.cfi_offset 7, -4
 22009              	.LCFI50:
 22010              		.cfi_def_cfa_register 7
 22011 0006 7860     		str	r0, [r7, #4]
 924:../Libraries/STM32F10x_StdPeriph_Driver/src/stm32f10x_can.c ****   uint8_t errorcode=0;
 22012              		.loc 1 924 0
 22013 0008 4FF00003 		mov	r3, #0
 22014 000c FB73     		strb	r3, [r7, #15]
 925:../Libraries/STM32F10x_StdPeriph_Driver/src/stm32f10x_can.c ****   
 926:../Libraries/STM32F10x_StdPeriph_Driver/src/stm32f10x_can.c ****   /* Check the parameters */
 927:../Libraries/STM32F10x_StdPeriph_Driver/src/stm32f10x_can.c ****   assert_param(IS_CAN_ALL_PERIPH(CANx));
 928:../Libraries/STM32F10x_StdPeriph_Driver/src/stm32f10x_can.c ****   
 929:../Libraries/STM32F10x_StdPeriph_Driver/src/stm32f10x_can.c ****   /* Get the error code*/
 930:../Libraries/STM32F10x_StdPeriph_Driver/src/stm32f10x_can.c ****   errorcode = (((uint8_t)CANx->ESR) & (uint8_t)CAN_ESR_LEC);
 22015              		.loc 1 930 0
 22016 000e 7B68     		ldr	r3, [r7, #4]
 22017 0010 9B69     		ldr	r3, [r3, #24]
 22018 0012 DBB2     		uxtb	r3, r3
 22019 0014 03F07003 		and	r3, r3, #112
 22020 0018 FB73     		strb	r3, [r7, #15]
 931:../Libraries/STM32F10x_StdPeriph_Driver/src/stm32f10x_can.c ****   
 932:../Libraries/STM32F10x_StdPeriph_Driver/src/stm32f10x_can.c ****   /* Return the error code*/
 933:../Libraries/STM32F10x_StdPeriph_Driver/src/stm32f10x_can.c ****   return errorcode;
 22021              		.loc 1 933 0
 22022 001a FB7B     		ldrb	r3, [r7, #15]	@ zero_extendqisi2
 934:../Libraries/STM32F10x_StdPeriph_Driver/src/stm32f10x_can.c **** }
 22023              		.loc 1 934 0
 22024 001c 1846     		mov	r0, r3
 22025 001e 07F11407 		add	r7, r7, #20
 22026 0022 BD46     		mov	sp, r7
 22027 0024 80BC     		pop	{r7}
 22028 0026 7047     		bx	lr
 22029              		.cfi_endproc
 22030              	.LFE45:
 22032              		.section	.text.CAN_GetReceiveErrorCounter,"ax",%progbits
 22033              		.align	2
 22034              		.global	CAN_GetReceiveErrorCounter
 22035              		.thumb
 22036              		.thumb_func
 22038              	CAN_GetReceiveErrorCounter:
 22039              	.LFB46:
 935:../Libraries/STM32F10x_StdPeriph_Driver/src/stm32f10x_can.c **** /**
 936:../Libraries/STM32F10x_StdPeriph_Driver/src/stm32f10x_can.c ****   * @brief  Returns the CANx Receive Error Counter (REC).
 937:../Libraries/STM32F10x_StdPeriph_Driver/src/stm32f10x_can.c ****   * @note   In case of an error during reception, this counter is incremented 
 938:../Libraries/STM32F10x_StdPeriph_Driver/src/stm32f10x_can.c ****   *         by 1 or by 8 depending on the error condition as defined by the CAN 
 939:../Libraries/STM32F10x_StdPeriph_Driver/src/stm32f10x_can.c ****   *         standard. After every successful reception, the counter is 
 940:../Libraries/STM32F10x_StdPeriph_Driver/src/stm32f10x_can.c ****   *         decremented by 1 or reset to 120 if its value was higher than 128. 
 941:../Libraries/STM32F10x_StdPeriph_Driver/src/stm32f10x_can.c ****   *         When the counter value exceeds 127, the CAN controller enters the 
 942:../Libraries/STM32F10x_StdPeriph_Driver/src/stm32f10x_can.c ****   *         error passive state.  
 943:../Libraries/STM32F10x_StdPeriph_Driver/src/stm32f10x_can.c ****   * @param  CANx: where x can be 1 or 2 to to select the CAN peripheral.  
 944:../Libraries/STM32F10x_StdPeriph_Driver/src/stm32f10x_can.c ****   * @retval CAN Receive Error Counter. 
 945:../Libraries/STM32F10x_StdPeriph_Driver/src/stm32f10x_can.c ****   */
 946:../Libraries/STM32F10x_StdPeriph_Driver/src/stm32f10x_can.c **** uint8_t CAN_GetReceiveErrorCounter(CAN_TypeDef* CANx)
 947:../Libraries/STM32F10x_StdPeriph_Driver/src/stm32f10x_can.c **** {
 22040              		.loc 1 947 0
 22041              		.cfi_startproc
 22042              		@ args = 0, pretend = 0, frame = 16
 22043              		@ frame_needed = 1, uses_anonymous_args = 0
 22044              		@ link register save eliminated.
 22045 0000 80B4     		push	{r7}
 22046              	.LCFI51:
 22047              		.cfi_def_cfa_offset 4
 22048 0002 85B0     		sub	sp, sp, #20
 22049              	.LCFI52:
 22050              		.cfi_def_cfa_offset 24
 22051 0004 00AF     		add	r7, sp, #0
 22052              		.cfi_offset 7, -4
 22053              	.LCFI53:
 22054              		.cfi_def_cfa_register 7
 22055 0006 7860     		str	r0, [r7, #4]
 948:../Libraries/STM32F10x_StdPeriph_Driver/src/stm32f10x_can.c ****   uint8_t counter=0;
 22056              		.loc 1 948 0
 22057 0008 4FF00003 		mov	r3, #0
 22058 000c FB73     		strb	r3, [r7, #15]
 949:../Libraries/STM32F10x_StdPeriph_Driver/src/stm32f10x_can.c ****   
 950:../Libraries/STM32F10x_StdPeriph_Driver/src/stm32f10x_can.c ****   /* Check the parameters */
 951:../Libraries/STM32F10x_StdPeriph_Driver/src/stm32f10x_can.c ****   assert_param(IS_CAN_ALL_PERIPH(CANx));
 952:../Libraries/STM32F10x_StdPeriph_Driver/src/stm32f10x_can.c ****   
 953:../Libraries/STM32F10x_StdPeriph_Driver/src/stm32f10x_can.c ****   /* Get the Receive Error Counter*/
 954:../Libraries/STM32F10x_StdPeriph_Driver/src/stm32f10x_can.c ****   counter = (uint8_t)((CANx->ESR & CAN_ESR_REC)>> 24);
 22059              		.loc 1 954 0
 22060 000e 7B68     		ldr	r3, [r7, #4]
 22061 0010 9B69     		ldr	r3, [r3, #24]
 22062 0012 4FEA1363 		lsr	r3, r3, #24
 22063 0016 FB73     		strb	r3, [r7, #15]
 955:../Libraries/STM32F10x_StdPeriph_Driver/src/stm32f10x_can.c ****   
 956:../Libraries/STM32F10x_StdPeriph_Driver/src/stm32f10x_can.c ****   /* Return the Receive Error Counter*/
 957:../Libraries/STM32F10x_StdPeriph_Driver/src/stm32f10x_can.c ****   return counter;
 22064              		.loc 1 957 0
 22065 0018 FB7B     		ldrb	r3, [r7, #15]	@ zero_extendqisi2
 958:../Libraries/STM32F10x_StdPeriph_Driver/src/stm32f10x_can.c **** }
 22066              		.loc 1 958 0
 22067 001a 1846     		mov	r0, r3
 22068 001c 07F11407 		add	r7, r7, #20
 22069 0020 BD46     		mov	sp, r7
 22070 0022 80BC     		pop	{r7}
 22071 0024 7047     		bx	lr
 22072              		.cfi_endproc
 22073              	.LFE46:
 22075 0026 00BF     		.section	.text.CAN_GetLSBTransmitErrorCounter,"ax",%progbits
 22076              		.align	2
 22077              		.global	CAN_GetLSBTransmitErrorCounter
 22078              		.thumb
 22079              		.thumb_func
 22081              	CAN_GetLSBTransmitErrorCounter:
 22082              	.LFB47:
 959:../Libraries/STM32F10x_StdPeriph_Driver/src/stm32f10x_can.c **** 
 960:../Libraries/STM32F10x_StdPeriph_Driver/src/stm32f10x_can.c **** 
 961:../Libraries/STM32F10x_StdPeriph_Driver/src/stm32f10x_can.c **** /**
 962:../Libraries/STM32F10x_StdPeriph_Driver/src/stm32f10x_can.c ****   * @brief  Returns the LSB of the 9-bit CANx Transmit Error Counter(TEC).
 963:../Libraries/STM32F10x_StdPeriph_Driver/src/stm32f10x_can.c ****   * @param  CANx:   where x can be 1 or 2 to to select the CAN peripheral.  
 964:../Libraries/STM32F10x_StdPeriph_Driver/src/stm32f10x_can.c ****   * @retval LSB of the 9-bit CAN Transmit Error Counter. 
 965:../Libraries/STM32F10x_StdPeriph_Driver/src/stm32f10x_can.c ****   */
 966:../Libraries/STM32F10x_StdPeriph_Driver/src/stm32f10x_can.c **** uint8_t CAN_GetLSBTransmitErrorCounter(CAN_TypeDef* CANx)
 967:../Libraries/STM32F10x_StdPeriph_Driver/src/stm32f10x_can.c **** {
 22083              		.loc 1 967 0
 22084              		.cfi_startproc
 22085              		@ args = 0, pretend = 0, frame = 16
 22086              		@ frame_needed = 1, uses_anonymous_args = 0
 22087              		@ link register save eliminated.
 22088 0000 80B4     		push	{r7}
 22089              	.LCFI54:
 22090              		.cfi_def_cfa_offset 4
 22091 0002 85B0     		sub	sp, sp, #20
 22092              	.LCFI55:
 22093              		.cfi_def_cfa_offset 24
 22094 0004 00AF     		add	r7, sp, #0
 22095              		.cfi_offset 7, -4
 22096              	.LCFI56:
 22097              		.cfi_def_cfa_register 7
 22098 0006 7860     		str	r0, [r7, #4]
 968:../Libraries/STM32F10x_StdPeriph_Driver/src/stm32f10x_can.c ****   uint8_t counter=0;
 22099              		.loc 1 968 0
 22100 0008 4FF00003 		mov	r3, #0
 22101 000c FB73     		strb	r3, [r7, #15]
 969:../Libraries/STM32F10x_StdPeriph_Driver/src/stm32f10x_can.c ****   
 970:../Libraries/STM32F10x_StdPeriph_Driver/src/stm32f10x_can.c ****   /* Check the parameters */
 971:../Libraries/STM32F10x_StdPeriph_Driver/src/stm32f10x_can.c ****   assert_param(IS_CAN_ALL_PERIPH(CANx));
 972:../Libraries/STM32F10x_StdPeriph_Driver/src/stm32f10x_can.c ****   
 973:../Libraries/STM32F10x_StdPeriph_Driver/src/stm32f10x_can.c ****   /* Get the LSB of the 9-bit CANx Transmit Error Counter(TEC) */
 974:../Libraries/STM32F10x_StdPeriph_Driver/src/stm32f10x_can.c ****   counter = (uint8_t)((CANx->ESR & CAN_ESR_TEC)>> 16);
 22102              		.loc 1 974 0
 22103 000e 7B68     		ldr	r3, [r7, #4]
 22104 0010 9B69     		ldr	r3, [r3, #24]
 22105 0012 03F47F03 		and	r3, r3, #16711680
 22106 0016 4FEA1343 		lsr	r3, r3, #16
 22107 001a FB73     		strb	r3, [r7, #15]
 975:../Libraries/STM32F10x_StdPeriph_Driver/src/stm32f10x_can.c ****   
 976:../Libraries/STM32F10x_StdPeriph_Driver/src/stm32f10x_can.c ****   /* Return the LSB of the 9-bit CANx Transmit Error Counter(TEC) */
 977:../Libraries/STM32F10x_StdPeriph_Driver/src/stm32f10x_can.c ****   return counter;
 22108              		.loc 1 977 0
 22109 001c FB7B     		ldrb	r3, [r7, #15]	@ zero_extendqisi2
 978:../Libraries/STM32F10x_StdPeriph_Driver/src/stm32f10x_can.c **** }
 22110              		.loc 1 978 0
 22111 001e 1846     		mov	r0, r3
 22112 0020 07F11407 		add	r7, r7, #20
 22113 0024 BD46     		mov	sp, r7
 22114 0026 80BC     		pop	{r7}
 22115 0028 7047     		bx	lr
 22116              		.cfi_endproc
 22117              	.LFE47:
 22119 002a 00BF     		.section	.text.CAN_ITConfig,"ax",%progbits
 22120              		.align	2
 22121              		.global	CAN_ITConfig
 22122              		.thumb
 22123              		.thumb_func
 22125              	CAN_ITConfig:
 22126              	.LFB48:
 979:../Libraries/STM32F10x_StdPeriph_Driver/src/stm32f10x_can.c **** 
 980:../Libraries/STM32F10x_StdPeriph_Driver/src/stm32f10x_can.c **** 
 981:../Libraries/STM32F10x_StdPeriph_Driver/src/stm32f10x_can.c **** /**
 982:../Libraries/STM32F10x_StdPeriph_Driver/src/stm32f10x_can.c ****   * @brief  Enables or disables the specified CANx interrupts.
 983:../Libraries/STM32F10x_StdPeriph_Driver/src/stm32f10x_can.c ****   * @param  CANx:   where x can be 1 or 2 to to select the CAN peripheral.
 984:../Libraries/STM32F10x_StdPeriph_Driver/src/stm32f10x_can.c ****   * @param  CAN_IT: specifies the CAN interrupt sources to be enabled or disabled.
 985:../Libraries/STM32F10x_StdPeriph_Driver/src/stm32f10x_can.c ****   *                 This parameter can be: 
 986:../Libraries/STM32F10x_StdPeriph_Driver/src/stm32f10x_can.c ****   *                 - CAN_IT_TME, 
 987:../Libraries/STM32F10x_StdPeriph_Driver/src/stm32f10x_can.c ****   *                 - CAN_IT_FMP0, 
 988:../Libraries/STM32F10x_StdPeriph_Driver/src/stm32f10x_can.c ****   *                 - CAN_IT_FF0,
 989:../Libraries/STM32F10x_StdPeriph_Driver/src/stm32f10x_can.c ****   *                 - CAN_IT_FOV0, 
 990:../Libraries/STM32F10x_StdPeriph_Driver/src/stm32f10x_can.c ****   *                 - CAN_IT_FMP1, 
 991:../Libraries/STM32F10x_StdPeriph_Driver/src/stm32f10x_can.c ****   *                 - CAN_IT_FF1,
 992:../Libraries/STM32F10x_StdPeriph_Driver/src/stm32f10x_can.c ****   *                 - CAN_IT_FOV1, 
 993:../Libraries/STM32F10x_StdPeriph_Driver/src/stm32f10x_can.c ****   *                 - CAN_IT_EWG, 
 994:../Libraries/STM32F10x_StdPeriph_Driver/src/stm32f10x_can.c ****   *                 - CAN_IT_EPV,
 995:../Libraries/STM32F10x_StdPeriph_Driver/src/stm32f10x_can.c ****   *                 - CAN_IT_LEC, 
 996:../Libraries/STM32F10x_StdPeriph_Driver/src/stm32f10x_can.c ****   *                 - CAN_IT_ERR, 
 997:../Libraries/STM32F10x_StdPeriph_Driver/src/stm32f10x_can.c ****   *                 - CAN_IT_WKU or 
 998:../Libraries/STM32F10x_StdPeriph_Driver/src/stm32f10x_can.c ****   *                 - CAN_IT_SLK.
 999:../Libraries/STM32F10x_StdPeriph_Driver/src/stm32f10x_can.c ****   * @param  NewState: new state of the CAN interrupts.
1000:../Libraries/STM32F10x_StdPeriph_Driver/src/stm32f10x_can.c ****   *                   This parameter can be: ENABLE or DISABLE.
1001:../Libraries/STM32F10x_StdPeriph_Driver/src/stm32f10x_can.c ****   * @retval None.
1002:../Libraries/STM32F10x_StdPeriph_Driver/src/stm32f10x_can.c ****   */
1003:../Libraries/STM32F10x_StdPeriph_Driver/src/stm32f10x_can.c **** void CAN_ITConfig(CAN_TypeDef* CANx, uint32_t CAN_IT, FunctionalState NewState)
1004:../Libraries/STM32F10x_StdPeriph_Driver/src/stm32f10x_can.c **** {
 22127              		.loc 1 1004 0
 22128              		.cfi_startproc
 22129              		@ args = 0, pretend = 0, frame = 16
 22130              		@ frame_needed = 1, uses_anonymous_args = 0
 22131              		@ link register save eliminated.
 22132 0000 80B4     		push	{r7}
 22133              	.LCFI57:
 22134              		.cfi_def_cfa_offset 4
 22135 0002 85B0     		sub	sp, sp, #20
 22136              	.LCFI58:
 22137              		.cfi_def_cfa_offset 24
 22138 0004 00AF     		add	r7, sp, #0
 22139              		.cfi_offset 7, -4
 22140              	.LCFI59:
 22141              		.cfi_def_cfa_register 7
 22142 0006 F860     		str	r0, [r7, #12]
 22143 0008 B960     		str	r1, [r7, #8]
 22144 000a 1346     		mov	r3, r2
 22145 000c FB71     		strb	r3, [r7, #7]
1005:../Libraries/STM32F10x_StdPeriph_Driver/src/stm32f10x_can.c ****   /* Check the parameters */
1006:../Libraries/STM32F10x_StdPeriph_Driver/src/stm32f10x_can.c ****   assert_param(IS_CAN_ALL_PERIPH(CANx));
1007:../Libraries/STM32F10x_StdPeriph_Driver/src/stm32f10x_can.c ****   assert_param(IS_CAN_IT(CAN_IT));
1008:../Libraries/STM32F10x_StdPeriph_Driver/src/stm32f10x_can.c ****   assert_param(IS_FUNCTIONAL_STATE(NewState));
1009:../Libraries/STM32F10x_StdPeriph_Driver/src/stm32f10x_can.c **** 
1010:../Libraries/STM32F10x_StdPeriph_Driver/src/stm32f10x_can.c ****   if (NewState != DISABLE)
 22146              		.loc 1 1010 0
 22147 000e FB79     		ldrb	r3, [r7, #7]	@ zero_extendqisi2
 22148 0010 002B     		cmp	r3, #0
 22149 0012 06D0     		beq	.L122
1011:../Libraries/STM32F10x_StdPeriph_Driver/src/stm32f10x_can.c ****   {
1012:../Libraries/STM32F10x_StdPeriph_Driver/src/stm32f10x_can.c ****     /* Enable the selected CANx interrupt */
1013:../Libraries/STM32F10x_StdPeriph_Driver/src/stm32f10x_can.c ****     CANx->IER |= CAN_IT;
 22150              		.loc 1 1013 0
 22151 0014 FB68     		ldr	r3, [r7, #12]
 22152 0016 5A69     		ldr	r2, [r3, #20]
 22153 0018 BB68     		ldr	r3, [r7, #8]
 22154 001a 1A43     		orrs	r2, r2, r3
 22155 001c FB68     		ldr	r3, [r7, #12]
 22156 001e 5A61     		str	r2, [r3, #20]
 22157 0020 07E0     		b	.L121
 22158              	.L122:
1014:../Libraries/STM32F10x_StdPeriph_Driver/src/stm32f10x_can.c ****   }
1015:../Libraries/STM32F10x_StdPeriph_Driver/src/stm32f10x_can.c ****   else
1016:../Libraries/STM32F10x_StdPeriph_Driver/src/stm32f10x_can.c ****   {
1017:../Libraries/STM32F10x_StdPeriph_Driver/src/stm32f10x_can.c ****     /* Disable the selected CANx interrupt */
1018:../Libraries/STM32F10x_StdPeriph_Driver/src/stm32f10x_can.c ****     CANx->IER &= ~CAN_IT;
 22159              		.loc 1 1018 0
 22160 0022 FB68     		ldr	r3, [r7, #12]
 22161 0024 5A69     		ldr	r2, [r3, #20]
 22162 0026 BB68     		ldr	r3, [r7, #8]
 22163 0028 6FEA0303 		mvn	r3, r3
 22164 002c 1A40     		ands	r2, r2, r3
 22165 002e FB68     		ldr	r3, [r7, #12]
 22166 0030 5A61     		str	r2, [r3, #20]
 22167              	.L121:
1019:../Libraries/STM32F10x_StdPeriph_Driver/src/stm32f10x_can.c ****   }
1020:../Libraries/STM32F10x_StdPeriph_Driver/src/stm32f10x_can.c **** }
 22168              		.loc 1 1020 0
 22169 0032 07F11407 		add	r7, r7, #20
 22170 0036 BD46     		mov	sp, r7
 22171 0038 80BC     		pop	{r7}
 22172 003a 7047     		bx	lr
 22173              		.cfi_endproc
 22174              	.LFE48:
 22176              		.section	.text.CAN_GetFlagStatus,"ax",%progbits
 22177              		.align	2
 22178              		.global	CAN_GetFlagStatus
 22179              		.thumb
 22180              		.thumb_func
 22182              	CAN_GetFlagStatus:
 22183              	.LFB49:
1021:../Libraries/STM32F10x_StdPeriph_Driver/src/stm32f10x_can.c **** /**
1022:../Libraries/STM32F10x_StdPeriph_Driver/src/stm32f10x_can.c ****   * @brief  Checks whether the specified CAN flag is set or not.
1023:../Libraries/STM32F10x_StdPeriph_Driver/src/stm32f10x_can.c ****   * @param  CANx:     where x can be 1 or 2 to to select the CAN peripheral.
1024:../Libraries/STM32F10x_StdPeriph_Driver/src/stm32f10x_can.c ****   * @param  CAN_FLAG: specifies the flag to check.
1025:../Libraries/STM32F10x_StdPeriph_Driver/src/stm32f10x_can.c ****   *                   This parameter can be one of the following flags: 
1026:../Libraries/STM32F10x_StdPeriph_Driver/src/stm32f10x_can.c ****   *                  - CAN_FLAG_EWG
1027:../Libraries/STM32F10x_StdPeriph_Driver/src/stm32f10x_can.c ****   *                  - CAN_FLAG_EPV 
1028:../Libraries/STM32F10x_StdPeriph_Driver/src/stm32f10x_can.c ****   *                  - CAN_FLAG_BOF
1029:../Libraries/STM32F10x_StdPeriph_Driver/src/stm32f10x_can.c ****   *                  - CAN_FLAG_RQCP0
1030:../Libraries/STM32F10x_StdPeriph_Driver/src/stm32f10x_can.c ****   *                  - CAN_FLAG_RQCP1
1031:../Libraries/STM32F10x_StdPeriph_Driver/src/stm32f10x_can.c ****   *                  - CAN_FLAG_RQCP2
1032:../Libraries/STM32F10x_StdPeriph_Driver/src/stm32f10x_can.c ****   *                  - CAN_FLAG_FMP1   
1033:../Libraries/STM32F10x_StdPeriph_Driver/src/stm32f10x_can.c ****   *                  - CAN_FLAG_FF1       
1034:../Libraries/STM32F10x_StdPeriph_Driver/src/stm32f10x_can.c ****   *                  - CAN_FLAG_FOV1   
1035:../Libraries/STM32F10x_StdPeriph_Driver/src/stm32f10x_can.c ****   *                  - CAN_FLAG_FMP0   
1036:../Libraries/STM32F10x_StdPeriph_Driver/src/stm32f10x_can.c ****   *                  - CAN_FLAG_FF0       
1037:../Libraries/STM32F10x_StdPeriph_Driver/src/stm32f10x_can.c ****   *                  - CAN_FLAG_FOV0   
1038:../Libraries/STM32F10x_StdPeriph_Driver/src/stm32f10x_can.c ****   *                  - CAN_FLAG_WKU 
1039:../Libraries/STM32F10x_StdPeriph_Driver/src/stm32f10x_can.c ****   *                  - CAN_FLAG_SLAK  
1040:../Libraries/STM32F10x_StdPeriph_Driver/src/stm32f10x_can.c ****   *                  - CAN_FLAG_LEC       
1041:../Libraries/STM32F10x_StdPeriph_Driver/src/stm32f10x_can.c ****   * @retval The new state of CAN_FLAG (SET or RESET).
1042:../Libraries/STM32F10x_StdPeriph_Driver/src/stm32f10x_can.c ****   */
1043:../Libraries/STM32F10x_StdPeriph_Driver/src/stm32f10x_can.c **** FlagStatus CAN_GetFlagStatus(CAN_TypeDef* CANx, uint32_t CAN_FLAG)
1044:../Libraries/STM32F10x_StdPeriph_Driver/src/stm32f10x_can.c **** {
 22184              		.loc 1 1044 0
 22185              		.cfi_startproc
 22186              		@ args = 0, pretend = 0, frame = 16
 22187              		@ frame_needed = 1, uses_anonymous_args = 0
 22188              		@ link register save eliminated.
 22189 0000 80B4     		push	{r7}
 22190              	.LCFI60:
 22191              		.cfi_def_cfa_offset 4
 22192 0002 85B0     		sub	sp, sp, #20
 22193              	.LCFI61:
 22194              		.cfi_def_cfa_offset 24
 22195 0004 00AF     		add	r7, sp, #0
 22196              		.cfi_offset 7, -4
 22197              	.LCFI62:
 22198              		.cfi_def_cfa_register 7
 22199 0006 7860     		str	r0, [r7, #4]
 22200 0008 3960     		str	r1, [r7, #0]
1045:../Libraries/STM32F10x_StdPeriph_Driver/src/stm32f10x_can.c ****   FlagStatus bitstatus = RESET;
 22201              		.loc 1 1045 0
 22202 000a 4FF00003 		mov	r3, #0
 22203 000e FB73     		strb	r3, [r7, #15]
1046:../Libraries/STM32F10x_StdPeriph_Driver/src/stm32f10x_can.c ****   
1047:../Libraries/STM32F10x_StdPeriph_Driver/src/stm32f10x_can.c ****   /* Check the parameters */
1048:../Libraries/STM32F10x_StdPeriph_Driver/src/stm32f10x_can.c ****   assert_param(IS_CAN_ALL_PERIPH(CANx));
1049:../Libraries/STM32F10x_StdPeriph_Driver/src/stm32f10x_can.c ****   assert_param(IS_CAN_GET_FLAG(CAN_FLAG));
1050:../Libraries/STM32F10x_StdPeriph_Driver/src/stm32f10x_can.c ****   
1051:../Libraries/STM32F10x_StdPeriph_Driver/src/stm32f10x_can.c **** 
1052:../Libraries/STM32F10x_StdPeriph_Driver/src/stm32f10x_can.c ****   if((CAN_FLAG & CAN_FLAGS_ESR) != (uint32_t)RESET)
 22204              		.loc 1 1052 0
 22205 0010 3B68     		ldr	r3, [r7, #0]
 22206 0012 03F47003 		and	r3, r3, #15728640
 22207 0016 002B     		cmp	r3, #0
 22208 0018 12D0     		beq	.L125
1053:../Libraries/STM32F10x_StdPeriph_Driver/src/stm32f10x_can.c ****   { 
1054:../Libraries/STM32F10x_StdPeriph_Driver/src/stm32f10x_can.c ****     /* Check the status of the specified CAN flag */
1055:../Libraries/STM32F10x_StdPeriph_Driver/src/stm32f10x_can.c ****     if ((CANx->ESR & (CAN_FLAG & 0x000FFFFF)) != (uint32_t)RESET)
 22209              		.loc 1 1055 0
 22210 001a 7B68     		ldr	r3, [r7, #4]
 22211 001c 9A69     		ldr	r2, [r3, #24]
 22212 001e 3B68     		ldr	r3, [r7, #0]
 22213 0020 02EA0303 		and	r3, r2, r3
 22214 0024 23F07F43 		bic	r3, r3, #-16777216
 22215 0028 23F47003 		bic	r3, r3, #15728640
 22216 002c 002B     		cmp	r3, #0
 22217 002e 03D0     		beq	.L126
1056:../Libraries/STM32F10x_StdPeriph_Driver/src/stm32f10x_can.c ****     { 
1057:../Libraries/STM32F10x_StdPeriph_Driver/src/stm32f10x_can.c ****       /* CAN_FLAG is set */
1058:../Libraries/STM32F10x_StdPeriph_Driver/src/stm32f10x_can.c ****       bitstatus = SET;
 22218              		.loc 1 1058 0
 22219 0030 4FF00103 		mov	r3, #1
 22220 0034 FB73     		strb	r3, [r7, #15]
 22221 0036 5DE0     		b	.L127
 22222              	.L126:
1059:../Libraries/STM32F10x_StdPeriph_Driver/src/stm32f10x_can.c ****     }
1060:../Libraries/STM32F10x_StdPeriph_Driver/src/stm32f10x_can.c ****     else
1061:../Libraries/STM32F10x_StdPeriph_Driver/src/stm32f10x_can.c ****     { 
1062:../Libraries/STM32F10x_StdPeriph_Driver/src/stm32f10x_can.c ****       /* CAN_FLAG is reset */
1063:../Libraries/STM32F10x_StdPeriph_Driver/src/stm32f10x_can.c ****       bitstatus = RESET;
 22223              		.loc 1 1063 0
 22224 0038 4FF00003 		mov	r3, #0
 22225 003c FB73     		strb	r3, [r7, #15]
 22226 003e 59E0     		b	.L127
 22227              	.L125:
1064:../Libraries/STM32F10x_StdPeriph_Driver/src/stm32f10x_can.c ****     }
1065:../Libraries/STM32F10x_StdPeriph_Driver/src/stm32f10x_can.c ****   }
1066:../Libraries/STM32F10x_StdPeriph_Driver/src/stm32f10x_can.c ****   else if((CAN_FLAG & CAN_FLAGS_MSR) != (uint32_t)RESET)
 22228              		.loc 1 1066 0
 22229 0040 3B68     		ldr	r3, [r7, #0]
 22230 0042 03F08073 		and	r3, r3, #16777216
 22231 0046 002B     		cmp	r3, #0
 22232 0048 12D0     		beq	.L128
1067:../Libraries/STM32F10x_StdPeriph_Driver/src/stm32f10x_can.c ****   { 
1068:../Libraries/STM32F10x_StdPeriph_Driver/src/stm32f10x_can.c ****     /* Check the status of the specified CAN flag */
1069:../Libraries/STM32F10x_StdPeriph_Driver/src/stm32f10x_can.c ****     if ((CANx->MSR & (CAN_FLAG & 0x000FFFFF)) != (uint32_t)RESET)
 22233              		.loc 1 1069 0
 22234 004a 7B68     		ldr	r3, [r7, #4]
 22235 004c 5A68     		ldr	r2, [r3, #4]
 22236 004e 3B68     		ldr	r3, [r7, #0]
 22237 0050 02EA0303 		and	r3, r2, r3
 22238 0054 23F07F43 		bic	r3, r3, #-16777216
 22239 0058 23F47003 		bic	r3, r3, #15728640
 22240 005c 002B     		cmp	r3, #0
 22241 005e 03D0     		beq	.L129
1070:../Libraries/STM32F10x_StdPeriph_Driver/src/stm32f10x_can.c ****     { 
1071:../Libraries/STM32F10x_StdPeriph_Driver/src/stm32f10x_can.c ****       /* CAN_FLAG is set */
1072:../Libraries/STM32F10x_StdPeriph_Driver/src/stm32f10x_can.c ****       bitstatus = SET;
 22242              		.loc 1 1072 0
 22243 0060 4FF00103 		mov	r3, #1
 22244 0064 FB73     		strb	r3, [r7, #15]
 22245 0066 45E0     		b	.L127
 22246              	.L129:
1073:../Libraries/STM32F10x_StdPeriph_Driver/src/stm32f10x_can.c ****     }
1074:../Libraries/STM32F10x_StdPeriph_Driver/src/stm32f10x_can.c ****     else
1075:../Libraries/STM32F10x_StdPeriph_Driver/src/stm32f10x_can.c ****     { 
1076:../Libraries/STM32F10x_StdPeriph_Driver/src/stm32f10x_can.c ****       /* CAN_FLAG is reset */
1077:../Libraries/STM32F10x_StdPeriph_Driver/src/stm32f10x_can.c ****       bitstatus = RESET;
 22247              		.loc 1 1077 0
 22248 0068 4FF00003 		mov	r3, #0
 22249 006c FB73     		strb	r3, [r7, #15]
 22250 006e 41E0     		b	.L127
 22251              	.L128:
1078:../Libraries/STM32F10x_StdPeriph_Driver/src/stm32f10x_can.c ****     }
1079:../Libraries/STM32F10x_StdPeriph_Driver/src/stm32f10x_can.c ****   }
1080:../Libraries/STM32F10x_StdPeriph_Driver/src/stm32f10x_can.c ****   else if((CAN_FLAG & CAN_FLAGS_TSR) != (uint32_t)RESET)
 22252              		.loc 1 1080 0
 22253 0070 3B68     		ldr	r3, [r7, #0]
 22254 0072 03F00063 		and	r3, r3, #134217728
 22255 0076 002B     		cmp	r3, #0
 22256 0078 12D0     		beq	.L130
1081:../Libraries/STM32F10x_StdPeriph_Driver/src/stm32f10x_can.c ****   { 
1082:../Libraries/STM32F10x_StdPeriph_Driver/src/stm32f10x_can.c ****     /* Check the status of the specified CAN flag */
1083:../Libraries/STM32F10x_StdPeriph_Driver/src/stm32f10x_can.c ****     if ((CANx->TSR & (CAN_FLAG & 0x000FFFFF)) != (uint32_t)RESET)
 22257              		.loc 1 1083 0
 22258 007a 7B68     		ldr	r3, [r7, #4]
 22259 007c 9A68     		ldr	r2, [r3, #8]
 22260 007e 3B68     		ldr	r3, [r7, #0]
 22261 0080 02EA0303 		and	r3, r2, r3
 22262 0084 23F07F43 		bic	r3, r3, #-16777216
 22263 0088 23F47003 		bic	r3, r3, #15728640
 22264 008c 002B     		cmp	r3, #0
 22265 008e 03D0     		beq	.L131
1084:../Libraries/STM32F10x_StdPeriph_Driver/src/stm32f10x_can.c ****     { 
1085:../Libraries/STM32F10x_StdPeriph_Driver/src/stm32f10x_can.c ****       /* CAN_FLAG is set */
1086:../Libraries/STM32F10x_StdPeriph_Driver/src/stm32f10x_can.c ****       bitstatus = SET;
 22266              		.loc 1 1086 0
 22267 0090 4FF00103 		mov	r3, #1
 22268 0094 FB73     		strb	r3, [r7, #15]
 22269 0096 2DE0     		b	.L127
 22270              	.L131:
1087:../Libraries/STM32F10x_StdPeriph_Driver/src/stm32f10x_can.c ****     }
1088:../Libraries/STM32F10x_StdPeriph_Driver/src/stm32f10x_can.c ****     else
1089:../Libraries/STM32F10x_StdPeriph_Driver/src/stm32f10x_can.c ****     { 
1090:../Libraries/STM32F10x_StdPeriph_Driver/src/stm32f10x_can.c ****       /* CAN_FLAG is reset */
1091:../Libraries/STM32F10x_StdPeriph_Driver/src/stm32f10x_can.c ****       bitstatus = RESET;
 22271              		.loc 1 1091 0
 22272 0098 4FF00003 		mov	r3, #0
 22273 009c FB73     		strb	r3, [r7, #15]
 22274 009e 29E0     		b	.L127
 22275              	.L130:
1092:../Libraries/STM32F10x_StdPeriph_Driver/src/stm32f10x_can.c ****     }
1093:../Libraries/STM32F10x_StdPeriph_Driver/src/stm32f10x_can.c ****   }
1094:../Libraries/STM32F10x_StdPeriph_Driver/src/stm32f10x_can.c ****   else if((CAN_FLAG & CAN_FLAGS_RF0R) != (uint32_t)RESET)
 22276              		.loc 1 1094 0
 22277 00a0 3B68     		ldr	r3, [r7, #0]
 22278 00a2 03F00073 		and	r3, r3, #33554432
 22279 00a6 002B     		cmp	r3, #0
 22280 00a8 12D0     		beq	.L132
1095:../Libraries/STM32F10x_StdPeriph_Driver/src/stm32f10x_can.c ****   { 
1096:../Libraries/STM32F10x_StdPeriph_Driver/src/stm32f10x_can.c ****     /* Check the status of the specified CAN flag */
1097:../Libraries/STM32F10x_StdPeriph_Driver/src/stm32f10x_can.c ****     if ((CANx->RF0R & (CAN_FLAG & 0x000FFFFF)) != (uint32_t)RESET)
 22281              		.loc 1 1097 0
 22282 00aa 7B68     		ldr	r3, [r7, #4]
 22283 00ac DA68     		ldr	r2, [r3, #12]
 22284 00ae 3B68     		ldr	r3, [r7, #0]
 22285 00b0 02EA0303 		and	r3, r2, r3
 22286 00b4 23F07F43 		bic	r3, r3, #-16777216
 22287 00b8 23F47003 		bic	r3, r3, #15728640
 22288 00bc 002B     		cmp	r3, #0
 22289 00be 03D0     		beq	.L133
1098:../Libraries/STM32F10x_StdPeriph_Driver/src/stm32f10x_can.c ****     { 
1099:../Libraries/STM32F10x_StdPeriph_Driver/src/stm32f10x_can.c ****       /* CAN_FLAG is set */
1100:../Libraries/STM32F10x_StdPeriph_Driver/src/stm32f10x_can.c ****       bitstatus = SET;
 22290              		.loc 1 1100 0
 22291 00c0 4FF00103 		mov	r3, #1
 22292 00c4 FB73     		strb	r3, [r7, #15]
 22293 00c6 15E0     		b	.L127
 22294              	.L133:
1101:../Libraries/STM32F10x_StdPeriph_Driver/src/stm32f10x_can.c ****     }
1102:../Libraries/STM32F10x_StdPeriph_Driver/src/stm32f10x_can.c ****     else
1103:../Libraries/STM32F10x_StdPeriph_Driver/src/stm32f10x_can.c ****     { 
1104:../Libraries/STM32F10x_StdPeriph_Driver/src/stm32f10x_can.c ****       /* CAN_FLAG is reset */
1105:../Libraries/STM32F10x_StdPeriph_Driver/src/stm32f10x_can.c ****       bitstatus = RESET;
 22295              		.loc 1 1105 0
 22296 00c8 4FF00003 		mov	r3, #0
 22297 00cc FB73     		strb	r3, [r7, #15]
 22298 00ce 11E0     		b	.L127
 22299              	.L132:
1106:../Libraries/STM32F10x_StdPeriph_Driver/src/stm32f10x_can.c ****     }
1107:../Libraries/STM32F10x_StdPeriph_Driver/src/stm32f10x_can.c ****   }
1108:../Libraries/STM32F10x_StdPeriph_Driver/src/stm32f10x_can.c ****   else /* If(CAN_FLAG & CAN_FLAGS_RF1R != (uint32_t)RESET) */
1109:../Libraries/STM32F10x_StdPeriph_Driver/src/stm32f10x_can.c ****   { 
1110:../Libraries/STM32F10x_StdPeriph_Driver/src/stm32f10x_can.c ****     /* Check the status of the specified CAN flag */
1111:../Libraries/STM32F10x_StdPeriph_Driver/src/stm32f10x_can.c ****     if ((uint32_t)(CANx->RF1R & (CAN_FLAG & 0x000FFFFF)) != (uint32_t)RESET)
 22300              		.loc 1 1111 0
 22301 00d0 7B68     		ldr	r3, [r7, #4]
 22302 00d2 1A69     		ldr	r2, [r3, #16]
 22303 00d4 3B68     		ldr	r3, [r7, #0]
 22304 00d6 02EA0303 		and	r3, r2, r3
 22305 00da 23F07F43 		bic	r3, r3, #-16777216
 22306 00de 23F47003 		bic	r3, r3, #15728640
 22307 00e2 002B     		cmp	r3, #0
 22308 00e4 03D0     		beq	.L134
1112:../Libraries/STM32F10x_StdPeriph_Driver/src/stm32f10x_can.c ****     { 
1113:../Libraries/STM32F10x_StdPeriph_Driver/src/stm32f10x_can.c ****       /* CAN_FLAG is set */
1114:../Libraries/STM32F10x_StdPeriph_Driver/src/stm32f10x_can.c ****       bitstatus = SET;
 22309              		.loc 1 1114 0
 22310 00e6 4FF00103 		mov	r3, #1
 22311 00ea FB73     		strb	r3, [r7, #15]
 22312 00ec 02E0     		b	.L127
 22313              	.L134:
1115:../Libraries/STM32F10x_StdPeriph_Driver/src/stm32f10x_can.c ****     }
1116:../Libraries/STM32F10x_StdPeriph_Driver/src/stm32f10x_can.c ****     else
1117:../Libraries/STM32F10x_StdPeriph_Driver/src/stm32f10x_can.c ****     { 
1118:../Libraries/STM32F10x_StdPeriph_Driver/src/stm32f10x_can.c ****       /* CAN_FLAG is reset */
1119:../Libraries/STM32F10x_StdPeriph_Driver/src/stm32f10x_can.c ****       bitstatus = RESET;
 22314              		.loc 1 1119 0
 22315 00ee 4FF00003 		mov	r3, #0
 22316 00f2 FB73     		strb	r3, [r7, #15]
 22317              	.L127:
1120:../Libraries/STM32F10x_StdPeriph_Driver/src/stm32f10x_can.c ****     }
1121:../Libraries/STM32F10x_StdPeriph_Driver/src/stm32f10x_can.c ****   }
1122:../Libraries/STM32F10x_StdPeriph_Driver/src/stm32f10x_can.c ****   /* Return the CAN_FLAG status */
1123:../Libraries/STM32F10x_StdPeriph_Driver/src/stm32f10x_can.c ****   return  bitstatus;
 22318              		.loc 1 1123 0
 22319 00f4 FB7B     		ldrb	r3, [r7, #15]	@ zero_extendqisi2
1124:../Libraries/STM32F10x_StdPeriph_Driver/src/stm32f10x_can.c **** }
 22320              		.loc 1 1124 0
 22321 00f6 1846     		mov	r0, r3
 22322 00f8 07F11407 		add	r7, r7, #20
 22323 00fc BD46     		mov	sp, r7
 22324 00fe 80BC     		pop	{r7}
 22325 0100 7047     		bx	lr
 22326              		.cfi_endproc
 22327              	.LFE49:
 22329 0102 00BF     		.section	.text.CAN_ClearFlag,"ax",%progbits
 22330              		.align	2
 22331              		.global	CAN_ClearFlag
 22332              		.thumb
 22333              		.thumb_func
 22335              	CAN_ClearFlag:
 22336              	.LFB50:
1125:../Libraries/STM32F10x_StdPeriph_Driver/src/stm32f10x_can.c **** 
1126:../Libraries/STM32F10x_StdPeriph_Driver/src/stm32f10x_can.c **** /**
1127:../Libraries/STM32F10x_StdPeriph_Driver/src/stm32f10x_can.c ****   * @brief  Clears the CAN's pending flags.
1128:../Libraries/STM32F10x_StdPeriph_Driver/src/stm32f10x_can.c ****   * @param  CANx:     where x can be 1 or 2 to to select the CAN peripheral.
1129:../Libraries/STM32F10x_StdPeriph_Driver/src/stm32f10x_can.c ****   * @param  CAN_FLAG: specifies the flag to clear.
1130:../Libraries/STM32F10x_StdPeriph_Driver/src/stm32f10x_can.c ****   *                   This parameter can be one of the following flags: 
1131:../Libraries/STM32F10x_StdPeriph_Driver/src/stm32f10x_can.c ****   *                    - CAN_FLAG_RQCP0
1132:../Libraries/STM32F10x_StdPeriph_Driver/src/stm32f10x_can.c ****   *                    - CAN_FLAG_RQCP1
1133:../Libraries/STM32F10x_StdPeriph_Driver/src/stm32f10x_can.c ****   *                    - CAN_FLAG_RQCP2
1134:../Libraries/STM32F10x_StdPeriph_Driver/src/stm32f10x_can.c ****   *                    - CAN_FLAG_FF1       
1135:../Libraries/STM32F10x_StdPeriph_Driver/src/stm32f10x_can.c ****   *                    - CAN_FLAG_FOV1   
1136:../Libraries/STM32F10x_StdPeriph_Driver/src/stm32f10x_can.c ****   *                    - CAN_FLAG_FF0       
1137:../Libraries/STM32F10x_StdPeriph_Driver/src/stm32f10x_can.c ****   *                    - CAN_FLAG_FOV0   
1138:../Libraries/STM32F10x_StdPeriph_Driver/src/stm32f10x_can.c ****   *                    - CAN_FLAG_WKU   
1139:../Libraries/STM32F10x_StdPeriph_Driver/src/stm32f10x_can.c ****   *                    - CAN_FLAG_SLAK    
1140:../Libraries/STM32F10x_StdPeriph_Driver/src/stm32f10x_can.c ****   *                    - CAN_FLAG_LEC       
1141:../Libraries/STM32F10x_StdPeriph_Driver/src/stm32f10x_can.c ****   * @retval None.
1142:../Libraries/STM32F10x_StdPeriph_Driver/src/stm32f10x_can.c ****   */
1143:../Libraries/STM32F10x_StdPeriph_Driver/src/stm32f10x_can.c **** void CAN_ClearFlag(CAN_TypeDef* CANx, uint32_t CAN_FLAG)
1144:../Libraries/STM32F10x_StdPeriph_Driver/src/stm32f10x_can.c **** {
 22337              		.loc 1 1144 0
 22338              		.cfi_startproc
 22339              		@ args = 0, pretend = 0, frame = 16
 22340              		@ frame_needed = 1, uses_anonymous_args = 0
 22341              		@ link register save eliminated.
 22342 0000 80B4     		push	{r7}
 22343              	.LCFI63:
 22344              		.cfi_def_cfa_offset 4
 22345 0002 85B0     		sub	sp, sp, #20
 22346              	.LCFI64:
 22347              		.cfi_def_cfa_offset 24
 22348 0004 00AF     		add	r7, sp, #0
 22349              		.cfi_offset 7, -4
 22350              	.LCFI65:
 22351              		.cfi_def_cfa_register 7
 22352 0006 7860     		str	r0, [r7, #4]
 22353 0008 3960     		str	r1, [r7, #0]
1145:../Libraries/STM32F10x_StdPeriph_Driver/src/stm32f10x_can.c ****   uint32_t flagtmp=0;
 22354              		.loc 1 1145 0
 22355 000a 4FF00003 		mov	r3, #0
 22356 000e FB60     		str	r3, [r7, #12]
1146:../Libraries/STM32F10x_StdPeriph_Driver/src/stm32f10x_can.c ****   /* Check the parameters */
1147:../Libraries/STM32F10x_StdPeriph_Driver/src/stm32f10x_can.c ****   assert_param(IS_CAN_ALL_PERIPH(CANx));
1148:../Libraries/STM32F10x_StdPeriph_Driver/src/stm32f10x_can.c ****   assert_param(IS_CAN_CLEAR_FLAG(CAN_FLAG));
1149:../Libraries/STM32F10x_StdPeriph_Driver/src/stm32f10x_can.c ****   
1150:../Libraries/STM32F10x_StdPeriph_Driver/src/stm32f10x_can.c ****   if (CAN_FLAG == CAN_FLAG_LEC) /* ESR register */
 22357              		.loc 1 1150 0
 22358 0010 3A68     		ldr	r2, [r7, #0]
 22359 0012 184B     		ldr	r3, .L141
 22360 0014 9A42     		cmp	r2, r3
 22361 0016 04D1     		bne	.L136
1151:../Libraries/STM32F10x_StdPeriph_Driver/src/stm32f10x_can.c ****   {
1152:../Libraries/STM32F10x_StdPeriph_Driver/src/stm32f10x_can.c ****     /* Clear the selected CAN flags */
1153:../Libraries/STM32F10x_StdPeriph_Driver/src/stm32f10x_can.c ****     CANx->ESR = (uint32_t)RESET;
 22362              		.loc 1 1153 0
 22363 0018 7B68     		ldr	r3, [r7, #4]
 22364 001a 4FF00002 		mov	r2, #0
 22365 001e 9A61     		str	r2, [r3, #24]
 22366 0020 23E0     		b	.L135
 22367              	.L136:
1154:../Libraries/STM32F10x_StdPeriph_Driver/src/stm32f10x_can.c ****   }
1155:../Libraries/STM32F10x_StdPeriph_Driver/src/stm32f10x_can.c ****   else /* MSR or TSR or RF0R or RF1R */
1156:../Libraries/STM32F10x_StdPeriph_Driver/src/stm32f10x_can.c ****   {
1157:../Libraries/STM32F10x_StdPeriph_Driver/src/stm32f10x_can.c ****     flagtmp = CAN_FLAG & 0x000FFFFF;
 22368              		.loc 1 1157 0
 22369 0022 3B68     		ldr	r3, [r7, #0]
 22370 0024 23F07F43 		bic	r3, r3, #-16777216
 22371 0028 23F47003 		bic	r3, r3, #15728640
 22372 002c FB60     		str	r3, [r7, #12]
1158:../Libraries/STM32F10x_StdPeriph_Driver/src/stm32f10x_can.c **** 
1159:../Libraries/STM32F10x_StdPeriph_Driver/src/stm32f10x_can.c ****     if ((CAN_FLAG & CAN_FLAGS_RF0R)!=(uint32_t)RESET)
 22373              		.loc 1 1159 0
 22374 002e 3B68     		ldr	r3, [r7, #0]
 22375 0030 03F00073 		and	r3, r3, #33554432
 22376 0034 002B     		cmp	r3, #0
 22377 0036 03D0     		beq	.L138
1160:../Libraries/STM32F10x_StdPeriph_Driver/src/stm32f10x_can.c ****     {
1161:../Libraries/STM32F10x_StdPeriph_Driver/src/stm32f10x_can.c ****       /* Receive Flags */
1162:../Libraries/STM32F10x_StdPeriph_Driver/src/stm32f10x_can.c ****       CANx->RF0R = (uint32_t)(flagtmp);
 22378              		.loc 1 1162 0
 22379 0038 7B68     		ldr	r3, [r7, #4]
 22380 003a FA68     		ldr	r2, [r7, #12]
 22381 003c DA60     		str	r2, [r3, #12]
 22382 003e 14E0     		b	.L135
 22383              	.L138:
1163:../Libraries/STM32F10x_StdPeriph_Driver/src/stm32f10x_can.c ****     }
1164:../Libraries/STM32F10x_StdPeriph_Driver/src/stm32f10x_can.c ****     else if ((CAN_FLAG & CAN_FLAGS_RF1R)!=(uint32_t)RESET)
 22384              		.loc 1 1164 0
 22385 0040 3B68     		ldr	r3, [r7, #0]
 22386 0042 03F08063 		and	r3, r3, #67108864
 22387 0046 002B     		cmp	r3, #0
 22388 0048 03D0     		beq	.L139
1165:../Libraries/STM32F10x_StdPeriph_Driver/src/stm32f10x_can.c ****     {
1166:../Libraries/STM32F10x_StdPeriph_Driver/src/stm32f10x_can.c ****       /* Receive Flags */
1167:../Libraries/STM32F10x_StdPeriph_Driver/src/stm32f10x_can.c ****       CANx->RF1R = (uint32_t)(flagtmp);
 22389              		.loc 1 1167 0
 22390 004a 7B68     		ldr	r3, [r7, #4]
 22391 004c FA68     		ldr	r2, [r7, #12]
 22392 004e 1A61     		str	r2, [r3, #16]
 22393 0050 0BE0     		b	.L135
 22394              	.L139:
1168:../Libraries/STM32F10x_StdPeriph_Driver/src/stm32f10x_can.c ****     }
1169:../Libraries/STM32F10x_StdPeriph_Driver/src/stm32f10x_can.c ****     else if ((CAN_FLAG & CAN_FLAGS_TSR)!=(uint32_t)RESET)
 22395              		.loc 1 1169 0
 22396 0052 3B68     		ldr	r3, [r7, #0]
 22397 0054 03F00063 		and	r3, r3, #134217728
 22398 0058 002B     		cmp	r3, #0
 22399 005a 03D0     		beq	.L140
1170:../Libraries/STM32F10x_StdPeriph_Driver/src/stm32f10x_can.c ****     {
1171:../Libraries/STM32F10x_StdPeriph_Driver/src/stm32f10x_can.c ****       /* Transmit Flags */
1172:../Libraries/STM32F10x_StdPeriph_Driver/src/stm32f10x_can.c ****       CANx->TSR = (uint32_t)(flagtmp);
 22400              		.loc 1 1172 0
 22401 005c 7B68     		ldr	r3, [r7, #4]
 22402 005e FA68     		ldr	r2, [r7, #12]
 22403 0060 9A60     		str	r2, [r3, #8]
 22404 0062 02E0     		b	.L135
 22405              	.L140:
1173:../Libraries/STM32F10x_StdPeriph_Driver/src/stm32f10x_can.c ****     }
1174:../Libraries/STM32F10x_StdPeriph_Driver/src/stm32f10x_can.c ****     else /* If((CAN_FLAG & CAN_FLAGS_MSR)!=(uint32_t)RESET) */
1175:../Libraries/STM32F10x_StdPeriph_Driver/src/stm32f10x_can.c ****     {
1176:../Libraries/STM32F10x_StdPeriph_Driver/src/stm32f10x_can.c ****       /* Operating mode Flags */
1177:../Libraries/STM32F10x_StdPeriph_Driver/src/stm32f10x_can.c ****       CANx->MSR = (uint32_t)(flagtmp);
 22406              		.loc 1 1177 0
 22407 0064 7B68     		ldr	r3, [r7, #4]
 22408 0066 FA68     		ldr	r2, [r7, #12]
 22409 0068 5A60     		str	r2, [r3, #4]
 22410              	.L135:
1178:../Libraries/STM32F10x_StdPeriph_Driver/src/stm32f10x_can.c ****     }
1179:../Libraries/STM32F10x_StdPeriph_Driver/src/stm32f10x_can.c ****   }
1180:../Libraries/STM32F10x_StdPeriph_Driver/src/stm32f10x_can.c **** }
 22411              		.loc 1 1180 0
 22412 006a 07F11407 		add	r7, r7, #20
 22413 006e BD46     		mov	sp, r7
 22414 0070 80BC     		pop	{r7}
 22415 0072 7047     		bx	lr
 22416              	.L142:
 22417              		.align	2
 22418              	.L141:
 22419 0074 7000F030 		.word	821035120
 22420              		.cfi_endproc
 22421              	.LFE50:
 22423              		.section	.text.CAN_GetITStatus,"ax",%progbits
 22424              		.align	2
 22425              		.global	CAN_GetITStatus
 22426              		.thumb
 22427              		.thumb_func
 22429              	CAN_GetITStatus:
 22430              	.LFB51:
1181:../Libraries/STM32F10x_StdPeriph_Driver/src/stm32f10x_can.c **** 
1182:../Libraries/STM32F10x_StdPeriph_Driver/src/stm32f10x_can.c **** /**
1183:../Libraries/STM32F10x_StdPeriph_Driver/src/stm32f10x_can.c ****   * @brief  Checks whether the specified CANx interrupt has occurred or not.
1184:../Libraries/STM32F10x_StdPeriph_Driver/src/stm32f10x_can.c ****   * @param  CANx:    where x can be 1 or 2 to to select the CAN peripheral.
1185:../Libraries/STM32F10x_StdPeriph_Driver/src/stm32f10x_can.c ****   * @param  CAN_IT:  specifies the CAN interrupt source to check.
1186:../Libraries/STM32F10x_StdPeriph_Driver/src/stm32f10x_can.c ****   *                  This parameter can be one of the following flags: 
1187:../Libraries/STM32F10x_StdPeriph_Driver/src/stm32f10x_can.c ****   *                 -  CAN_IT_TME               
1188:../Libraries/STM32F10x_StdPeriph_Driver/src/stm32f10x_can.c ****   *                 -  CAN_IT_FMP0              
1189:../Libraries/STM32F10x_StdPeriph_Driver/src/stm32f10x_can.c ****   *                 -  CAN_IT_FF0               
1190:../Libraries/STM32F10x_StdPeriph_Driver/src/stm32f10x_can.c ****   *                 -  CAN_IT_FOV0              
1191:../Libraries/STM32F10x_StdPeriph_Driver/src/stm32f10x_can.c ****   *                 -  CAN_IT_FMP1              
1192:../Libraries/STM32F10x_StdPeriph_Driver/src/stm32f10x_can.c ****   *                 -  CAN_IT_FF1               
1193:../Libraries/STM32F10x_StdPeriph_Driver/src/stm32f10x_can.c ****   *                 -  CAN_IT_FOV1              
1194:../Libraries/STM32F10x_StdPeriph_Driver/src/stm32f10x_can.c ****   *                 -  CAN_IT_WKU  
1195:../Libraries/STM32F10x_StdPeriph_Driver/src/stm32f10x_can.c ****   *                 -  CAN_IT_SLK  
1196:../Libraries/STM32F10x_StdPeriph_Driver/src/stm32f10x_can.c ****   *                 -  CAN_IT_EWG    
1197:../Libraries/STM32F10x_StdPeriph_Driver/src/stm32f10x_can.c ****   *                 -  CAN_IT_EPV    
1198:../Libraries/STM32F10x_StdPeriph_Driver/src/stm32f10x_can.c ****   *                 -  CAN_IT_BOF    
1199:../Libraries/STM32F10x_StdPeriph_Driver/src/stm32f10x_can.c ****   *                 -  CAN_IT_LEC    
1200:../Libraries/STM32F10x_StdPeriph_Driver/src/stm32f10x_can.c ****   *                 -  CAN_IT_ERR 
1201:../Libraries/STM32F10x_StdPeriph_Driver/src/stm32f10x_can.c ****   * @retval The current state of CAN_IT (SET or RESET).
1202:../Libraries/STM32F10x_StdPeriph_Driver/src/stm32f10x_can.c ****   */
1203:../Libraries/STM32F10x_StdPeriph_Driver/src/stm32f10x_can.c **** ITStatus CAN_GetITStatus(CAN_TypeDef* CANx, uint32_t CAN_IT)
1204:../Libraries/STM32F10x_StdPeriph_Driver/src/stm32f10x_can.c **** {
 22431              		.loc 1 1204 0
 22432              		.cfi_startproc
 22433              		@ args = 0, pretend = 0, frame = 16
 22434              		@ frame_needed = 1, uses_anonymous_args = 0
 22435 0000 80B5     		push	{r7, lr}
 22436              	.LCFI66:
 22437              		.cfi_def_cfa_offset 8
 22438 0002 84B0     		sub	sp, sp, #16
 22439              	.LCFI67:
 22440              		.cfi_def_cfa_offset 24
 22441 0004 00AF     		add	r7, sp, #0
 22442              		.cfi_offset 14, -4
 22443              		.cfi_offset 7, -8
 22444              	.LCFI68:
 22445              		.cfi_def_cfa_register 7
 22446 0006 7860     		str	r0, [r7, #4]
 22447 0008 3960     		str	r1, [r7, #0]
1205:../Libraries/STM32F10x_StdPeriph_Driver/src/stm32f10x_can.c ****   ITStatus itstatus = RESET;
 22448              		.loc 1 1205 0
 22449 000a 4FF00003 		mov	r3, #0
 22450 000e FB73     		strb	r3, [r7, #15]
1206:../Libraries/STM32F10x_StdPeriph_Driver/src/stm32f10x_can.c ****   /* Check the parameters */
1207:../Libraries/STM32F10x_StdPeriph_Driver/src/stm32f10x_can.c ****   assert_param(IS_CAN_ALL_PERIPH(CANx));
1208:../Libraries/STM32F10x_StdPeriph_Driver/src/stm32f10x_can.c ****   assert_param(IS_CAN_IT(CAN_IT));
1209:../Libraries/STM32F10x_StdPeriph_Driver/src/stm32f10x_can.c ****   
1210:../Libraries/STM32F10x_StdPeriph_Driver/src/stm32f10x_can.c ****   /* check the enable interrupt bit */
1211:../Libraries/STM32F10x_StdPeriph_Driver/src/stm32f10x_can.c ****  if((CANx->IER & CAN_IT) != RESET)
 22451              		.loc 1 1211 0
 22452 0010 7B68     		ldr	r3, [r7, #4]
 22453 0012 5A69     		ldr	r2, [r3, #20]
 22454 0014 3B68     		ldr	r3, [r7, #0]
 22455 0016 02EA0303 		and	r3, r2, r3
 22456 001a 002B     		cmp	r3, #0
 22457 001c 00F0C180 		beq	.L144
1212:../Libraries/STM32F10x_StdPeriph_Driver/src/stm32f10x_can.c ****  {
1213:../Libraries/STM32F10x_StdPeriph_Driver/src/stm32f10x_can.c ****    /* in case the Interrupt is enabled, .... */
1214:../Libraries/STM32F10x_StdPeriph_Driver/src/stm32f10x_can.c ****     switch (CAN_IT)
 22458              		.loc 1 1214 0
 22459 0020 3B68     		ldr	r3, [r7, #0]
 22460 0022 402B     		cmp	r3, #64
 22461 0024 68D0     		beq	.L152
 22462 0026 402B     		cmp	r3, #64
 22463 0028 0FD8     		bhi	.L160
 22464 002a 042B     		cmp	r3, #4
 22465 002c 3CD0     		beq	.L148
 22466 002e 042B     		cmp	r3, #4
 22467 0030 04D8     		bhi	.L161
 22468 0032 012B     		cmp	r3, #1
 22469 0034 25D0     		beq	.L146
 22470 0036 022B     		cmp	r3, #2
 22471 0038 2CD0     		beq	.L147
 22472 003a AEE0     		b	.L145
 22473              	.L161:
 22474 003c 102B     		cmp	r3, #16
 22475 003e 47D0     		beq	.L150
 22476 0040 202B     		cmp	r3, #32
 22477 0042 4FD0     		beq	.L151
 22478 0044 082B     		cmp	r3, #8
 22479 0046 39D0     		beq	.L149
 22480 0048 A7E0     		b	.L145
 22481              	.L160:
 22482 004a B3F5006F 		cmp	r3, #2048
 22483 004e 00F08F80 		beq	.L156
 22484 0052 B3F5006F 		cmp	r3, #2048
 22485 0056 09D8     		bhi	.L162
 22486 0058 B3F5007F 		cmp	r3, #512
 22487 005c 74D0     		beq	.L154
 22488 005e B3F5806F 		cmp	r3, #1024
 22489 0062 7BD0     		beq	.L155
 22490 0064 B3F5807F 		cmp	r3, #256
 22491 0068 64D0     		beq	.L153
 22492 006a 96E0     		b	.L145
 22493              	.L162:
 22494 006c B3F5803F 		cmp	r3, #65536
 22495 0070 4CD0     		beq	.L158
 22496 0072 B3F5003F 		cmp	r3, #131072
 22497 0076 53D0     		beq	.L159
 22498 0078 B3F5004F 		cmp	r3, #32768
 22499 007c 00F08280 		beq	.L157
 22500 0080 8BE0     		b	.L145
 22501              	.L146:
1215:../Libraries/STM32F10x_StdPeriph_Driver/src/stm32f10x_can.c ****     {
1216:../Libraries/STM32F10x_StdPeriph_Driver/src/stm32f10x_can.c ****       case CAN_IT_TME:
1217:../Libraries/STM32F10x_StdPeriph_Driver/src/stm32f10x_can.c ****                /* Check CAN_TSR_RQCPx bits */
1218:../Libraries/STM32F10x_StdPeriph_Driver/src/stm32f10x_can.c **** 	             itstatus = CheckITStatus(CANx->TSR, CAN_TSR_RQCP0|CAN_TSR_RQCP1|CAN_TSR_RQCP2);  
 22502              		.loc 1 1218 0
 22503 0082 7B68     		ldr	r3, [r7, #4]
 22504 0084 9B68     		ldr	r3, [r3, #8]
 22505 0086 1846     		mov	r0, r3
 22506 0088 4A49     		ldr	r1, .L165
 22507 008a FFF7FEFF 		bl	CheckITStatus
 22508 008e 0346     		mov	r3, r0
 22509 0090 FB73     		strb	r3, [r7, #15]
1219:../Libraries/STM32F10x_StdPeriph_Driver/src/stm32f10x_can.c **** 	      break;
 22510              		.loc 1 1219 0
 22511 0092 89E0     		b	.L164
 22512              	.L147:
1220:../Libraries/STM32F10x_StdPeriph_Driver/src/stm32f10x_can.c ****       case CAN_IT_FMP0:
1221:../Libraries/STM32F10x_StdPeriph_Driver/src/stm32f10x_can.c ****                /* Check CAN_RF0R_FMP0 bit */
1222:../Libraries/STM32F10x_StdPeriph_Driver/src/stm32f10x_can.c **** 	             itstatus = CheckITStatus(CANx->RF0R, CAN_RF0R_FMP0);  
 22513              		.loc 1 1222 0
 22514 0094 7B68     		ldr	r3, [r7, #4]
 22515 0096 DB68     		ldr	r3, [r3, #12]
 22516 0098 1846     		mov	r0, r3
 22517 009a 4FF00301 		mov	r1, #3
 22518 009e FFF7FEFF 		bl	CheckITStatus
 22519 00a2 0346     		mov	r3, r0
 22520 00a4 FB73     		strb	r3, [r7, #15]
1223:../Libraries/STM32F10x_StdPeriph_Driver/src/stm32f10x_can.c **** 	      break;
 22521              		.loc 1 1223 0
 22522 00a6 7FE0     		b	.L164
 22523              	.L148:
1224:../Libraries/STM32F10x_StdPeriph_Driver/src/stm32f10x_can.c ****       case CAN_IT_FF0:
1225:../Libraries/STM32F10x_StdPeriph_Driver/src/stm32f10x_can.c ****                /* Check CAN_RF0R_FULL0 bit */
1226:../Libraries/STM32F10x_StdPeriph_Driver/src/stm32f10x_can.c ****                itstatus = CheckITStatus(CANx->RF0R, CAN_RF0R_FULL0);  
 22524              		.loc 1 1226 0
 22525 00a8 7B68     		ldr	r3, [r7, #4]
 22526 00aa DB68     		ldr	r3, [r3, #12]
 22527 00ac 1846     		mov	r0, r3
 22528 00ae 4FF00801 		mov	r1, #8
 22529 00b2 FFF7FEFF 		bl	CheckITStatus
 22530 00b6 0346     		mov	r3, r0
 22531 00b8 FB73     		strb	r3, [r7, #15]
1227:../Libraries/STM32F10x_StdPeriph_Driver/src/stm32f10x_can.c **** 	      break;
 22532              		.loc 1 1227 0
 22533 00ba 75E0     		b	.L164
 22534              	.L149:
1228:../Libraries/STM32F10x_StdPeriph_Driver/src/stm32f10x_can.c ****       case CAN_IT_FOV0:
1229:../Libraries/STM32F10x_StdPeriph_Driver/src/stm32f10x_can.c ****                /* Check CAN_RF0R_FOVR0 bit */
1230:../Libraries/STM32F10x_StdPeriph_Driver/src/stm32f10x_can.c ****                itstatus = CheckITStatus(CANx->RF0R, CAN_RF0R_FOVR0);  
 22535              		.loc 1 1230 0
 22536 00bc 7B68     		ldr	r3, [r7, #4]
 22537 00be DB68     		ldr	r3, [r3, #12]
 22538 00c0 1846     		mov	r0, r3
 22539 00c2 4FF01001 		mov	r1, #16
 22540 00c6 FFF7FEFF 		bl	CheckITStatus
 22541 00ca 0346     		mov	r3, r0
 22542 00cc FB73     		strb	r3, [r7, #15]
1231:../Libraries/STM32F10x_StdPeriph_Driver/src/stm32f10x_can.c **** 	      break;
 22543              		.loc 1 1231 0
 22544 00ce 6BE0     		b	.L164
 22545              	.L150:
1232:../Libraries/STM32F10x_StdPeriph_Driver/src/stm32f10x_can.c ****       case CAN_IT_FMP1:
1233:../Libraries/STM32F10x_StdPeriph_Driver/src/stm32f10x_can.c ****                /* Check CAN_RF1R_FMP1 bit */
1234:../Libraries/STM32F10x_StdPeriph_Driver/src/stm32f10x_can.c ****                itstatus = CheckITStatus(CANx->RF1R, CAN_RF1R_FMP1);  
 22546              		.loc 1 1234 0
 22547 00d0 7B68     		ldr	r3, [r7, #4]
 22548 00d2 1B69     		ldr	r3, [r3, #16]
 22549 00d4 1846     		mov	r0, r3
 22550 00d6 4FF00301 		mov	r1, #3
 22551 00da FFF7FEFF 		bl	CheckITStatus
 22552 00de 0346     		mov	r3, r0
 22553 00e0 FB73     		strb	r3, [r7, #15]
1235:../Libraries/STM32F10x_StdPeriph_Driver/src/stm32f10x_can.c **** 	      break;
 22554              		.loc 1 1235 0
 22555 00e2 61E0     		b	.L164
 22556              	.L151:
1236:../Libraries/STM32F10x_StdPeriph_Driver/src/stm32f10x_can.c ****       case CAN_IT_FF1:
1237:../Libraries/STM32F10x_StdPeriph_Driver/src/stm32f10x_can.c ****                /* Check CAN_RF1R_FULL1 bit */
1238:../Libraries/STM32F10x_StdPeriph_Driver/src/stm32f10x_can.c **** 	             itstatus = CheckITStatus(CANx->RF1R, CAN_RF1R_FULL1);  
 22557              		.loc 1 1238 0
 22558 00e4 7B68     		ldr	r3, [r7, #4]
 22559 00e6 1B69     		ldr	r3, [r3, #16]
 22560 00e8 1846     		mov	r0, r3
 22561 00ea 4FF00801 		mov	r1, #8
 22562 00ee FFF7FEFF 		bl	CheckITStatus
 22563 00f2 0346     		mov	r3, r0
 22564 00f4 FB73     		strb	r3, [r7, #15]
1239:../Libraries/STM32F10x_StdPeriph_Driver/src/stm32f10x_can.c **** 	      break;
 22565              		.loc 1 1239 0
 22566 00f6 57E0     		b	.L164
 22567              	.L152:
1240:../Libraries/STM32F10x_StdPeriph_Driver/src/stm32f10x_can.c ****       case CAN_IT_FOV1:
1241:../Libraries/STM32F10x_StdPeriph_Driver/src/stm32f10x_can.c ****                /* Check CAN_RF1R_FOVR1 bit */
1242:../Libraries/STM32F10x_StdPeriph_Driver/src/stm32f10x_can.c **** 	             itstatus = CheckITStatus(CANx->RF1R, CAN_RF1R_FOVR1);  
 22568              		.loc 1 1242 0
 22569 00f8 7B68     		ldr	r3, [r7, #4]
 22570 00fa 1B69     		ldr	r3, [r3, #16]
 22571 00fc 1846     		mov	r0, r3
 22572 00fe 4FF01001 		mov	r1, #16
 22573 0102 FFF7FEFF 		bl	CheckITStatus
 22574 0106 0346     		mov	r3, r0
 22575 0108 FB73     		strb	r3, [r7, #15]
1243:../Libraries/STM32F10x_StdPeriph_Driver/src/stm32f10x_can.c **** 	      break;
 22576              		.loc 1 1243 0
 22577 010a 4DE0     		b	.L164
 22578              	.L158:
1244:../Libraries/STM32F10x_StdPeriph_Driver/src/stm32f10x_can.c ****       case CAN_IT_WKU:
1245:../Libraries/STM32F10x_StdPeriph_Driver/src/stm32f10x_can.c ****                /* Check CAN_MSR_WKUI bit */
1246:../Libraries/STM32F10x_StdPeriph_Driver/src/stm32f10x_can.c ****                itstatus = CheckITStatus(CANx->MSR, CAN_MSR_WKUI);  
 22579              		.loc 1 1246 0
 22580 010c 7B68     		ldr	r3, [r7, #4]
 22581 010e 5B68     		ldr	r3, [r3, #4]
 22582 0110 1846     		mov	r0, r3
 22583 0112 4FF00801 		mov	r1, #8
 22584 0116 FFF7FEFF 		bl	CheckITStatus
 22585 011a 0346     		mov	r3, r0
 22586 011c FB73     		strb	r3, [r7, #15]
1247:../Libraries/STM32F10x_StdPeriph_Driver/src/stm32f10x_can.c **** 	      break;
 22587              		.loc 1 1247 0
 22588 011e 43E0     		b	.L164
 22589              	.L159:
1248:../Libraries/STM32F10x_StdPeriph_Driver/src/stm32f10x_can.c ****       case CAN_IT_SLK:
1249:../Libraries/STM32F10x_StdPeriph_Driver/src/stm32f10x_can.c ****                /* Check CAN_MSR_SLAKI bit */
1250:../Libraries/STM32F10x_StdPeriph_Driver/src/stm32f10x_can.c **** 	             itstatus = CheckITStatus(CANx->MSR, CAN_MSR_SLAKI);  
 22590              		.loc 1 1250 0
 22591 0120 7B68     		ldr	r3, [r7, #4]
 22592 0122 5B68     		ldr	r3, [r3, #4]
 22593 0124 1846     		mov	r0, r3
 22594 0126 4FF01001 		mov	r1, #16
 22595 012a FFF7FEFF 		bl	CheckITStatus
 22596 012e 0346     		mov	r3, r0
 22597 0130 FB73     		strb	r3, [r7, #15]
1251:../Libraries/STM32F10x_StdPeriph_Driver/src/stm32f10x_can.c **** 	      break;
 22598              		.loc 1 1251 0
 22599 0132 39E0     		b	.L164
 22600              	.L153:
1252:../Libraries/STM32F10x_StdPeriph_Driver/src/stm32f10x_can.c ****       case CAN_IT_EWG:
1253:../Libraries/STM32F10x_StdPeriph_Driver/src/stm32f10x_can.c ****                /* Check CAN_ESR_EWGF bit */
1254:../Libraries/STM32F10x_StdPeriph_Driver/src/stm32f10x_can.c **** 	             itstatus = CheckITStatus(CANx->ESR, CAN_ESR_EWGF);  
 22601              		.loc 1 1254 0
 22602 0134 7B68     		ldr	r3, [r7, #4]
 22603 0136 9B69     		ldr	r3, [r3, #24]
 22604 0138 1846     		mov	r0, r3
 22605 013a 4FF00101 		mov	r1, #1
 22606 013e FFF7FEFF 		bl	CheckITStatus
 22607 0142 0346     		mov	r3, r0
 22608 0144 FB73     		strb	r3, [r7, #15]
1255:../Libraries/STM32F10x_StdPeriph_Driver/src/stm32f10x_can.c **** 	      break;
 22609              		.loc 1 1255 0
 22610 0146 2FE0     		b	.L164
 22611              	.L154:
1256:../Libraries/STM32F10x_StdPeriph_Driver/src/stm32f10x_can.c ****       case CAN_IT_EPV:
1257:../Libraries/STM32F10x_StdPeriph_Driver/src/stm32f10x_can.c ****                /* Check CAN_ESR_EPVF bit */
1258:../Libraries/STM32F10x_StdPeriph_Driver/src/stm32f10x_can.c **** 	             itstatus = CheckITStatus(CANx->ESR, CAN_ESR_EPVF);  
 22612              		.loc 1 1258 0
 22613 0148 7B68     		ldr	r3, [r7, #4]
 22614 014a 9B69     		ldr	r3, [r3, #24]
 22615 014c 1846     		mov	r0, r3
 22616 014e 4FF00201 		mov	r1, #2
 22617 0152 FFF7FEFF 		bl	CheckITStatus
 22618 0156 0346     		mov	r3, r0
 22619 0158 FB73     		strb	r3, [r7, #15]
1259:../Libraries/STM32F10x_StdPeriph_Driver/src/stm32f10x_can.c **** 	      break;
 22620              		.loc 1 1259 0
 22621 015a 25E0     		b	.L164
 22622              	.L155:
1260:../Libraries/STM32F10x_StdPeriph_Driver/src/stm32f10x_can.c ****       case CAN_IT_BOF:
1261:../Libraries/STM32F10x_StdPeriph_Driver/src/stm32f10x_can.c ****                /* Check CAN_ESR_BOFF bit */
1262:../Libraries/STM32F10x_StdPeriph_Driver/src/stm32f10x_can.c **** 	             itstatus = CheckITStatus(CANx->ESR, CAN_ESR_BOFF);  
 22623              		.loc 1 1262 0
 22624 015c 7B68     		ldr	r3, [r7, #4]
 22625 015e 9B69     		ldr	r3, [r3, #24]
 22626 0160 1846     		mov	r0, r3
 22627 0162 4FF00401 		mov	r1, #4
 22628 0166 FFF7FEFF 		bl	CheckITStatus
 22629 016a 0346     		mov	r3, r0
 22630 016c FB73     		strb	r3, [r7, #15]
1263:../Libraries/STM32F10x_StdPeriph_Driver/src/stm32f10x_can.c **** 	      break;
 22631              		.loc 1 1263 0
 22632 016e 1BE0     		b	.L164
 22633              	.L156:
1264:../Libraries/STM32F10x_StdPeriph_Driver/src/stm32f10x_can.c ****       case CAN_IT_LEC:
1265:../Libraries/STM32F10x_StdPeriph_Driver/src/stm32f10x_can.c ****                /* Check CAN_ESR_LEC bit */
1266:../Libraries/STM32F10x_StdPeriph_Driver/src/stm32f10x_can.c **** 	             itstatus = CheckITStatus(CANx->ESR, CAN_ESR_LEC);  
 22634              		.loc 1 1266 0
 22635 0170 7B68     		ldr	r3, [r7, #4]
 22636 0172 9B69     		ldr	r3, [r3, #24]
 22637 0174 1846     		mov	r0, r3
 22638 0176 4FF07001 		mov	r1, #112
 22639 017a FFF7FEFF 		bl	CheckITStatus
 22640 017e 0346     		mov	r3, r0
 22641 0180 FB73     		strb	r3, [r7, #15]
1267:../Libraries/STM32F10x_StdPeriph_Driver/src/stm32f10x_can.c **** 	      break;
 22642              		.loc 1 1267 0
 22643 0182 11E0     		b	.L164
 22644              	.L157:
1268:../Libraries/STM32F10x_StdPeriph_Driver/src/stm32f10x_can.c ****       case CAN_IT_ERR:
1269:../Libraries/STM32F10x_StdPeriph_Driver/src/stm32f10x_can.c ****                /* Check CAN_MSR_ERRI bit */ 
1270:../Libraries/STM32F10x_StdPeriph_Driver/src/stm32f10x_can.c ****                itstatus = CheckITStatus(CANx->MSR, CAN_MSR_ERRI); 
 22645              		.loc 1 1270 0
 22646 0184 7B68     		ldr	r3, [r7, #4]
 22647 0186 5B68     		ldr	r3, [r3, #4]
 22648 0188 1846     		mov	r0, r3
 22649 018a 4FF00401 		mov	r1, #4
 22650 018e FFF7FEFF 		bl	CheckITStatus
 22651 0192 0346     		mov	r3, r0
 22652 0194 FB73     		strb	r3, [r7, #15]
1271:../Libraries/STM32F10x_StdPeriph_Driver/src/stm32f10x_can.c **** 	      break;
 22653              		.loc 1 1271 0
 22654 0196 00BF     		nop
 22655 0198 06E0     		b	.L164
 22656              	.L145:
1272:../Libraries/STM32F10x_StdPeriph_Driver/src/stm32f10x_can.c ****       default :
1273:../Libraries/STM32F10x_StdPeriph_Driver/src/stm32f10x_can.c ****                /* in case of error, return RESET */
1274:../Libraries/STM32F10x_StdPeriph_Driver/src/stm32f10x_can.c ****               itstatus = RESET;
 22657              		.loc 1 1274 0
 22658 019a 4FF00003 		mov	r3, #0
 22659 019e FB73     		strb	r3, [r7, #15]
1275:../Libraries/STM32F10x_StdPeriph_Driver/src/stm32f10x_can.c ****               break;
 22660              		.loc 1 1275 0
 22661 01a0 02E0     		b	.L164
 22662              	.L144:
1276:../Libraries/STM32F10x_StdPeriph_Driver/src/stm32f10x_can.c ****     }
1277:../Libraries/STM32F10x_StdPeriph_Driver/src/stm32f10x_can.c ****   }
1278:../Libraries/STM32F10x_StdPeriph_Driver/src/stm32f10x_can.c ****   else
1279:../Libraries/STM32F10x_StdPeriph_Driver/src/stm32f10x_can.c ****   {
1280:../Libraries/STM32F10x_StdPeriph_Driver/src/stm32f10x_can.c ****    /* in case the Interrupt is not enabled, return RESET */
1281:../Libraries/STM32F10x_StdPeriph_Driver/src/stm32f10x_can.c ****     itstatus  = RESET;
 22663              		.loc 1 1281 0
 22664 01a2 4FF00003 		mov	r3, #0
 22665 01a6 FB73     		strb	r3, [r7, #15]
 22666              	.L164:
1282:../Libraries/STM32F10x_StdPeriph_Driver/src/stm32f10x_can.c ****   }
1283:../Libraries/STM32F10x_StdPeriph_Driver/src/stm32f10x_can.c ****   
1284:../Libraries/STM32F10x_StdPeriph_Driver/src/stm32f10x_can.c ****   /* Return the CAN_IT status */
1285:../Libraries/STM32F10x_StdPeriph_Driver/src/stm32f10x_can.c ****   return  itstatus;
 22667              		.loc 1 1285 0
 22668 01a8 FB7B     		ldrb	r3, [r7, #15]	@ zero_extendqisi2
1286:../Libraries/STM32F10x_StdPeriph_Driver/src/stm32f10x_can.c **** }
 22669              		.loc 1 1286 0
 22670 01aa 1846     		mov	r0, r3
 22671 01ac 07F11007 		add	r7, r7, #16
 22672 01b0 BD46     		mov	sp, r7
 22673 01b2 80BD     		pop	{r7, pc}
 22674              	.L166:
 22675              		.align	2
 22676              	.L165:
 22677 01b4 01010100 		.word	65793
 22678              		.cfi_endproc
 22679              	.LFE51:
 22681              		.section	.text.CAN_ClearITPendingBit,"ax",%progbits
 22682              		.align	2
 22683              		.global	CAN_ClearITPendingBit
 22684              		.thumb
 22685              		.thumb_func
 22687              	CAN_ClearITPendingBit:
 22688              	.LFB52:
1287:../Libraries/STM32F10x_StdPeriph_Driver/src/stm32f10x_can.c **** 
1288:../Libraries/STM32F10x_StdPeriph_Driver/src/stm32f10x_can.c **** /**
1289:../Libraries/STM32F10x_StdPeriph_Driver/src/stm32f10x_can.c ****   * @brief  Clears the CANx's interrupt pending bits.
1290:../Libraries/STM32F10x_StdPeriph_Driver/src/stm32f10x_can.c ****   * @param  CANx:    where x can be 1 or 2 to to select the CAN peripheral.
1291:../Libraries/STM32F10x_StdPeriph_Driver/src/stm32f10x_can.c ****   * @param  CAN_IT: specifies the interrupt pending bit to clear.
1292:../Libraries/STM32F10x_StdPeriph_Driver/src/stm32f10x_can.c ****   *                  -  CAN_IT_TME                     
1293:../Libraries/STM32F10x_StdPeriph_Driver/src/stm32f10x_can.c ****   *                  -  CAN_IT_FF0               
1294:../Libraries/STM32F10x_StdPeriph_Driver/src/stm32f10x_can.c ****   *                  -  CAN_IT_FOV0                     
1295:../Libraries/STM32F10x_StdPeriph_Driver/src/stm32f10x_can.c ****   *                  -  CAN_IT_FF1               
1296:../Libraries/STM32F10x_StdPeriph_Driver/src/stm32f10x_can.c ****   *                  -  CAN_IT_FOV1              
1297:../Libraries/STM32F10x_StdPeriph_Driver/src/stm32f10x_can.c ****   *                  -  CAN_IT_WKU  
1298:../Libraries/STM32F10x_StdPeriph_Driver/src/stm32f10x_can.c ****   *                  -  CAN_IT_SLK  
1299:../Libraries/STM32F10x_StdPeriph_Driver/src/stm32f10x_can.c ****   *                  -  CAN_IT_EWG    
1300:../Libraries/STM32F10x_StdPeriph_Driver/src/stm32f10x_can.c ****   *                  -  CAN_IT_EPV    
1301:../Libraries/STM32F10x_StdPeriph_Driver/src/stm32f10x_can.c ****   *                  -  CAN_IT_BOF    
1302:../Libraries/STM32F10x_StdPeriph_Driver/src/stm32f10x_can.c ****   *                  -  CAN_IT_LEC    
1303:../Libraries/STM32F10x_StdPeriph_Driver/src/stm32f10x_can.c ****   *                  -  CAN_IT_ERR 
1304:../Libraries/STM32F10x_StdPeriph_Driver/src/stm32f10x_can.c ****   * @retval None.
1305:../Libraries/STM32F10x_StdPeriph_Driver/src/stm32f10x_can.c ****   */
1306:../Libraries/STM32F10x_StdPeriph_Driver/src/stm32f10x_can.c **** void CAN_ClearITPendingBit(CAN_TypeDef* CANx, uint32_t CAN_IT)
1307:../Libraries/STM32F10x_StdPeriph_Driver/src/stm32f10x_can.c **** {
 22689              		.loc 1 1307 0
 22690              		.cfi_startproc
 22691              		@ args = 0, pretend = 0, frame = 8
 22692              		@ frame_needed = 1, uses_anonymous_args = 0
 22693              		@ link register save eliminated.
 22694 0000 80B4     		push	{r7}
 22695              	.LCFI69:
 22696              		.cfi_def_cfa_offset 4
 22697 0002 83B0     		sub	sp, sp, #12
 22698              	.LCFI70:
 22699              		.cfi_def_cfa_offset 16
 22700 0004 00AF     		add	r7, sp, #0
 22701              		.cfi_offset 7, -4
 22702              	.LCFI71:
 22703              		.cfi_def_cfa_register 7
 22704 0006 7860     		str	r0, [r7, #4]
 22705 0008 3960     		str	r1, [r7, #0]
1308:../Libraries/STM32F10x_StdPeriph_Driver/src/stm32f10x_can.c ****   /* Check the parameters */
1309:../Libraries/STM32F10x_StdPeriph_Driver/src/stm32f10x_can.c ****   assert_param(IS_CAN_ALL_PERIPH(CANx));
1310:../Libraries/STM32F10x_StdPeriph_Driver/src/stm32f10x_can.c ****   assert_param(IS_CAN_CLEAR_IT(CAN_IT));
1311:../Libraries/STM32F10x_StdPeriph_Driver/src/stm32f10x_can.c **** 
1312:../Libraries/STM32F10x_StdPeriph_Driver/src/stm32f10x_can.c ****   switch (CAN_IT)
 22706              		.loc 1 1312 0
 22707 000a 3B68     		ldr	r3, [r7, #0]
 22708 000c B3F5807F 		cmp	r3, #256
 22709 0010 49D0     		beq	.L174
 22710 0012 B3F5807F 		cmp	r3, #256
 22711 0016 0DD8     		bhi	.L181
 22712 0018 082B     		cmp	r3, #8
 22713 001a 2BD0     		beq	.L171
 22714 001c 082B     		cmp	r3, #8
 22715 001e 04D8     		bhi	.L182
 22716 0020 012B     		cmp	r3, #1
 22717 0022 1ED0     		beq	.L169
 22718 0024 042B     		cmp	r3, #4
 22719 0026 20D0     		beq	.L170
1313:../Libraries/STM32F10x_StdPeriph_Driver/src/stm32f10x_can.c ****   {
1314:../Libraries/STM32F10x_StdPeriph_Driver/src/stm32f10x_can.c ****       case CAN_IT_TME:
1315:../Libraries/STM32F10x_StdPeriph_Driver/src/stm32f10x_can.c ****               /* Clear CAN_TSR_RQCPx (rc_w1)*/
1316:../Libraries/STM32F10x_StdPeriph_Driver/src/stm32f10x_can.c **** 	      CANx->TSR = CAN_TSR_RQCP0|CAN_TSR_RQCP1|CAN_TSR_RQCP2;  
1317:../Libraries/STM32F10x_StdPeriph_Driver/src/stm32f10x_can.c **** 	      break;
1318:../Libraries/STM32F10x_StdPeriph_Driver/src/stm32f10x_can.c ****       case CAN_IT_FF0:
1319:../Libraries/STM32F10x_StdPeriph_Driver/src/stm32f10x_can.c ****               /* Clear CAN_RF0R_FULL0 (rc_w1)*/
1320:../Libraries/STM32F10x_StdPeriph_Driver/src/stm32f10x_can.c **** 	      CANx->RF0R = CAN_RF0R_FULL0; 
1321:../Libraries/STM32F10x_StdPeriph_Driver/src/stm32f10x_can.c **** 	      break;
1322:../Libraries/STM32F10x_StdPeriph_Driver/src/stm32f10x_can.c ****       case CAN_IT_FOV0:
1323:../Libraries/STM32F10x_StdPeriph_Driver/src/stm32f10x_can.c ****               /* Clear CAN_RF0R_FOVR0 (rc_w1)*/
1324:../Libraries/STM32F10x_StdPeriph_Driver/src/stm32f10x_can.c **** 	      CANx->RF0R = CAN_RF0R_FOVR0; 
1325:../Libraries/STM32F10x_StdPeriph_Driver/src/stm32f10x_can.c **** 	      break;
1326:../Libraries/STM32F10x_StdPeriph_Driver/src/stm32f10x_can.c ****       case CAN_IT_FF1:
1327:../Libraries/STM32F10x_StdPeriph_Driver/src/stm32f10x_can.c ****               /* Clear CAN_RF1R_FULL1 (rc_w1)*/
1328:../Libraries/STM32F10x_StdPeriph_Driver/src/stm32f10x_can.c **** 	      CANx->RF1R = CAN_RF1R_FULL1;  
1329:../Libraries/STM32F10x_StdPeriph_Driver/src/stm32f10x_can.c **** 	      break;
1330:../Libraries/STM32F10x_StdPeriph_Driver/src/stm32f10x_can.c ****       case CAN_IT_FOV1:
1331:../Libraries/STM32F10x_StdPeriph_Driver/src/stm32f10x_can.c ****               /* Clear CAN_RF1R_FOVR1 (rc_w1)*/
1332:../Libraries/STM32F10x_StdPeriph_Driver/src/stm32f10x_can.c **** 	      CANx->RF1R = CAN_RF1R_FOVR1; 
1333:../Libraries/STM32F10x_StdPeriph_Driver/src/stm32f10x_can.c **** 	      break;
1334:../Libraries/STM32F10x_StdPeriph_Driver/src/stm32f10x_can.c ****       case CAN_IT_WKU:
1335:../Libraries/STM32F10x_StdPeriph_Driver/src/stm32f10x_can.c ****               /* Clear CAN_MSR_WKUI (rc_w1)*/
1336:../Libraries/STM32F10x_StdPeriph_Driver/src/stm32f10x_can.c **** 	      CANx->MSR = CAN_MSR_WKUI;  
1337:../Libraries/STM32F10x_StdPeriph_Driver/src/stm32f10x_can.c **** 	      break;
1338:../Libraries/STM32F10x_StdPeriph_Driver/src/stm32f10x_can.c ****       case CAN_IT_SLK:
1339:../Libraries/STM32F10x_StdPeriph_Driver/src/stm32f10x_can.c ****               /* Clear CAN_MSR_SLAKI (rc_w1)*/ 
1340:../Libraries/STM32F10x_StdPeriph_Driver/src/stm32f10x_can.c **** 	      CANx->MSR = CAN_MSR_SLAKI;   
1341:../Libraries/STM32F10x_StdPeriph_Driver/src/stm32f10x_can.c **** 	      break;
1342:../Libraries/STM32F10x_StdPeriph_Driver/src/stm32f10x_can.c ****       case CAN_IT_EWG:
1343:../Libraries/STM32F10x_StdPeriph_Driver/src/stm32f10x_can.c ****               /* Clear CAN_MSR_ERRI (rc_w1) */
1344:../Libraries/STM32F10x_StdPeriph_Driver/src/stm32f10x_can.c **** 	      CANx->MSR = CAN_MSR_ERRI;
1345:../Libraries/STM32F10x_StdPeriph_Driver/src/stm32f10x_can.c ****               /* Note : the corresponding Flag is cleared by hardware depending 
1346:../Libraries/STM32F10x_StdPeriph_Driver/src/stm32f10x_can.c ****                         of the CAN Bus status*/ 
1347:../Libraries/STM32F10x_StdPeriph_Driver/src/stm32f10x_can.c **** 	      break;
1348:../Libraries/STM32F10x_StdPeriph_Driver/src/stm32f10x_can.c ****       case CAN_IT_EPV:
1349:../Libraries/STM32F10x_StdPeriph_Driver/src/stm32f10x_can.c ****               /* Clear CAN_MSR_ERRI (rc_w1) */
1350:../Libraries/STM32F10x_StdPeriph_Driver/src/stm32f10x_can.c **** 	      CANx->MSR = CAN_MSR_ERRI; 
1351:../Libraries/STM32F10x_StdPeriph_Driver/src/stm32f10x_can.c ****               /* Note : the corresponding Flag is cleared by hardware depending 
1352:../Libraries/STM32F10x_StdPeriph_Driver/src/stm32f10x_can.c ****                         of the CAN Bus status*/
1353:../Libraries/STM32F10x_StdPeriph_Driver/src/stm32f10x_can.c **** 	      break;
1354:../Libraries/STM32F10x_StdPeriph_Driver/src/stm32f10x_can.c ****       case CAN_IT_BOF:
1355:../Libraries/STM32F10x_StdPeriph_Driver/src/stm32f10x_can.c ****               /* Clear CAN_MSR_ERRI (rc_w1) */ 
1356:../Libraries/STM32F10x_StdPeriph_Driver/src/stm32f10x_can.c **** 	      CANx->MSR = CAN_MSR_ERRI; 
1357:../Libraries/STM32F10x_StdPeriph_Driver/src/stm32f10x_can.c ****               /* Note : the corresponding Flag is cleared by hardware depending 
