   1              		.syntax unified
   2              		.cpu cortex-m3
   3              		.fpu softvfp
   4              		.eabi_attribute 20, 1
   5              		.eabi_attribute 21, 1
   6              		.eabi_attribute 23, 3
   7              		.eabi_attribute 24, 1
   8              		.eabi_attribute 25, 1
   9              		.eabi_attribute 26, 1
  10              		.eabi_attribute 30, 6
  11              		.eabi_attribute 18, 4
  12              		.thumb
  13              		.file	"stm32f10x_tim.c"
  23              	.Ltext0:
  24              		.file 1 "../Libraries/STM32F10x_StdPeriph_Driver/src/stm32f10x_tim.c"
 20468              		.align	2
 20469              		.global	TIM_DeInit
 20470              		.thumb
 20471              		.thumb_func
 20473              	TIM_DeInit:
 20474              	.LFB29:
   1:../Libraries/STM32F10x_StdPeriph_Driver/src/stm32f10x_tim.c **** /**
   2:../Libraries/STM32F10x_StdPeriph_Driver/src/stm32f10x_tim.c ****   ******************************************************************************
   3:../Libraries/STM32F10x_StdPeriph_Driver/src/stm32f10x_tim.c ****   * @file    stm32f10x_tim.c
   4:../Libraries/STM32F10x_StdPeriph_Driver/src/stm32f10x_tim.c ****   * @author  MCD Application Team
   5:../Libraries/STM32F10x_StdPeriph_Driver/src/stm32f10x_tim.c ****   * @version V3.5.0
   6:../Libraries/STM32F10x_StdPeriph_Driver/src/stm32f10x_tim.c ****   * @date    11-March-2011
   7:../Libraries/STM32F10x_StdPeriph_Driver/src/stm32f10x_tim.c ****   * @brief   This file provides all the TIM firmware functions.
   8:../Libraries/STM32F10x_StdPeriph_Driver/src/stm32f10x_tim.c ****   ******************************************************************************
   9:../Libraries/STM32F10x_StdPeriph_Driver/src/stm32f10x_tim.c ****   * @attention
  10:../Libraries/STM32F10x_StdPeriph_Driver/src/stm32f10x_tim.c ****   *
  11:../Libraries/STM32F10x_StdPeriph_Driver/src/stm32f10x_tim.c ****   * THE PRESENT FIRMWARE WHICH IS FOR GUIDANCE ONLY AIMS AT PROVIDING CUSTOMERS
  12:../Libraries/STM32F10x_StdPeriph_Driver/src/stm32f10x_tim.c ****   * WITH CODING INFORMATION REGARDING THEIR PRODUCTS IN ORDER FOR THEM TO SAVE
  13:../Libraries/STM32F10x_StdPeriph_Driver/src/stm32f10x_tim.c ****   * TIME. AS A RESULT, STMICROELECTRONICS SHALL NOT BE HELD LIABLE FOR ANY
  14:../Libraries/STM32F10x_StdPeriph_Driver/src/stm32f10x_tim.c ****   * DIRECT, INDIRECT OR CONSEQUENTIAL DAMAGES WITH RESPECT TO ANY CLAIMS ARISING
  15:../Libraries/STM32F10x_StdPeriph_Driver/src/stm32f10x_tim.c ****   * FROM THE CONTENT OF SUCH FIRMWARE AND/OR THE USE MADE BY CUSTOMERS OF THE
  16:../Libraries/STM32F10x_StdPeriph_Driver/src/stm32f10x_tim.c ****   * CODING INFORMATION CONTAINED HEREIN IN CONNECTION WITH THEIR PRODUCTS.
  17:../Libraries/STM32F10x_StdPeriph_Driver/src/stm32f10x_tim.c ****   *
  18:../Libraries/STM32F10x_StdPeriph_Driver/src/stm32f10x_tim.c ****   * <h2><center>&copy; COPYRIGHT 2011 STMicroelectronics</center></h2>
  19:../Libraries/STM32F10x_StdPeriph_Driver/src/stm32f10x_tim.c ****   ******************************************************************************
  20:../Libraries/STM32F10x_StdPeriph_Driver/src/stm32f10x_tim.c ****   */
  21:../Libraries/STM32F10x_StdPeriph_Driver/src/stm32f10x_tim.c **** 
  22:../Libraries/STM32F10x_StdPeriph_Driver/src/stm32f10x_tim.c **** /* Includes ------------------------------------------------------------------*/
  23:../Libraries/STM32F10x_StdPeriph_Driver/src/stm32f10x_tim.c **** #include "stm32f10x_tim.h"
  24:../Libraries/STM32F10x_StdPeriph_Driver/src/stm32f10x_tim.c **** #include "stm32f10x_rcc.h"
  25:../Libraries/STM32F10x_StdPeriph_Driver/src/stm32f10x_tim.c **** 
  26:../Libraries/STM32F10x_StdPeriph_Driver/src/stm32f10x_tim.c **** /** @addtogroup STM32F10x_StdPeriph_Driver
  27:../Libraries/STM32F10x_StdPeriph_Driver/src/stm32f10x_tim.c ****   * @{
  28:../Libraries/STM32F10x_StdPeriph_Driver/src/stm32f10x_tim.c ****   */
  29:../Libraries/STM32F10x_StdPeriph_Driver/src/stm32f10x_tim.c **** 
  30:../Libraries/STM32F10x_StdPeriph_Driver/src/stm32f10x_tim.c **** /** @defgroup TIM 
  31:../Libraries/STM32F10x_StdPeriph_Driver/src/stm32f10x_tim.c ****   * @brief TIM driver modules
  32:../Libraries/STM32F10x_StdPeriph_Driver/src/stm32f10x_tim.c ****   * @{
  33:../Libraries/STM32F10x_StdPeriph_Driver/src/stm32f10x_tim.c ****   */
  34:../Libraries/STM32F10x_StdPeriph_Driver/src/stm32f10x_tim.c **** 
  35:../Libraries/STM32F10x_StdPeriph_Driver/src/stm32f10x_tim.c **** /** @defgroup TIM_Private_TypesDefinitions
  36:../Libraries/STM32F10x_StdPeriph_Driver/src/stm32f10x_tim.c ****   * @{
  37:../Libraries/STM32F10x_StdPeriph_Driver/src/stm32f10x_tim.c ****   */
  38:../Libraries/STM32F10x_StdPeriph_Driver/src/stm32f10x_tim.c **** 
  39:../Libraries/STM32F10x_StdPeriph_Driver/src/stm32f10x_tim.c **** /**
  40:../Libraries/STM32F10x_StdPeriph_Driver/src/stm32f10x_tim.c ****   * @}
  41:../Libraries/STM32F10x_StdPeriph_Driver/src/stm32f10x_tim.c ****   */
  42:../Libraries/STM32F10x_StdPeriph_Driver/src/stm32f10x_tim.c **** 
  43:../Libraries/STM32F10x_StdPeriph_Driver/src/stm32f10x_tim.c **** /** @defgroup TIM_Private_Defines
  44:../Libraries/STM32F10x_StdPeriph_Driver/src/stm32f10x_tim.c ****   * @{
  45:../Libraries/STM32F10x_StdPeriph_Driver/src/stm32f10x_tim.c ****   */
  46:../Libraries/STM32F10x_StdPeriph_Driver/src/stm32f10x_tim.c **** 
  47:../Libraries/STM32F10x_StdPeriph_Driver/src/stm32f10x_tim.c **** /* ---------------------- TIM registers bit mask ------------------------ */
  48:../Libraries/STM32F10x_StdPeriph_Driver/src/stm32f10x_tim.c **** #define SMCR_ETR_Mask               ((uint16_t)0x00FF) 
  49:../Libraries/STM32F10x_StdPeriph_Driver/src/stm32f10x_tim.c **** #define CCMR_Offset                 ((uint16_t)0x0018)
  50:../Libraries/STM32F10x_StdPeriph_Driver/src/stm32f10x_tim.c **** #define CCER_CCE_Set                ((uint16_t)0x0001)  
  51:../Libraries/STM32F10x_StdPeriph_Driver/src/stm32f10x_tim.c **** #define	CCER_CCNE_Set               ((uint16_t)0x0004) 
  52:../Libraries/STM32F10x_StdPeriph_Driver/src/stm32f10x_tim.c **** 
  53:../Libraries/STM32F10x_StdPeriph_Driver/src/stm32f10x_tim.c **** /**
  54:../Libraries/STM32F10x_StdPeriph_Driver/src/stm32f10x_tim.c ****   * @}
  55:../Libraries/STM32F10x_StdPeriph_Driver/src/stm32f10x_tim.c ****   */
  56:../Libraries/STM32F10x_StdPeriph_Driver/src/stm32f10x_tim.c **** 
  57:../Libraries/STM32F10x_StdPeriph_Driver/src/stm32f10x_tim.c **** /** @defgroup TIM_Private_Macros
  58:../Libraries/STM32F10x_StdPeriph_Driver/src/stm32f10x_tim.c ****   * @{
  59:../Libraries/STM32F10x_StdPeriph_Driver/src/stm32f10x_tim.c ****   */
  60:../Libraries/STM32F10x_StdPeriph_Driver/src/stm32f10x_tim.c **** 
  61:../Libraries/STM32F10x_StdPeriph_Driver/src/stm32f10x_tim.c **** /**
  62:../Libraries/STM32F10x_StdPeriph_Driver/src/stm32f10x_tim.c ****   * @}
  63:../Libraries/STM32F10x_StdPeriph_Driver/src/stm32f10x_tim.c ****   */
  64:../Libraries/STM32F10x_StdPeriph_Driver/src/stm32f10x_tim.c **** 
  65:../Libraries/STM32F10x_StdPeriph_Driver/src/stm32f10x_tim.c **** /** @defgroup TIM_Private_Variables
  66:../Libraries/STM32F10x_StdPeriph_Driver/src/stm32f10x_tim.c ****   * @{
  67:../Libraries/STM32F10x_StdPeriph_Driver/src/stm32f10x_tim.c ****   */
  68:../Libraries/STM32F10x_StdPeriph_Driver/src/stm32f10x_tim.c **** 
  69:../Libraries/STM32F10x_StdPeriph_Driver/src/stm32f10x_tim.c **** /**
  70:../Libraries/STM32F10x_StdPeriph_Driver/src/stm32f10x_tim.c ****   * @}
  71:../Libraries/STM32F10x_StdPeriph_Driver/src/stm32f10x_tim.c ****   */
  72:../Libraries/STM32F10x_StdPeriph_Driver/src/stm32f10x_tim.c **** 
  73:../Libraries/STM32F10x_StdPeriph_Driver/src/stm32f10x_tim.c **** /** @defgroup TIM_Private_FunctionPrototypes
  74:../Libraries/STM32F10x_StdPeriph_Driver/src/stm32f10x_tim.c ****   * @{
  75:../Libraries/STM32F10x_StdPeriph_Driver/src/stm32f10x_tim.c ****   */
  76:../Libraries/STM32F10x_StdPeriph_Driver/src/stm32f10x_tim.c **** 
  77:../Libraries/STM32F10x_StdPeriph_Driver/src/stm32f10x_tim.c **** static void TI1_Config(TIM_TypeDef* TIMx, uint16_t TIM_ICPolarity, uint16_t TIM_ICSelection,
  78:../Libraries/STM32F10x_StdPeriph_Driver/src/stm32f10x_tim.c ****                        uint16_t TIM_ICFilter);
  79:../Libraries/STM32F10x_StdPeriph_Driver/src/stm32f10x_tim.c **** static void TI2_Config(TIM_TypeDef* TIMx, uint16_t TIM_ICPolarity, uint16_t TIM_ICSelection,
  80:../Libraries/STM32F10x_StdPeriph_Driver/src/stm32f10x_tim.c ****                        uint16_t TIM_ICFilter);
  81:../Libraries/STM32F10x_StdPeriph_Driver/src/stm32f10x_tim.c **** static void TI3_Config(TIM_TypeDef* TIMx, uint16_t TIM_ICPolarity, uint16_t TIM_ICSelection,
  82:../Libraries/STM32F10x_StdPeriph_Driver/src/stm32f10x_tim.c ****                        uint16_t TIM_ICFilter);
  83:../Libraries/STM32F10x_StdPeriph_Driver/src/stm32f10x_tim.c **** static void TI4_Config(TIM_TypeDef* TIMx, uint16_t TIM_ICPolarity, uint16_t TIM_ICSelection,
  84:../Libraries/STM32F10x_StdPeriph_Driver/src/stm32f10x_tim.c ****                        uint16_t TIM_ICFilter);
  85:../Libraries/STM32F10x_StdPeriph_Driver/src/stm32f10x_tim.c **** /**
  86:../Libraries/STM32F10x_StdPeriph_Driver/src/stm32f10x_tim.c ****   * @}
  87:../Libraries/STM32F10x_StdPeriph_Driver/src/stm32f10x_tim.c ****   */
  88:../Libraries/STM32F10x_StdPeriph_Driver/src/stm32f10x_tim.c **** 
  89:../Libraries/STM32F10x_StdPeriph_Driver/src/stm32f10x_tim.c **** /** @defgroup TIM_Private_Macros
  90:../Libraries/STM32F10x_StdPeriph_Driver/src/stm32f10x_tim.c ****   * @{
  91:../Libraries/STM32F10x_StdPeriph_Driver/src/stm32f10x_tim.c ****   */
  92:../Libraries/STM32F10x_StdPeriph_Driver/src/stm32f10x_tim.c **** 
  93:../Libraries/STM32F10x_StdPeriph_Driver/src/stm32f10x_tim.c **** /**
  94:../Libraries/STM32F10x_StdPeriph_Driver/src/stm32f10x_tim.c ****   * @}
  95:../Libraries/STM32F10x_StdPeriph_Driver/src/stm32f10x_tim.c ****   */
  96:../Libraries/STM32F10x_StdPeriph_Driver/src/stm32f10x_tim.c **** 
  97:../Libraries/STM32F10x_StdPeriph_Driver/src/stm32f10x_tim.c **** /** @defgroup TIM_Private_Variables
  98:../Libraries/STM32F10x_StdPeriph_Driver/src/stm32f10x_tim.c ****   * @{
  99:../Libraries/STM32F10x_StdPeriph_Driver/src/stm32f10x_tim.c ****   */
 100:../Libraries/STM32F10x_StdPeriph_Driver/src/stm32f10x_tim.c **** 
 101:../Libraries/STM32F10x_StdPeriph_Driver/src/stm32f10x_tim.c **** /**
 102:../Libraries/STM32F10x_StdPeriph_Driver/src/stm32f10x_tim.c ****   * @}
 103:../Libraries/STM32F10x_StdPeriph_Driver/src/stm32f10x_tim.c ****   */
 104:../Libraries/STM32F10x_StdPeriph_Driver/src/stm32f10x_tim.c **** 
 105:../Libraries/STM32F10x_StdPeriph_Driver/src/stm32f10x_tim.c **** /** @defgroup TIM_Private_FunctionPrototypes
 106:../Libraries/STM32F10x_StdPeriph_Driver/src/stm32f10x_tim.c ****   * @{
 107:../Libraries/STM32F10x_StdPeriph_Driver/src/stm32f10x_tim.c ****   */
 108:../Libraries/STM32F10x_StdPeriph_Driver/src/stm32f10x_tim.c **** 
 109:../Libraries/STM32F10x_StdPeriph_Driver/src/stm32f10x_tim.c **** /**
 110:../Libraries/STM32F10x_StdPeriph_Driver/src/stm32f10x_tim.c ****   * @}
 111:../Libraries/STM32F10x_StdPeriph_Driver/src/stm32f10x_tim.c ****   */
 112:../Libraries/STM32F10x_StdPeriph_Driver/src/stm32f10x_tim.c **** 
 113:../Libraries/STM32F10x_StdPeriph_Driver/src/stm32f10x_tim.c **** /** @defgroup TIM_Private_Functions
 114:../Libraries/STM32F10x_StdPeriph_Driver/src/stm32f10x_tim.c ****   * @{
 115:../Libraries/STM32F10x_StdPeriph_Driver/src/stm32f10x_tim.c ****   */
 116:../Libraries/STM32F10x_StdPeriph_Driver/src/stm32f10x_tim.c **** 
 117:../Libraries/STM32F10x_StdPeriph_Driver/src/stm32f10x_tim.c **** /**
 118:../Libraries/STM32F10x_StdPeriph_Driver/src/stm32f10x_tim.c ****   * @brief  Deinitializes the TIMx peripheral registers to their default reset values.
 119:../Libraries/STM32F10x_StdPeriph_Driver/src/stm32f10x_tim.c ****   * @param  TIMx: where x can be 1 to 17 to select the TIM peripheral.
 120:../Libraries/STM32F10x_StdPeriph_Driver/src/stm32f10x_tim.c ****   * @retval None
 121:../Libraries/STM32F10x_StdPeriph_Driver/src/stm32f10x_tim.c ****   */
 122:../Libraries/STM32F10x_StdPeriph_Driver/src/stm32f10x_tim.c **** void TIM_DeInit(TIM_TypeDef* TIMx)
 123:../Libraries/STM32F10x_StdPeriph_Driver/src/stm32f10x_tim.c **** {
 20475              		.loc 1 123 0
 20476              		.cfi_startproc
 20477              		@ args = 0, pretend = 0, frame = 8
 20478              		@ frame_needed = 1, uses_anonymous_args = 0
 20479 0000 80B5     		push	{r7, lr}
 20480              	.LCFI0:
 20481              		.cfi_def_cfa_offset 8
 20482 0002 82B0     		sub	sp, sp, #8
 20483              	.LCFI1:
 20484              		.cfi_def_cfa_offset 16
 20485 0004 00AF     		add	r7, sp, #0
 20486              		.cfi_offset 14, -4
 20487              		.cfi_offset 7, -8
 20488              	.LCFI2:
 20489              		.cfi_def_cfa_register 7
 20490 0006 7860     		str	r0, [r7, #4]
 124:../Libraries/STM32F10x_StdPeriph_Driver/src/stm32f10x_tim.c ****   /* Check the parameters */
 125:../Libraries/STM32F10x_StdPeriph_Driver/src/stm32f10x_tim.c ****   assert_param(IS_TIM_ALL_PERIPH(TIMx)); 
 126:../Libraries/STM32F10x_StdPeriph_Driver/src/stm32f10x_tim.c ****  
 127:../Libraries/STM32F10x_StdPeriph_Driver/src/stm32f10x_tim.c ****   if (TIMx == TIM1)
 20491              		.loc 1 127 0
 20492 0008 7A68     		ldr	r2, [r7, #4]
 20493 000a 914B     		ldr	r3, .L19
 20494 000c 9A42     		cmp	r2, r3
 20495 000e 0CD1     		bne	.L2
 128:../Libraries/STM32F10x_StdPeriph_Driver/src/stm32f10x_tim.c ****   {
 129:../Libraries/STM32F10x_StdPeriph_Driver/src/stm32f10x_tim.c ****     RCC_APB2PeriphResetCmd(RCC_APB2Periph_TIM1, ENABLE);
 20496              		.loc 1 129 0
 20497 0010 4FF40060 		mov	r0, #2048
 20498 0014 4FF00101 		mov	r1, #1
 20499 0018 FFF7FEFF 		bl	RCC_APB2PeriphResetCmd
 130:../Libraries/STM32F10x_StdPeriph_Driver/src/stm32f10x_tim.c ****     RCC_APB2PeriphResetCmd(RCC_APB2Periph_TIM1, DISABLE);  
 20500              		.loc 1 130 0
 20501 001c 4FF40060 		mov	r0, #2048
 20502 0020 4FF00001 		mov	r1, #0
 20503 0024 FFF7FEFF 		bl	RCC_APB2PeriphResetCmd
 20504 0028 0EE1     		b	.L1
 20505              	.L2:
 131:../Libraries/STM32F10x_StdPeriph_Driver/src/stm32f10x_tim.c ****   }     
 132:../Libraries/STM32F10x_StdPeriph_Driver/src/stm32f10x_tim.c ****   else if (TIMx == TIM2)
 20506              		.loc 1 132 0
 20507 002a 7B68     		ldr	r3, [r7, #4]
 20508 002c B3F1804F 		cmp	r3, #1073741824
 20509 0030 0CD1     		bne	.L4
 133:../Libraries/STM32F10x_StdPeriph_Driver/src/stm32f10x_tim.c ****   {
 134:../Libraries/STM32F10x_StdPeriph_Driver/src/stm32f10x_tim.c ****     RCC_APB1PeriphResetCmd(RCC_APB1Periph_TIM2, ENABLE);
 20510              		.loc 1 134 0
 20511 0032 4FF00100 		mov	r0, #1
 20512 0036 4FF00101 		mov	r1, #1
 20513 003a FFF7FEFF 		bl	RCC_APB1PeriphResetCmd
 135:../Libraries/STM32F10x_StdPeriph_Driver/src/stm32f10x_tim.c ****     RCC_APB1PeriphResetCmd(RCC_APB1Periph_TIM2, DISABLE);
 20514              		.loc 1 135 0
 20515 003e 4FF00100 		mov	r0, #1
 20516 0042 4FF00001 		mov	r1, #0
 20517 0046 FFF7FEFF 		bl	RCC_APB1PeriphResetCmd
 20518 004a FDE0     		b	.L1
 20519              	.L4:
 136:../Libraries/STM32F10x_StdPeriph_Driver/src/stm32f10x_tim.c ****   }
 137:../Libraries/STM32F10x_StdPeriph_Driver/src/stm32f10x_tim.c ****   else if (TIMx == TIM3)
 20520              		.loc 1 137 0
 20521 004c 7A68     		ldr	r2, [r7, #4]
 20522 004e 814B     		ldr	r3, .L19+4
 20523 0050 9A42     		cmp	r2, r3
 20524 0052 0CD1     		bne	.L5
 138:../Libraries/STM32F10x_StdPeriph_Driver/src/stm32f10x_tim.c ****   {
 139:../Libraries/STM32F10x_StdPeriph_Driver/src/stm32f10x_tim.c ****     RCC_APB1PeriphResetCmd(RCC_APB1Periph_TIM3, ENABLE);
 20525              		.loc 1 139 0
 20526 0054 4FF00200 		mov	r0, #2
 20527 0058 4FF00101 		mov	r1, #1
 20528 005c FFF7FEFF 		bl	RCC_APB1PeriphResetCmd
 140:../Libraries/STM32F10x_StdPeriph_Driver/src/stm32f10x_tim.c ****     RCC_APB1PeriphResetCmd(RCC_APB1Periph_TIM3, DISABLE);
 20529              		.loc 1 140 0
 20530 0060 4FF00200 		mov	r0, #2
 20531 0064 4FF00001 		mov	r1, #0
 20532 0068 FFF7FEFF 		bl	RCC_APB1PeriphResetCmd
 20533 006c ECE0     		b	.L1
 20534              	.L5:
 141:../Libraries/STM32F10x_StdPeriph_Driver/src/stm32f10x_tim.c ****   }
 142:../Libraries/STM32F10x_StdPeriph_Driver/src/stm32f10x_tim.c ****   else if (TIMx == TIM4)
 20535              		.loc 1 142 0
 20536 006e 7A68     		ldr	r2, [r7, #4]
 20537 0070 794B     		ldr	r3, .L19+8
 20538 0072 9A42     		cmp	r2, r3
 20539 0074 0CD1     		bne	.L6
 143:../Libraries/STM32F10x_StdPeriph_Driver/src/stm32f10x_tim.c ****   {
 144:../Libraries/STM32F10x_StdPeriph_Driver/src/stm32f10x_tim.c ****     RCC_APB1PeriphResetCmd(RCC_APB1Periph_TIM4, ENABLE);
 20540              		.loc 1 144 0
 20541 0076 4FF00400 		mov	r0, #4
 20542 007a 4FF00101 		mov	r1, #1
 20543 007e FFF7FEFF 		bl	RCC_APB1PeriphResetCmd
 145:../Libraries/STM32F10x_StdPeriph_Driver/src/stm32f10x_tim.c ****     RCC_APB1PeriphResetCmd(RCC_APB1Periph_TIM4, DISABLE);
 20544              		.loc 1 145 0
 20545 0082 4FF00400 		mov	r0, #4
 20546 0086 4FF00001 		mov	r1, #0
 20547 008a FFF7FEFF 		bl	RCC_APB1PeriphResetCmd
 20548 008e DBE0     		b	.L1
 20549              	.L6:
 146:../Libraries/STM32F10x_StdPeriph_Driver/src/stm32f10x_tim.c ****   } 
 147:../Libraries/STM32F10x_StdPeriph_Driver/src/stm32f10x_tim.c ****   else if (TIMx == TIM5)
 20550              		.loc 1 147 0
 20551 0090 7A68     		ldr	r2, [r7, #4]
 20552 0092 724B     		ldr	r3, .L19+12
 20553 0094 9A42     		cmp	r2, r3
 20554 0096 0CD1     		bne	.L7
 148:../Libraries/STM32F10x_StdPeriph_Driver/src/stm32f10x_tim.c ****   {
 149:../Libraries/STM32F10x_StdPeriph_Driver/src/stm32f10x_tim.c ****     RCC_APB1PeriphResetCmd(RCC_APB1Periph_TIM5, ENABLE);
 20555              		.loc 1 149 0
 20556 0098 4FF00800 		mov	r0, #8
 20557 009c 4FF00101 		mov	r1, #1
 20558 00a0 FFF7FEFF 		bl	RCC_APB1PeriphResetCmd
 150:../Libraries/STM32F10x_StdPeriph_Driver/src/stm32f10x_tim.c ****     RCC_APB1PeriphResetCmd(RCC_APB1Periph_TIM5, DISABLE);
 20559              		.loc 1 150 0
 20560 00a4 4FF00800 		mov	r0, #8
 20561 00a8 4FF00001 		mov	r1, #0
 20562 00ac FFF7FEFF 		bl	RCC_APB1PeriphResetCmd
 20563 00b0 CAE0     		b	.L1
 20564              	.L7:
 151:../Libraries/STM32F10x_StdPeriph_Driver/src/stm32f10x_tim.c ****   } 
 152:../Libraries/STM32F10x_StdPeriph_Driver/src/stm32f10x_tim.c ****   else if (TIMx == TIM6)
 20565              		.loc 1 152 0
 20566 00b2 7A68     		ldr	r2, [r7, #4]
 20567 00b4 6A4B     		ldr	r3, .L19+16
 20568 00b6 9A42     		cmp	r2, r3
 20569 00b8 0CD1     		bne	.L8
 153:../Libraries/STM32F10x_StdPeriph_Driver/src/stm32f10x_tim.c ****   {
 154:../Libraries/STM32F10x_StdPeriph_Driver/src/stm32f10x_tim.c ****     RCC_APB1PeriphResetCmd(RCC_APB1Periph_TIM6, ENABLE);
 20570              		.loc 1 154 0
 20571 00ba 4FF01000 		mov	r0, #16
 20572 00be 4FF00101 		mov	r1, #1
 20573 00c2 FFF7FEFF 		bl	RCC_APB1PeriphResetCmd
 155:../Libraries/STM32F10x_StdPeriph_Driver/src/stm32f10x_tim.c ****     RCC_APB1PeriphResetCmd(RCC_APB1Periph_TIM6, DISABLE);
 20574              		.loc 1 155 0
 20575 00c6 4FF01000 		mov	r0, #16
 20576 00ca 4FF00001 		mov	r1, #0
 20577 00ce FFF7FEFF 		bl	RCC_APB1PeriphResetCmd
 20578 00d2 B9E0     		b	.L1
 20579              	.L8:
 156:../Libraries/STM32F10x_StdPeriph_Driver/src/stm32f10x_tim.c ****   } 
 157:../Libraries/STM32F10x_StdPeriph_Driver/src/stm32f10x_tim.c ****   else if (TIMx == TIM7)
 20580              		.loc 1 157 0
 20581 00d4 7A68     		ldr	r2, [r7, #4]
 20582 00d6 634B     		ldr	r3, .L19+20
 20583 00d8 9A42     		cmp	r2, r3
 20584 00da 0CD1     		bne	.L9
 158:../Libraries/STM32F10x_StdPeriph_Driver/src/stm32f10x_tim.c ****   {
 159:../Libraries/STM32F10x_StdPeriph_Driver/src/stm32f10x_tim.c ****     RCC_APB1PeriphResetCmd(RCC_APB1Periph_TIM7, ENABLE);
 20585              		.loc 1 159 0
 20586 00dc 4FF02000 		mov	r0, #32
 20587 00e0 4FF00101 		mov	r1, #1
 20588 00e4 FFF7FEFF 		bl	RCC_APB1PeriphResetCmd
 160:../Libraries/STM32F10x_StdPeriph_Driver/src/stm32f10x_tim.c ****     RCC_APB1PeriphResetCmd(RCC_APB1Periph_TIM7, DISABLE);
 20589              		.loc 1 160 0
 20590 00e8 4FF02000 		mov	r0, #32
 20591 00ec 4FF00001 		mov	r1, #0
 20592 00f0 FFF7FEFF 		bl	RCC_APB1PeriphResetCmd
 20593 00f4 A8E0     		b	.L1
 20594              	.L9:
 161:../Libraries/STM32F10x_StdPeriph_Driver/src/stm32f10x_tim.c ****   } 
 162:../Libraries/STM32F10x_StdPeriph_Driver/src/stm32f10x_tim.c ****   else if (TIMx == TIM8)
 20595              		.loc 1 162 0
 20596 00f6 7A68     		ldr	r2, [r7, #4]
 20597 00f8 5B4B     		ldr	r3, .L19+24
 20598 00fa 9A42     		cmp	r2, r3
 20599 00fc 0CD1     		bne	.L10
 163:../Libraries/STM32F10x_StdPeriph_Driver/src/stm32f10x_tim.c ****   {
 164:../Libraries/STM32F10x_StdPeriph_Driver/src/stm32f10x_tim.c ****     RCC_APB2PeriphResetCmd(RCC_APB2Periph_TIM8, ENABLE);
 20600              		.loc 1 164 0
 20601 00fe 4FF40050 		mov	r0, #8192
 20602 0102 4FF00101 		mov	r1, #1
 20603 0106 FFF7FEFF 		bl	RCC_APB2PeriphResetCmd
 165:../Libraries/STM32F10x_StdPeriph_Driver/src/stm32f10x_tim.c ****     RCC_APB2PeriphResetCmd(RCC_APB2Periph_TIM8, DISABLE);
 20604              		.loc 1 165 0
 20605 010a 4FF40050 		mov	r0, #8192
 20606 010e 4FF00001 		mov	r1, #0
 20607 0112 FFF7FEFF 		bl	RCC_APB2PeriphResetCmd
 20608 0116 97E0     		b	.L1
 20609              	.L10:
 166:../Libraries/STM32F10x_StdPeriph_Driver/src/stm32f10x_tim.c ****   }
 167:../Libraries/STM32F10x_StdPeriph_Driver/src/stm32f10x_tim.c ****   else if (TIMx == TIM9)
 20610              		.loc 1 167 0
 20611 0118 7A68     		ldr	r2, [r7, #4]
 20612 011a 544B     		ldr	r3, .L19+28
 20613 011c 9A42     		cmp	r2, r3
 20614 011e 0CD1     		bne	.L11
 168:../Libraries/STM32F10x_StdPeriph_Driver/src/stm32f10x_tim.c ****   {      
 169:../Libraries/STM32F10x_StdPeriph_Driver/src/stm32f10x_tim.c ****     RCC_APB2PeriphResetCmd(RCC_APB2Periph_TIM9, ENABLE);
 20615              		.loc 1 169 0
 20616 0120 4FF40020 		mov	r0, #524288
 20617 0124 4FF00101 		mov	r1, #1
 20618 0128 FFF7FEFF 		bl	RCC_APB2PeriphResetCmd
 170:../Libraries/STM32F10x_StdPeriph_Driver/src/stm32f10x_tim.c ****     RCC_APB2PeriphResetCmd(RCC_APB2Periph_TIM9, DISABLE);  
 20619              		.loc 1 170 0
 20620 012c 4FF40020 		mov	r0, #524288
 20621 0130 4FF00001 		mov	r1, #0
 20622 0134 FFF7FEFF 		bl	RCC_APB2PeriphResetCmd
 20623 0138 86E0     		b	.L1
 20624              	.L11:
 171:../Libraries/STM32F10x_StdPeriph_Driver/src/stm32f10x_tim.c ****    }  
 172:../Libraries/STM32F10x_StdPeriph_Driver/src/stm32f10x_tim.c ****   else if (TIMx == TIM10)
 20625              		.loc 1 172 0
 20626 013a 7A68     		ldr	r2, [r7, #4]
 20627 013c 4C4B     		ldr	r3, .L19+32
 20628 013e 9A42     		cmp	r2, r3
 20629 0140 0CD1     		bne	.L12
 173:../Libraries/STM32F10x_StdPeriph_Driver/src/stm32f10x_tim.c ****   {      
 174:../Libraries/STM32F10x_StdPeriph_Driver/src/stm32f10x_tim.c ****     RCC_APB2PeriphResetCmd(RCC_APB2Periph_TIM10, ENABLE);
 20630              		.loc 1 174 0
 20631 0142 4FF48010 		mov	r0, #1048576
 20632 0146 4FF00101 		mov	r1, #1
 20633 014a FFF7FEFF 		bl	RCC_APB2PeriphResetCmd
 175:../Libraries/STM32F10x_StdPeriph_Driver/src/stm32f10x_tim.c ****     RCC_APB2PeriphResetCmd(RCC_APB2Periph_TIM10, DISABLE);  
 20634              		.loc 1 175 0
 20635 014e 4FF48010 		mov	r0, #1048576
 20636 0152 4FF00001 		mov	r1, #0
 20637 0156 FFF7FEFF 		bl	RCC_APB2PeriphResetCmd
 20638 015a 75E0     		b	.L1
 20639              	.L12:
 176:../Libraries/STM32F10x_StdPeriph_Driver/src/stm32f10x_tim.c ****   }  
 177:../Libraries/STM32F10x_StdPeriph_Driver/src/stm32f10x_tim.c ****   else if (TIMx == TIM11) 
 20640              		.loc 1 177 0
 20641 015c 7A68     		ldr	r2, [r7, #4]
 20642 015e 454B     		ldr	r3, .L19+36
 20643 0160 9A42     		cmp	r2, r3
 20644 0162 0CD1     		bne	.L13
 178:../Libraries/STM32F10x_StdPeriph_Driver/src/stm32f10x_tim.c ****   {     
 179:../Libraries/STM32F10x_StdPeriph_Driver/src/stm32f10x_tim.c ****     RCC_APB2PeriphResetCmd(RCC_APB2Periph_TIM11, ENABLE);
 20645              		.loc 1 179 0
 20646 0164 4FF40010 		mov	r0, #2097152
 20647 0168 4FF00101 		mov	r1, #1
 20648 016c FFF7FEFF 		bl	RCC_APB2PeriphResetCmd
 180:../Libraries/STM32F10x_StdPeriph_Driver/src/stm32f10x_tim.c ****     RCC_APB2PeriphResetCmd(RCC_APB2Periph_TIM11, DISABLE);  
 20649              		.loc 1 180 0
 20650 0170 4FF40010 		mov	r0, #2097152
 20651 0174 4FF00001 		mov	r1, #0
 20652 0178 FFF7FEFF 		bl	RCC_APB2PeriphResetCmd
 20653 017c 64E0     		b	.L1
 20654              	.L13:
 181:../Libraries/STM32F10x_StdPeriph_Driver/src/stm32f10x_tim.c ****   }  
 182:../Libraries/STM32F10x_StdPeriph_Driver/src/stm32f10x_tim.c ****   else if (TIMx == TIM12)
 20655              		.loc 1 182 0
 20656 017e 7A68     		ldr	r2, [r7, #4]
 20657 0180 3D4B     		ldr	r3, .L19+40
 20658 0182 9A42     		cmp	r2, r3
 20659 0184 0CD1     		bne	.L14
 183:../Libraries/STM32F10x_StdPeriph_Driver/src/stm32f10x_tim.c ****   {      
 184:../Libraries/STM32F10x_StdPeriph_Driver/src/stm32f10x_tim.c ****     RCC_APB1PeriphResetCmd(RCC_APB1Periph_TIM12, ENABLE);
 20660              		.loc 1 184 0
 20661 0186 4FF04000 		mov	r0, #64
 20662 018a 4FF00101 		mov	r1, #1
 20663 018e FFF7FEFF 		bl	RCC_APB1PeriphResetCmd
 185:../Libraries/STM32F10x_StdPeriph_Driver/src/stm32f10x_tim.c ****     RCC_APB1PeriphResetCmd(RCC_APB1Periph_TIM12, DISABLE);  
 20664              		.loc 1 185 0
 20665 0192 4FF04000 		mov	r0, #64
 20666 0196 4FF00001 		mov	r1, #0
 20667 019a FFF7FEFF 		bl	RCC_APB1PeriphResetCmd
 20668 019e 53E0     		b	.L1
 20669              	.L14:
 186:../Libraries/STM32F10x_StdPeriph_Driver/src/stm32f10x_tim.c ****   }  
 187:../Libraries/STM32F10x_StdPeriph_Driver/src/stm32f10x_tim.c ****   else if (TIMx == TIM13) 
 20670              		.loc 1 187 0
 20671 01a0 7A68     		ldr	r2, [r7, #4]
 20672 01a2 364B     		ldr	r3, .L19+44
 20673 01a4 9A42     		cmp	r2, r3
 20674 01a6 0CD1     		bne	.L15
 188:../Libraries/STM32F10x_StdPeriph_Driver/src/stm32f10x_tim.c ****   {       
 189:../Libraries/STM32F10x_StdPeriph_Driver/src/stm32f10x_tim.c ****     RCC_APB1PeriphResetCmd(RCC_APB1Periph_TIM13, ENABLE);
 20675              		.loc 1 189 0
 20676 01a8 4FF08000 		mov	r0, #128
 20677 01ac 4FF00101 		mov	r1, #1
 20678 01b0 FFF7FEFF 		bl	RCC_APB1PeriphResetCmd
 190:../Libraries/STM32F10x_StdPeriph_Driver/src/stm32f10x_tim.c ****     RCC_APB1PeriphResetCmd(RCC_APB1Periph_TIM13, DISABLE);  
 20679              		.loc 1 190 0
 20680 01b4 4FF08000 		mov	r0, #128
 20681 01b8 4FF00001 		mov	r1, #0
 20682 01bc FFF7FEFF 		bl	RCC_APB1PeriphResetCmd
 20683 01c0 42E0     		b	.L1
 20684              	.L15:
 191:../Libraries/STM32F10x_StdPeriph_Driver/src/stm32f10x_tim.c ****   }
 192:../Libraries/STM32F10x_StdPeriph_Driver/src/stm32f10x_tim.c ****   else if (TIMx == TIM14) 
 20685              		.loc 1 192 0
 20686 01c2 7A68     		ldr	r2, [r7, #4]
 20687 01c4 2E4B     		ldr	r3, .L19+48
 20688 01c6 9A42     		cmp	r2, r3
 20689 01c8 0CD1     		bne	.L16
 193:../Libraries/STM32F10x_StdPeriph_Driver/src/stm32f10x_tim.c ****   {       
 194:../Libraries/STM32F10x_StdPeriph_Driver/src/stm32f10x_tim.c ****     RCC_APB1PeriphResetCmd(RCC_APB1Periph_TIM14, ENABLE);
 20690              		.loc 1 194 0
 20691 01ca 4FF48070 		mov	r0, #256
 20692 01ce 4FF00101 		mov	r1, #1
 20693 01d2 FFF7FEFF 		bl	RCC_APB1PeriphResetCmd
 195:../Libraries/STM32F10x_StdPeriph_Driver/src/stm32f10x_tim.c ****     RCC_APB1PeriphResetCmd(RCC_APB1Periph_TIM14, DISABLE);  
 20694              		.loc 1 195 0
 20695 01d6 4FF48070 		mov	r0, #256
 20696 01da 4FF00001 		mov	r1, #0
 20697 01de FFF7FEFF 		bl	RCC_APB1PeriphResetCmd
 20698 01e2 31E0     		b	.L1
 20699              	.L16:
 196:../Libraries/STM32F10x_StdPeriph_Driver/src/stm32f10x_tim.c ****   }        
 197:../Libraries/STM32F10x_StdPeriph_Driver/src/stm32f10x_tim.c ****   else if (TIMx == TIM15)
 20700              		.loc 1 197 0
 20701 01e4 7A68     		ldr	r2, [r7, #4]
 20702 01e6 274B     		ldr	r3, .L19+52
 20703 01e8 9A42     		cmp	r2, r3
 20704 01ea 0CD1     		bne	.L17
 198:../Libraries/STM32F10x_StdPeriph_Driver/src/stm32f10x_tim.c ****   {
 199:../Libraries/STM32F10x_StdPeriph_Driver/src/stm32f10x_tim.c ****     RCC_APB2PeriphResetCmd(RCC_APB2Periph_TIM15, ENABLE);
 20705              		.loc 1 199 0
 20706 01ec 4FF48030 		mov	r0, #65536
 20707 01f0 4FF00101 		mov	r1, #1
 20708 01f4 FFF7FEFF 		bl	RCC_APB2PeriphResetCmd
 200:../Libraries/STM32F10x_StdPeriph_Driver/src/stm32f10x_tim.c ****     RCC_APB2PeriphResetCmd(RCC_APB2Periph_TIM15, DISABLE);
 20709              		.loc 1 200 0
 20710 01f8 4FF48030 		mov	r0, #65536
 20711 01fc 4FF00001 		mov	r1, #0
 20712 0200 FFF7FEFF 		bl	RCC_APB2PeriphResetCmd
 20713 0204 20E0     		b	.L1
 20714              	.L17:
 201:../Libraries/STM32F10x_StdPeriph_Driver/src/stm32f10x_tim.c ****   } 
 202:../Libraries/STM32F10x_StdPeriph_Driver/src/stm32f10x_tim.c ****   else if (TIMx == TIM16)
 20715              		.loc 1 202 0
 20716 0206 7A68     		ldr	r2, [r7, #4]
 20717 0208 1F4B     		ldr	r3, .L19+56
 20718 020a 9A42     		cmp	r2, r3
 20719 020c 0CD1     		bne	.L18
 203:../Libraries/STM32F10x_StdPeriph_Driver/src/stm32f10x_tim.c ****   {
 204:../Libraries/STM32F10x_StdPeriph_Driver/src/stm32f10x_tim.c ****     RCC_APB2PeriphResetCmd(RCC_APB2Periph_TIM16, ENABLE);
 20720              		.loc 1 204 0
 20721 020e 4FF40030 		mov	r0, #131072
 20722 0212 4FF00101 		mov	r1, #1
 20723 0216 FFF7FEFF 		bl	RCC_APB2PeriphResetCmd
 205:../Libraries/STM32F10x_StdPeriph_Driver/src/stm32f10x_tim.c ****     RCC_APB2PeriphResetCmd(RCC_APB2Periph_TIM16, DISABLE);
 20724              		.loc 1 205 0
 20725 021a 4FF40030 		mov	r0, #131072
 20726 021e 4FF00001 		mov	r1, #0
 20727 0222 FFF7FEFF 		bl	RCC_APB2PeriphResetCmd
 20728 0226 0FE0     		b	.L1
 20729              	.L18:
 206:../Libraries/STM32F10x_StdPeriph_Driver/src/stm32f10x_tim.c ****   } 
 207:../Libraries/STM32F10x_StdPeriph_Driver/src/stm32f10x_tim.c ****   else
 208:../Libraries/STM32F10x_StdPeriph_Driver/src/stm32f10x_tim.c ****   {
 209:../Libraries/STM32F10x_StdPeriph_Driver/src/stm32f10x_tim.c ****     if (TIMx == TIM17)
 20730              		.loc 1 209 0
 20731 0228 7A68     		ldr	r2, [r7, #4]
 20732 022a 184B     		ldr	r3, .L19+60
 20733 022c 9A42     		cmp	r2, r3
 20734 022e 0BD1     		bne	.L1
 210:../Libraries/STM32F10x_StdPeriph_Driver/src/stm32f10x_tim.c ****     {
 211:../Libraries/STM32F10x_StdPeriph_Driver/src/stm32f10x_tim.c ****       RCC_APB2PeriphResetCmd(RCC_APB2Periph_TIM17, ENABLE);
 20735              		.loc 1 211 0
 20736 0230 4FF48020 		mov	r0, #262144
 20737 0234 4FF00101 		mov	r1, #1
 20738 0238 FFF7FEFF 		bl	RCC_APB2PeriphResetCmd
 212:../Libraries/STM32F10x_StdPeriph_Driver/src/stm32f10x_tim.c ****       RCC_APB2PeriphResetCmd(RCC_APB2Periph_TIM17, DISABLE);
 20739              		.loc 1 212 0
 20740 023c 4FF48020 		mov	r0, #262144
 20741 0240 4FF00001 		mov	r1, #0
 20742 0244 FFF7FEFF 		bl	RCC_APB2PeriphResetCmd
 20743              	.L1:
 213:../Libraries/STM32F10x_StdPeriph_Driver/src/stm32f10x_tim.c ****     }  
 214:../Libraries/STM32F10x_StdPeriph_Driver/src/stm32f10x_tim.c ****   }
 215:../Libraries/STM32F10x_StdPeriph_Driver/src/stm32f10x_tim.c **** }
 20744              		.loc 1 215 0
 20745 0248 07F10807 		add	r7, r7, #8
 20746 024c BD46     		mov	sp, r7
 20747 024e 80BD     		pop	{r7, pc}
 20748              	.L20:
 20749              		.align	2
 20750              	.L19:
 20751 0250 002C0140 		.word	1073818624
 20752 0254 00040040 		.word	1073742848
 20753 0258 00080040 		.word	1073743872
 20754 025c 000C0040 		.word	1073744896
 20755 0260 00100040 		.word	1073745920
 20756 0264 00140040 		.word	1073746944
 20757 0268 00340140 		.word	1073820672
 20758 026c 004C0140 		.word	1073826816
 20759 0270 00500140 		.word	1073827840
 20760 0274 00540140 		.word	1073828864
 20761 0278 00180040 		.word	1073747968
 20762 027c 001C0040 		.word	1073748992
 20763 0280 00200040 		.word	1073750016
 20764 0284 00400140 		.word	1073823744
 20765 0288 00440140 		.word	1073824768
 20766 028c 00480140 		.word	1073825792
 20767              		.cfi_endproc
 20768              	.LFE29:
 20770              		.section	.text.TIM_TimeBaseInit,"ax",%progbits
 20771              		.align	2
 20772              		.global	TIM_TimeBaseInit
 20773              		.thumb
 20774              		.thumb_func
 20776              	TIM_TimeBaseInit:
 20777              	.LFB30:
 216:../Libraries/STM32F10x_StdPeriph_Driver/src/stm32f10x_tim.c **** 
 217:../Libraries/STM32F10x_StdPeriph_Driver/src/stm32f10x_tim.c **** /**
 218:../Libraries/STM32F10x_StdPeriph_Driver/src/stm32f10x_tim.c ****   * @brief  Initializes the TIMx Time Base Unit peripheral according to 
 219:../Libraries/STM32F10x_StdPeriph_Driver/src/stm32f10x_tim.c ****   *         the specified parameters in the TIM_TimeBaseInitStruct.
 220:../Libraries/STM32F10x_StdPeriph_Driver/src/stm32f10x_tim.c ****   * @param  TIMx: where x can be 1 to 17 to select the TIM peripheral.
 221:../Libraries/STM32F10x_StdPeriph_Driver/src/stm32f10x_tim.c ****   * @param  TIM_TimeBaseInitStruct: pointer to a TIM_TimeBaseInitTypeDef
 222:../Libraries/STM32F10x_StdPeriph_Driver/src/stm32f10x_tim.c ****   *         structure that contains the configuration information for the 
 223:../Libraries/STM32F10x_StdPeriph_Driver/src/stm32f10x_tim.c ****   *         specified TIM peripheral.
 224:../Libraries/STM32F10x_StdPeriph_Driver/src/stm32f10x_tim.c ****   * @retval None
 225:../Libraries/STM32F10x_StdPeriph_Driver/src/stm32f10x_tim.c ****   */
 226:../Libraries/STM32F10x_StdPeriph_Driver/src/stm32f10x_tim.c **** void TIM_TimeBaseInit(TIM_TypeDef* TIMx, TIM_TimeBaseInitTypeDef* TIM_TimeBaseInitStruct)
 227:../Libraries/STM32F10x_StdPeriph_Driver/src/stm32f10x_tim.c **** {
 20778              		.loc 1 227 0
 20779              		.cfi_startproc
 20780              		@ args = 0, pretend = 0, frame = 16
 20781              		@ frame_needed = 1, uses_anonymous_args = 0
 20782              		@ link register save eliminated.
 20783 0000 80B4     		push	{r7}
 20784              	.LCFI3:
 20785              		.cfi_def_cfa_offset 4
 20786 0002 85B0     		sub	sp, sp, #20
 20787              	.LCFI4:
 20788              		.cfi_def_cfa_offset 24
 20789 0004 00AF     		add	r7, sp, #0
 20790              		.cfi_offset 7, -4
 20791              	.LCFI5:
 20792              		.cfi_def_cfa_register 7
 20793 0006 7860     		str	r0, [r7, #4]
 20794 0008 3960     		str	r1, [r7, #0]
 228:../Libraries/STM32F10x_StdPeriph_Driver/src/stm32f10x_tim.c ****   uint16_t tmpcr1 = 0;
 20795              		.loc 1 228 0
 20796 000a 4FF00003 		mov	r3, #0
 20797 000e FB81     		strh	r3, [r7, #14]	@ movhi
 229:../Libraries/STM32F10x_StdPeriph_Driver/src/stm32f10x_tim.c **** 
 230:../Libraries/STM32F10x_StdPeriph_Driver/src/stm32f10x_tim.c ****   /* Check the parameters */
 231:../Libraries/STM32F10x_StdPeriph_Driver/src/stm32f10x_tim.c ****   assert_param(IS_TIM_ALL_PERIPH(TIMx)); 
 232:../Libraries/STM32F10x_StdPeriph_Driver/src/stm32f10x_tim.c ****   assert_param(IS_TIM_COUNTER_MODE(TIM_TimeBaseInitStruct->TIM_CounterMode));
 233:../Libraries/STM32F10x_StdPeriph_Driver/src/stm32f10x_tim.c ****   assert_param(IS_TIM_CKD_DIV(TIM_TimeBaseInitStruct->TIM_ClockDivision));
 234:../Libraries/STM32F10x_StdPeriph_Driver/src/stm32f10x_tim.c **** 
 235:../Libraries/STM32F10x_StdPeriph_Driver/src/stm32f10x_tim.c ****   tmpcr1 = TIMx->CR1;  
 20798              		.loc 1 235 0
 20799 0010 7B68     		ldr	r3, [r7, #4]
 20800 0012 1B88     		ldrh	r3, [r3, #0]	@ movhi
 20801 0014 FB81     		strh	r3, [r7, #14]	@ movhi
 236:../Libraries/STM32F10x_StdPeriph_Driver/src/stm32f10x_tim.c **** 
 237:../Libraries/STM32F10x_StdPeriph_Driver/src/stm32f10x_tim.c ****   if((TIMx == TIM1) || (TIMx == TIM8)|| (TIMx == TIM2) || (TIMx == TIM3)||
 20802              		.loc 1 237 0
 20803 0016 7A68     		ldr	r2, [r7, #4]
 20804 0018 2F4B     		ldr	r3, .L27
 20805 001a 9A42     		cmp	r2, r3
 20806 001c 13D0     		beq	.L22
 20807              		.loc 1 237 0 is_stmt 0 discriminator 1
 20808 001e 7A68     		ldr	r2, [r7, #4]
 20809 0020 2E4B     		ldr	r3, .L27+4
 20810 0022 9A42     		cmp	r2, r3
 20811 0024 0FD0     		beq	.L22
 20812 0026 7B68     		ldr	r3, [r7, #4]
 20813 0028 B3F1804F 		cmp	r3, #1073741824
 20814 002c 0BD0     		beq	.L22
 20815 002e 7A68     		ldr	r2, [r7, #4]
 20816 0030 2B4B     		ldr	r3, .L27+8
 20817 0032 9A42     		cmp	r2, r3
 20818 0034 07D0     		beq	.L22
 20819 0036 7A68     		ldr	r2, [r7, #4]
 20820 0038 2A4B     		ldr	r3, .L27+12
 20821 003a 9A42     		cmp	r2, r3
 20822 003c 03D0     		beq	.L22
 238:../Libraries/STM32F10x_StdPeriph_Driver/src/stm32f10x_tim.c ****      (TIMx == TIM4) || (TIMx == TIM5)) 
 20823              		.loc 1 238 0 is_stmt 1
 20824 003e 7A68     		ldr	r2, [r7, #4]
 20825 0040 294B     		ldr	r3, .L27+16
 20826 0042 9A42     		cmp	r2, r3
 20827 0044 09D1     		bne	.L23
 20828              	.L22:
 239:../Libraries/STM32F10x_StdPeriph_Driver/src/stm32f10x_tim.c ****   {
 240:../Libraries/STM32F10x_StdPeriph_Driver/src/stm32f10x_tim.c ****     /* Select the Counter Mode */
 241:../Libraries/STM32F10x_StdPeriph_Driver/src/stm32f10x_tim.c ****     tmpcr1 &= (uint16_t)(~((uint16_t)(TIM_CR1_DIR | TIM_CR1_CMS)));
 20829              		.loc 1 241 0
 20830 0046 FB89     		ldrh	r3, [r7, #14]	@ movhi
 20831 0048 23F07003 		bic	r3, r3, #112
 20832 004c FB81     		strh	r3, [r7, #14]	@ movhi
 242:../Libraries/STM32F10x_StdPeriph_Driver/src/stm32f10x_tim.c ****     tmpcr1 |= (uint32_t)TIM_TimeBaseInitStruct->TIM_CounterMode;
 20833              		.loc 1 242 0
 20834 004e 3B68     		ldr	r3, [r7, #0]
 20835 0050 5A88     		ldrh	r2, [r3, #2]
 20836 0052 FB89     		ldrh	r3, [r7, #14]	@ movhi
 20837 0054 42EA0303 		orr	r3, r2, r3
 20838 0058 FB81     		strh	r3, [r7, #14]	@ movhi
 20839              	.L23:
 243:../Libraries/STM32F10x_StdPeriph_Driver/src/stm32f10x_tim.c ****   }
 244:../Libraries/STM32F10x_StdPeriph_Driver/src/stm32f10x_tim.c ****  
 245:../Libraries/STM32F10x_StdPeriph_Driver/src/stm32f10x_tim.c ****   if((TIMx != TIM6) && (TIMx != TIM7))
 20840              		.loc 1 245 0
 20841 005a 7A68     		ldr	r2, [r7, #4]
 20842 005c 234B     		ldr	r3, .L27+20
 20843 005e 9A42     		cmp	r2, r3
 20844 0060 0DD0     		beq	.L24
 20845              		.loc 1 245 0 is_stmt 0 discriminator 1
 20846 0062 7A68     		ldr	r2, [r7, #4]
 20847 0064 224B     		ldr	r3, .L27+24
 20848 0066 9A42     		cmp	r2, r3
 20849 0068 09D0     		beq	.L24
 246:../Libraries/STM32F10x_StdPeriph_Driver/src/stm32f10x_tim.c ****   {
 247:../Libraries/STM32F10x_StdPeriph_Driver/src/stm32f10x_tim.c ****     /* Set the clock division */
 248:../Libraries/STM32F10x_StdPeriph_Driver/src/stm32f10x_tim.c ****     tmpcr1 &= (uint16_t)(~((uint16_t)TIM_CR1_CKD));
 20850              		.loc 1 248 0 is_stmt 1
 20851 006a FB89     		ldrh	r3, [r7, #14]	@ movhi
 20852 006c 23F44073 		bic	r3, r3, #768
 20853 0070 FB81     		strh	r3, [r7, #14]	@ movhi
 249:../Libraries/STM32F10x_StdPeriph_Driver/src/stm32f10x_tim.c ****     tmpcr1 |= (uint32_t)TIM_TimeBaseInitStruct->TIM_ClockDivision;
 20854              		.loc 1 249 0
 20855 0072 3B68     		ldr	r3, [r7, #0]
 20856 0074 DA88     		ldrh	r2, [r3, #6]
 20857 0076 FB89     		ldrh	r3, [r7, #14]	@ movhi
 20858 0078 42EA0303 		orr	r3, r2, r3
 20859 007c FB81     		strh	r3, [r7, #14]	@ movhi
 20860              	.L24:
 250:../Libraries/STM32F10x_StdPeriph_Driver/src/stm32f10x_tim.c ****   }
 251:../Libraries/STM32F10x_StdPeriph_Driver/src/stm32f10x_tim.c **** 
 252:../Libraries/STM32F10x_StdPeriph_Driver/src/stm32f10x_tim.c ****   TIMx->CR1 = tmpcr1;
 20861              		.loc 1 252 0
 20862 007e 7B68     		ldr	r3, [r7, #4]
 20863 0080 FA89     		ldrh	r2, [r7, #14]	@ movhi
 20864 0082 1A80     		strh	r2, [r3, #0]	@ movhi
 253:../Libraries/STM32F10x_StdPeriph_Driver/src/stm32f10x_tim.c **** 
 254:../Libraries/STM32F10x_StdPeriph_Driver/src/stm32f10x_tim.c ****   /* Set the Autoreload value */
 255:../Libraries/STM32F10x_StdPeriph_Driver/src/stm32f10x_tim.c ****   TIMx->ARR = TIM_TimeBaseInitStruct->TIM_Period ;
 20865              		.loc 1 255 0
 20866 0084 3B68     		ldr	r3, [r7, #0]
 20867 0086 9A88     		ldrh	r2, [r3, #4]
 20868 0088 7B68     		ldr	r3, [r7, #4]
 20869 008a 9A85     		strh	r2, [r3, #44]	@ movhi
 256:../Libraries/STM32F10x_StdPeriph_Driver/src/stm32f10x_tim.c ****  
 257:../Libraries/STM32F10x_StdPeriph_Driver/src/stm32f10x_tim.c ****   /* Set the Prescaler value */
 258:../Libraries/STM32F10x_StdPeriph_Driver/src/stm32f10x_tim.c ****   TIMx->PSC = TIM_TimeBaseInitStruct->TIM_Prescaler;
 20870              		.loc 1 258 0
 20871 008c 3B68     		ldr	r3, [r7, #0]
 20872 008e 1A88     		ldrh	r2, [r3, #0]
 20873 0090 7B68     		ldr	r3, [r7, #4]
 20874 0092 1A85     		strh	r2, [r3, #40]	@ movhi
 259:../Libraries/STM32F10x_StdPeriph_Driver/src/stm32f10x_tim.c ****     
 260:../Libraries/STM32F10x_StdPeriph_Driver/src/stm32f10x_tim.c ****   if ((TIMx == TIM1) || (TIMx == TIM8)|| (TIMx == TIM15)|| (TIMx == TIM16) || (TIMx == TIM17))  
 20875              		.loc 1 260 0
 20876 0094 7A68     		ldr	r2, [r7, #4]
 20877 0096 104B     		ldr	r3, .L27
 20878 0098 9A42     		cmp	r2, r3
 20879 009a 0FD0     		beq	.L25
 20880              		.loc 1 260 0 is_stmt 0 discriminator 1
 20881 009c 7A68     		ldr	r2, [r7, #4]
 20882 009e 0F4B     		ldr	r3, .L27+4
 20883 00a0 9A42     		cmp	r2, r3
 20884 00a2 0BD0     		beq	.L25
 20885 00a4 7A68     		ldr	r2, [r7, #4]
 20886 00a6 134B     		ldr	r3, .L27+28
 20887 00a8 9A42     		cmp	r2, r3
 20888 00aa 07D0     		beq	.L25
 20889 00ac 7A68     		ldr	r2, [r7, #4]
 20890 00ae 124B     		ldr	r3, .L27+32
 20891 00b0 9A42     		cmp	r2, r3
 20892 00b2 03D0     		beq	.L25
 20893 00b4 7A68     		ldr	r2, [r7, #4]
 20894 00b6 114B     		ldr	r3, .L27+36
 20895 00b8 9A42     		cmp	r2, r3
 20896 00ba 04D1     		bne	.L26
 20897              	.L25:
 261:../Libraries/STM32F10x_StdPeriph_Driver/src/stm32f10x_tim.c ****   {
 262:../Libraries/STM32F10x_StdPeriph_Driver/src/stm32f10x_tim.c ****     /* Set the Repetition Counter value */
 263:../Libraries/STM32F10x_StdPeriph_Driver/src/stm32f10x_tim.c ****     TIMx->RCR = TIM_TimeBaseInitStruct->TIM_RepetitionCounter;
 20898              		.loc 1 263 0 is_stmt 1
 20899 00bc 3B68     		ldr	r3, [r7, #0]
 20900 00be 1B7A     		ldrb	r3, [r3, #8]	@ zero_extendqisi2
 20901 00c0 1A46     		mov	r2, r3
 20902 00c2 7B68     		ldr	r3, [r7, #4]
 20903 00c4 1A86     		strh	r2, [r3, #48]	@ movhi
 20904              	.L26:
 264:../Libraries/STM32F10x_StdPeriph_Driver/src/stm32f10x_tim.c ****   }
 265:../Libraries/STM32F10x_StdPeriph_Driver/src/stm32f10x_tim.c **** 
 266:../Libraries/STM32F10x_StdPeriph_Driver/src/stm32f10x_tim.c ****   /* Generate an update event to reload the Prescaler and the Repetition counter
 267:../Libraries/STM32F10x_StdPeriph_Driver/src/stm32f10x_tim.c ****      values immediately */
 268:../Libraries/STM32F10x_StdPeriph_Driver/src/stm32f10x_tim.c ****   TIMx->EGR = TIM_PSCReloadMode_Immediate;           
 20905              		.loc 1 268 0
 20906 00c6 7B68     		ldr	r3, [r7, #4]
 20907 00c8 4FF00102 		mov	r2, #1
 20908 00cc 9A82     		strh	r2, [r3, #20]	@ movhi
 269:../Libraries/STM32F10x_StdPeriph_Driver/src/stm32f10x_tim.c **** }
 20909              		.loc 1 269 0
 20910 00ce 07F11407 		add	r7, r7, #20
 20911 00d2 BD46     		mov	sp, r7
 20912 00d4 80BC     		pop	{r7}
 20913 00d6 7047     		bx	lr
 20914              	.L28:
 20915              		.align	2
 20916              	.L27:
 20917 00d8 002C0140 		.word	1073818624
 20918 00dc 00340140 		.word	1073820672
 20919 00e0 00040040 		.word	1073742848
 20920 00e4 00080040 		.word	1073743872
 20921 00e8 000C0040 		.word	1073744896
 20922 00ec 00100040 		.word	1073745920
 20923 00f0 00140040 		.word	1073746944
 20924 00f4 00400140 		.word	1073823744
 20925 00f8 00440140 		.word	1073824768
 20926 00fc 00480140 		.word	1073825792
 20927              		.cfi_endproc
 20928              	.LFE30:
 20930              		.section	.text.TIM_OC1Init,"ax",%progbits
 20931              		.align	2
 20932              		.global	TIM_OC1Init
 20933              		.thumb
 20934              		.thumb_func
 20936              	TIM_OC1Init:
 20937              	.LFB31:
 270:../Libraries/STM32F10x_StdPeriph_Driver/src/stm32f10x_tim.c **** 
 271:../Libraries/STM32F10x_StdPeriph_Driver/src/stm32f10x_tim.c **** /**
 272:../Libraries/STM32F10x_StdPeriph_Driver/src/stm32f10x_tim.c ****   * @brief  Initializes the TIMx Channel1 according to the specified
 273:../Libraries/STM32F10x_StdPeriph_Driver/src/stm32f10x_tim.c ****   *         parameters in the TIM_OCInitStruct.
 274:../Libraries/STM32F10x_StdPeriph_Driver/src/stm32f10x_tim.c ****   * @param  TIMx: where x can be  1 to 17 except 6 and 7 to select the TIM peripheral.
 275:../Libraries/STM32F10x_StdPeriph_Driver/src/stm32f10x_tim.c ****   * @param  TIM_OCInitStruct: pointer to a TIM_OCInitTypeDef structure
 276:../Libraries/STM32F10x_StdPeriph_Driver/src/stm32f10x_tim.c ****   *         that contains the configuration information for the specified TIM peripheral.
 277:../Libraries/STM32F10x_StdPeriph_Driver/src/stm32f10x_tim.c ****   * @retval None
 278:../Libraries/STM32F10x_StdPeriph_Driver/src/stm32f10x_tim.c ****   */
 279:../Libraries/STM32F10x_StdPeriph_Driver/src/stm32f10x_tim.c **** void TIM_OC1Init(TIM_TypeDef* TIMx, TIM_OCInitTypeDef* TIM_OCInitStruct)
 280:../Libraries/STM32F10x_StdPeriph_Driver/src/stm32f10x_tim.c **** {
 20938              		.loc 1 280 0
 20939              		.cfi_startproc
 20940              		@ args = 0, pretend = 0, frame = 16
 20941              		@ frame_needed = 1, uses_anonymous_args = 0
 20942              		@ link register save eliminated.
 20943 0000 80B4     		push	{r7}
 20944              	.LCFI6:
 20945              		.cfi_def_cfa_offset 4
 20946 0002 85B0     		sub	sp, sp, #20
 20947              	.LCFI7:
 20948              		.cfi_def_cfa_offset 24
 20949 0004 00AF     		add	r7, sp, #0
 20950              		.cfi_offset 7, -4
 20951              	.LCFI8:
 20952              		.cfi_def_cfa_register 7
 20953 0006 7860     		str	r0, [r7, #4]
 20954 0008 3960     		str	r1, [r7, #0]
 281:../Libraries/STM32F10x_StdPeriph_Driver/src/stm32f10x_tim.c ****   uint16_t tmpccmrx = 0, tmpccer = 0, tmpcr2 = 0;
 20955              		.loc 1 281 0
 20956 000a 4FF00003 		mov	r3, #0
 20957 000e 7B81     		strh	r3, [r7, #10]	@ movhi
 20958 0010 4FF00003 		mov	r3, #0
 20959 0014 FB81     		strh	r3, [r7, #14]	@ movhi
 20960 0016 4FF00003 		mov	r3, #0
 20961 001a BB81     		strh	r3, [r7, #12]	@ movhi
 282:../Libraries/STM32F10x_StdPeriph_Driver/src/stm32f10x_tim.c ****    
 283:../Libraries/STM32F10x_StdPeriph_Driver/src/stm32f10x_tim.c ****   /* Check the parameters */
 284:../Libraries/STM32F10x_StdPeriph_Driver/src/stm32f10x_tim.c ****   assert_param(IS_TIM_LIST8_PERIPH(TIMx));
 285:../Libraries/STM32F10x_StdPeriph_Driver/src/stm32f10x_tim.c ****   assert_param(IS_TIM_OC_MODE(TIM_OCInitStruct->TIM_OCMode));
 286:../Libraries/STM32F10x_StdPeriph_Driver/src/stm32f10x_tim.c ****   assert_param(IS_TIM_OUTPUT_STATE(TIM_OCInitStruct->TIM_OutputState));
 287:../Libraries/STM32F10x_StdPeriph_Driver/src/stm32f10x_tim.c ****   assert_param(IS_TIM_OC_POLARITY(TIM_OCInitStruct->TIM_OCPolarity));   
 288:../Libraries/STM32F10x_StdPeriph_Driver/src/stm32f10x_tim.c ****  /* Disable the Channel 1: Reset the CC1E Bit */
 289:../Libraries/STM32F10x_StdPeriph_Driver/src/stm32f10x_tim.c ****   TIMx->CCER &= (uint16_t)(~(uint16_t)TIM_CCER_CC1E);
 20962              		.loc 1 289 0
 20963 001c 7B68     		ldr	r3, [r7, #4]
 20964 001e 1B8C     		ldrh	r3, [r3, #32]	@ movhi
 20965 0020 9BB2     		uxth	r3, r3
 20966 0022 23F00103 		bic	r3, r3, #1
 20967 0026 9AB2     		uxth	r2, r3
 20968 0028 7B68     		ldr	r3, [r7, #4]
 20969 002a 1A84     		strh	r2, [r3, #32]	@ movhi
 290:../Libraries/STM32F10x_StdPeriph_Driver/src/stm32f10x_tim.c ****   /* Get the TIMx CCER register value */
 291:../Libraries/STM32F10x_StdPeriph_Driver/src/stm32f10x_tim.c ****   tmpccer = TIMx->CCER;
 20970              		.loc 1 291 0
 20971 002c 7B68     		ldr	r3, [r7, #4]
 20972 002e 1B8C     		ldrh	r3, [r3, #32]	@ movhi
 20973 0030 FB81     		strh	r3, [r7, #14]	@ movhi
 292:../Libraries/STM32F10x_StdPeriph_Driver/src/stm32f10x_tim.c ****   /* Get the TIMx CR2 register value */
 293:../Libraries/STM32F10x_StdPeriph_Driver/src/stm32f10x_tim.c ****   tmpcr2 =  TIMx->CR2;
 20974              		.loc 1 293 0
 20975 0032 7B68     		ldr	r3, [r7, #4]
 20976 0034 9B88     		ldrh	r3, [r3, #4]	@ movhi
 20977 0036 BB81     		strh	r3, [r7, #12]	@ movhi
 294:../Libraries/STM32F10x_StdPeriph_Driver/src/stm32f10x_tim.c ****   
 295:../Libraries/STM32F10x_StdPeriph_Driver/src/stm32f10x_tim.c ****   /* Get the TIMx CCMR1 register value */
 296:../Libraries/STM32F10x_StdPeriph_Driver/src/stm32f10x_tim.c ****   tmpccmrx = TIMx->CCMR1;
 20978              		.loc 1 296 0
 20979 0038 7B68     		ldr	r3, [r7, #4]
 20980 003a 1B8B     		ldrh	r3, [r3, #24]	@ movhi
 20981 003c 7B81     		strh	r3, [r7, #10]	@ movhi
 297:../Libraries/STM32F10x_StdPeriph_Driver/src/stm32f10x_tim.c ****     
 298:../Libraries/STM32F10x_StdPeriph_Driver/src/stm32f10x_tim.c ****   /* Reset the Output Compare Mode Bits */
 299:../Libraries/STM32F10x_StdPeriph_Driver/src/stm32f10x_tim.c ****   tmpccmrx &= (uint16_t)(~((uint16_t)TIM_CCMR1_OC1M));
 20982              		.loc 1 299 0
 20983 003e 7B89     		ldrh	r3, [r7, #10]	@ movhi
 20984 0040 23F07003 		bic	r3, r3, #112
 20985 0044 7B81     		strh	r3, [r7, #10]	@ movhi
 300:../Libraries/STM32F10x_StdPeriph_Driver/src/stm32f10x_tim.c ****   tmpccmrx &= (uint16_t)(~((uint16_t)TIM_CCMR1_CC1S));
 20986              		.loc 1 300 0
 20987 0046 7B89     		ldrh	r3, [r7, #10]	@ movhi
 20988 0048 23F00303 		bic	r3, r3, #3
 20989 004c 7B81     		strh	r3, [r7, #10]	@ movhi
 301:../Libraries/STM32F10x_StdPeriph_Driver/src/stm32f10x_tim.c **** 
 302:../Libraries/STM32F10x_StdPeriph_Driver/src/stm32f10x_tim.c ****   /* Select the Output Compare Mode */
 303:../Libraries/STM32F10x_StdPeriph_Driver/src/stm32f10x_tim.c ****   tmpccmrx |= TIM_OCInitStruct->TIM_OCMode;
 20990              		.loc 1 303 0
 20991 004e 3B68     		ldr	r3, [r7, #0]
 20992 0050 1A88     		ldrh	r2, [r3, #0]
 20993 0052 7B89     		ldrh	r3, [r7, #10]	@ movhi
 20994 0054 42EA0303 		orr	r3, r2, r3
 20995 0058 7B81     		strh	r3, [r7, #10]	@ movhi
 304:../Libraries/STM32F10x_StdPeriph_Driver/src/stm32f10x_tim.c ****   
 305:../Libraries/STM32F10x_StdPeriph_Driver/src/stm32f10x_tim.c ****   /* Reset the Output Polarity level */
 306:../Libraries/STM32F10x_StdPeriph_Driver/src/stm32f10x_tim.c ****   tmpccer &= (uint16_t)(~((uint16_t)TIM_CCER_CC1P));
 20996              		.loc 1 306 0
 20997 005a FB89     		ldrh	r3, [r7, #14]	@ movhi
 20998 005c 23F00203 		bic	r3, r3, #2
 20999 0060 FB81     		strh	r3, [r7, #14]	@ movhi
 307:../Libraries/STM32F10x_StdPeriph_Driver/src/stm32f10x_tim.c ****   /* Set the Output Compare Polarity */
 308:../Libraries/STM32F10x_StdPeriph_Driver/src/stm32f10x_tim.c ****   tmpccer |= TIM_OCInitStruct->TIM_OCPolarity;
 21000              		.loc 1 308 0
 21001 0062 3B68     		ldr	r3, [r7, #0]
 21002 0064 1A89     		ldrh	r2, [r3, #8]
 21003 0066 FB89     		ldrh	r3, [r7, #14]	@ movhi
 21004 0068 42EA0303 		orr	r3, r2, r3
 21005 006c FB81     		strh	r3, [r7, #14]	@ movhi
 309:../Libraries/STM32F10x_StdPeriph_Driver/src/stm32f10x_tim.c ****   
 310:../Libraries/STM32F10x_StdPeriph_Driver/src/stm32f10x_tim.c ****   /* Set the Output State */
 311:../Libraries/STM32F10x_StdPeriph_Driver/src/stm32f10x_tim.c ****   tmpccer |= TIM_OCInitStruct->TIM_OutputState;
 21006              		.loc 1 311 0
 21007 006e 3B68     		ldr	r3, [r7, #0]
 21008 0070 5A88     		ldrh	r2, [r3, #2]
 21009 0072 FB89     		ldrh	r3, [r7, #14]	@ movhi
 21010 0074 42EA0303 		orr	r3, r2, r3
 21011 0078 FB81     		strh	r3, [r7, #14]	@ movhi
 312:../Libraries/STM32F10x_StdPeriph_Driver/src/stm32f10x_tim.c ****     
 313:../Libraries/STM32F10x_StdPeriph_Driver/src/stm32f10x_tim.c ****   if((TIMx == TIM1) || (TIMx == TIM8)|| (TIMx == TIM15)||
 21012              		.loc 1 313 0
 21013 007a 7A68     		ldr	r2, [r7, #4]
 21014 007c 264B     		ldr	r3, .L32
 21015 007e 9A42     		cmp	r2, r3
 21016 0080 0FD0     		beq	.L30
 21017              		.loc 1 313 0 is_stmt 0 discriminator 1
 21018 0082 7A68     		ldr	r2, [r7, #4]
 21019 0084 254B     		ldr	r3, .L32+4
 21020 0086 9A42     		cmp	r2, r3
 21021 0088 0BD0     		beq	.L30
 21022 008a 7A68     		ldr	r2, [r7, #4]
 21023 008c 244B     		ldr	r3, .L32+8
 21024 008e 9A42     		cmp	r2, r3
 21025 0090 07D0     		beq	.L30
 21026 0092 7A68     		ldr	r2, [r7, #4]
 21027 0094 234B     		ldr	r3, .L32+12
 21028 0096 9A42     		cmp	r2, r3
 21029 0098 03D0     		beq	.L30
 314:../Libraries/STM32F10x_StdPeriph_Driver/src/stm32f10x_tim.c ****      (TIMx == TIM16)|| (TIMx == TIM17))
 21030              		.loc 1 314 0 is_stmt 1
 21031 009a 7A68     		ldr	r2, [r7, #4]
 21032 009c 224B     		ldr	r3, .L32+16
 21033 009e 9A42     		cmp	r2, r3
 21034 00a0 27D1     		bne	.L31
 21035              	.L30:
 315:../Libraries/STM32F10x_StdPeriph_Driver/src/stm32f10x_tim.c ****   {
 316:../Libraries/STM32F10x_StdPeriph_Driver/src/stm32f10x_tim.c ****     assert_param(IS_TIM_OUTPUTN_STATE(TIM_OCInitStruct->TIM_OutputNState));
 317:../Libraries/STM32F10x_StdPeriph_Driver/src/stm32f10x_tim.c ****     assert_param(IS_TIM_OCN_POLARITY(TIM_OCInitStruct->TIM_OCNPolarity));
 318:../Libraries/STM32F10x_StdPeriph_Driver/src/stm32f10x_tim.c ****     assert_param(IS_TIM_OCNIDLE_STATE(TIM_OCInitStruct->TIM_OCNIdleState));
 319:../Libraries/STM32F10x_StdPeriph_Driver/src/stm32f10x_tim.c ****     assert_param(IS_TIM_OCIDLE_STATE(TIM_OCInitStruct->TIM_OCIdleState));
 320:../Libraries/STM32F10x_StdPeriph_Driver/src/stm32f10x_tim.c ****     
 321:../Libraries/STM32F10x_StdPeriph_Driver/src/stm32f10x_tim.c ****     /* Reset the Output N Polarity level */
 322:../Libraries/STM32F10x_StdPeriph_Driver/src/stm32f10x_tim.c ****     tmpccer &= (uint16_t)(~((uint16_t)TIM_CCER_CC1NP));
 21036              		.loc 1 322 0
 21037 00a2 FB89     		ldrh	r3, [r7, #14]	@ movhi
 21038 00a4 23F00803 		bic	r3, r3, #8
 21039 00a8 FB81     		strh	r3, [r7, #14]	@ movhi
 323:../Libraries/STM32F10x_StdPeriph_Driver/src/stm32f10x_tim.c ****     /* Set the Output N Polarity */
 324:../Libraries/STM32F10x_StdPeriph_Driver/src/stm32f10x_tim.c ****     tmpccer |= TIM_OCInitStruct->TIM_OCNPolarity;
 21040              		.loc 1 324 0
 21041 00aa 3B68     		ldr	r3, [r7, #0]
 21042 00ac 5A89     		ldrh	r2, [r3, #10]
 21043 00ae FB89     		ldrh	r3, [r7, #14]	@ movhi
 21044 00b0 42EA0303 		orr	r3, r2, r3
 21045 00b4 FB81     		strh	r3, [r7, #14]	@ movhi
 325:../Libraries/STM32F10x_StdPeriph_Driver/src/stm32f10x_tim.c ****     
 326:../Libraries/STM32F10x_StdPeriph_Driver/src/stm32f10x_tim.c ****     /* Reset the Output N State */
 327:../Libraries/STM32F10x_StdPeriph_Driver/src/stm32f10x_tim.c ****     tmpccer &= (uint16_t)(~((uint16_t)TIM_CCER_CC1NE));    
 21046              		.loc 1 327 0
 21047 00b6 FB89     		ldrh	r3, [r7, #14]	@ movhi
 21048 00b8 23F00403 		bic	r3, r3, #4
 21049 00bc FB81     		strh	r3, [r7, #14]	@ movhi
 328:../Libraries/STM32F10x_StdPeriph_Driver/src/stm32f10x_tim.c ****     /* Set the Output N State */
 329:../Libraries/STM32F10x_StdPeriph_Driver/src/stm32f10x_tim.c ****     tmpccer |= TIM_OCInitStruct->TIM_OutputNState;
 21050              		.loc 1 329 0
 21051 00be 3B68     		ldr	r3, [r7, #0]
 21052 00c0 9A88     		ldrh	r2, [r3, #4]
 21053 00c2 FB89     		ldrh	r3, [r7, #14]	@ movhi
 21054 00c4 42EA0303 		orr	r3, r2, r3
 21055 00c8 FB81     		strh	r3, [r7, #14]	@ movhi
 330:../Libraries/STM32F10x_StdPeriph_Driver/src/stm32f10x_tim.c ****     
 331:../Libraries/STM32F10x_StdPeriph_Driver/src/stm32f10x_tim.c ****     /* Reset the Output Compare and Output Compare N IDLE State */
 332:../Libraries/STM32F10x_StdPeriph_Driver/src/stm32f10x_tim.c ****     tmpcr2 &= (uint16_t)(~((uint16_t)TIM_CR2_OIS1));
 21056              		.loc 1 332 0
 21057 00ca BB89     		ldrh	r3, [r7, #12]	@ movhi
 21058 00cc 23F48073 		bic	r3, r3, #256
 21059 00d0 BB81     		strh	r3, [r7, #12]	@ movhi
 333:../Libraries/STM32F10x_StdPeriph_Driver/src/stm32f10x_tim.c ****     tmpcr2 &= (uint16_t)(~((uint16_t)TIM_CR2_OIS1N));
 21060              		.loc 1 333 0
 21061 00d2 BB89     		ldrh	r3, [r7, #12]	@ movhi
 21062 00d4 23F40073 		bic	r3, r3, #512
 21063 00d8 BB81     		strh	r3, [r7, #12]	@ movhi
 334:../Libraries/STM32F10x_StdPeriph_Driver/src/stm32f10x_tim.c ****     
 335:../Libraries/STM32F10x_StdPeriph_Driver/src/stm32f10x_tim.c ****     /* Set the Output Idle state */
 336:../Libraries/STM32F10x_StdPeriph_Driver/src/stm32f10x_tim.c ****     tmpcr2 |= TIM_OCInitStruct->TIM_OCIdleState;
 21064              		.loc 1 336 0
 21065 00da 3B68     		ldr	r3, [r7, #0]
 21066 00dc 9A89     		ldrh	r2, [r3, #12]
 21067 00de BB89     		ldrh	r3, [r7, #12]	@ movhi
 21068 00e0 42EA0303 		orr	r3, r2, r3
 21069 00e4 BB81     		strh	r3, [r7, #12]	@ movhi
 337:../Libraries/STM32F10x_StdPeriph_Driver/src/stm32f10x_tim.c ****     /* Set the Output N Idle state */
 338:../Libraries/STM32F10x_StdPeriph_Driver/src/stm32f10x_tim.c ****     tmpcr2 |= TIM_OCInitStruct->TIM_OCNIdleState;
 21070              		.loc 1 338 0
 21071 00e6 3B68     		ldr	r3, [r7, #0]
 21072 00e8 DA89     		ldrh	r2, [r3, #14]
 21073 00ea BB89     		ldrh	r3, [r7, #12]	@ movhi
 21074 00ec 42EA0303 		orr	r3, r2, r3
 21075 00f0 BB81     		strh	r3, [r7, #12]	@ movhi
 21076              	.L31:
 339:../Libraries/STM32F10x_StdPeriph_Driver/src/stm32f10x_tim.c ****   }
 340:../Libraries/STM32F10x_StdPeriph_Driver/src/stm32f10x_tim.c ****   /* Write to TIMx CR2 */
 341:../Libraries/STM32F10x_StdPeriph_Driver/src/stm32f10x_tim.c ****   TIMx->CR2 = tmpcr2;
 21077              		.loc 1 341 0
 21078 00f2 7B68     		ldr	r3, [r7, #4]
 21079 00f4 BA89     		ldrh	r2, [r7, #12]	@ movhi
 21080 00f6 9A80     		strh	r2, [r3, #4]	@ movhi
 342:../Libraries/STM32F10x_StdPeriph_Driver/src/stm32f10x_tim.c ****   
 343:../Libraries/STM32F10x_StdPeriph_Driver/src/stm32f10x_tim.c ****   /* Write to TIMx CCMR1 */
 344:../Libraries/STM32F10x_StdPeriph_Driver/src/stm32f10x_tim.c ****   TIMx->CCMR1 = tmpccmrx;
 21081              		.loc 1 344 0
 21082 00f8 7B68     		ldr	r3, [r7, #4]
 21083 00fa 7A89     		ldrh	r2, [r7, #10]	@ movhi
 21084 00fc 1A83     		strh	r2, [r3, #24]	@ movhi
 345:../Libraries/STM32F10x_StdPeriph_Driver/src/stm32f10x_tim.c **** 
 346:../Libraries/STM32F10x_StdPeriph_Driver/src/stm32f10x_tim.c ****   /* Set the Capture Compare Register value */
 347:../Libraries/STM32F10x_StdPeriph_Driver/src/stm32f10x_tim.c ****   TIMx->CCR1 = TIM_OCInitStruct->TIM_Pulse; 
 21085              		.loc 1 347 0
 21086 00fe 3B68     		ldr	r3, [r7, #0]
 21087 0100 DA88     		ldrh	r2, [r3, #6]
 21088 0102 7B68     		ldr	r3, [r7, #4]
 21089 0104 9A86     		strh	r2, [r3, #52]	@ movhi
 348:../Libraries/STM32F10x_StdPeriph_Driver/src/stm32f10x_tim.c ****  
 349:../Libraries/STM32F10x_StdPeriph_Driver/src/stm32f10x_tim.c ****   /* Write to TIMx CCER */
 350:../Libraries/STM32F10x_StdPeriph_Driver/src/stm32f10x_tim.c ****   TIMx->CCER = tmpccer;
 21090              		.loc 1 350 0
 21091 0106 7B68     		ldr	r3, [r7, #4]
 21092 0108 FA89     		ldrh	r2, [r7, #14]	@ movhi
 21093 010a 1A84     		strh	r2, [r3, #32]	@ movhi
 351:../Libraries/STM32F10x_StdPeriph_Driver/src/stm32f10x_tim.c **** }
 21094              		.loc 1 351 0
 21095 010c 07F11407 		add	r7, r7, #20
 21096 0110 BD46     		mov	sp, r7
 21097 0112 80BC     		pop	{r7}
 21098 0114 7047     		bx	lr
 21099              	.L33:
 21100 0116 00BF     		.align	2
 21101              	.L32:
 21102 0118 002C0140 		.word	1073818624
 21103 011c 00340140 		.word	1073820672
 21104 0120 00400140 		.word	1073823744
 21105 0124 00440140 		.word	1073824768
 21106 0128 00480140 		.word	1073825792
 21107              		.cfi_endproc
 21108              	.LFE31:
 21110              		.section	.text.TIM_OC2Init,"ax",%progbits
 21111              		.align	2
 21112              		.global	TIM_OC2Init
 21113              		.thumb
 21114              		.thumb_func
 21116              	TIM_OC2Init:
 21117              	.LFB32:
 352:../Libraries/STM32F10x_StdPeriph_Driver/src/stm32f10x_tim.c **** 
 353:../Libraries/STM32F10x_StdPeriph_Driver/src/stm32f10x_tim.c **** /**
 354:../Libraries/STM32F10x_StdPeriph_Driver/src/stm32f10x_tim.c ****   * @brief  Initializes the TIMx Channel2 according to the specified
 355:../Libraries/STM32F10x_StdPeriph_Driver/src/stm32f10x_tim.c ****   *         parameters in the TIM_OCInitStruct.
 356:../Libraries/STM32F10x_StdPeriph_Driver/src/stm32f10x_tim.c ****   * @param  TIMx: where x can be  1, 2, 3, 4, 5, 8, 9, 12 or 15 to select 
 357:../Libraries/STM32F10x_StdPeriph_Driver/src/stm32f10x_tim.c ****   *         the TIM peripheral.
 358:../Libraries/STM32F10x_StdPeriph_Driver/src/stm32f10x_tim.c ****   * @param  TIM_OCInitStruct: pointer to a TIM_OCInitTypeDef structure
 359:../Libraries/STM32F10x_StdPeriph_Driver/src/stm32f10x_tim.c ****   *         that contains the configuration information for the specified TIM peripheral.
 360:../Libraries/STM32F10x_StdPeriph_Driver/src/stm32f10x_tim.c ****   * @retval None
 361:../Libraries/STM32F10x_StdPeriph_Driver/src/stm32f10x_tim.c ****   */
 362:../Libraries/STM32F10x_StdPeriph_Driver/src/stm32f10x_tim.c **** void TIM_OC2Init(TIM_TypeDef* TIMx, TIM_OCInitTypeDef* TIM_OCInitStruct)
 363:../Libraries/STM32F10x_StdPeriph_Driver/src/stm32f10x_tim.c **** {
 21118              		.loc 1 363 0
 21119              		.cfi_startproc
 21120              		@ args = 0, pretend = 0, frame = 16
 21121              		@ frame_needed = 1, uses_anonymous_args = 0
 21122              		@ link register save eliminated.
 21123 0000 80B4     		push	{r7}
 21124              	.LCFI9:
 21125              		.cfi_def_cfa_offset 4
 21126 0002 85B0     		sub	sp, sp, #20
 21127              	.LCFI10:
 21128              		.cfi_def_cfa_offset 24
 21129 0004 00AF     		add	r7, sp, #0
 21130              		.cfi_offset 7, -4
 21131              	.LCFI11:
 21132              		.cfi_def_cfa_register 7
 21133 0006 7860     		str	r0, [r7, #4]
 21134 0008 3960     		str	r1, [r7, #0]
 364:../Libraries/STM32F10x_StdPeriph_Driver/src/stm32f10x_tim.c ****   uint16_t tmpccmrx = 0, tmpccer = 0, tmpcr2 = 0;
 21135              		.loc 1 364 0
 21136 000a 4FF00003 		mov	r3, #0
 21137 000e 7B81     		strh	r3, [r7, #10]	@ movhi
 21138 0010 4FF00003 		mov	r3, #0
 21139 0014 FB81     		strh	r3, [r7, #14]	@ movhi
 21140 0016 4FF00003 		mov	r3, #0
 21141 001a BB81     		strh	r3, [r7, #12]	@ movhi
 365:../Libraries/STM32F10x_StdPeriph_Driver/src/stm32f10x_tim.c ****    
 366:../Libraries/STM32F10x_StdPeriph_Driver/src/stm32f10x_tim.c ****   /* Check the parameters */
 367:../Libraries/STM32F10x_StdPeriph_Driver/src/stm32f10x_tim.c ****   assert_param(IS_TIM_LIST6_PERIPH(TIMx)); 
 368:../Libraries/STM32F10x_StdPeriph_Driver/src/stm32f10x_tim.c ****   assert_param(IS_TIM_OC_MODE(TIM_OCInitStruct->TIM_OCMode));
 369:../Libraries/STM32F10x_StdPeriph_Driver/src/stm32f10x_tim.c ****   assert_param(IS_TIM_OUTPUT_STATE(TIM_OCInitStruct->TIM_OutputState));
 370:../Libraries/STM32F10x_StdPeriph_Driver/src/stm32f10x_tim.c ****   assert_param(IS_TIM_OC_POLARITY(TIM_OCInitStruct->TIM_OCPolarity));   
 371:../Libraries/STM32F10x_StdPeriph_Driver/src/stm32f10x_tim.c ****    /* Disable the Channel 2: Reset the CC2E Bit */
 372:../Libraries/STM32F10x_StdPeriph_Driver/src/stm32f10x_tim.c ****   TIMx->CCER &= (uint16_t)(~((uint16_t)TIM_CCER_CC2E));
 21142              		.loc 1 372 0
 21143 001c 7B68     		ldr	r3, [r7, #4]
 21144 001e 1B8C     		ldrh	r3, [r3, #32]	@ movhi
 21145 0020 9BB2     		uxth	r3, r3
 21146 0022 23F01003 		bic	r3, r3, #16
 21147 0026 9AB2     		uxth	r2, r3
 21148 0028 7B68     		ldr	r3, [r7, #4]
 21149 002a 1A84     		strh	r2, [r3, #32]	@ movhi
 373:../Libraries/STM32F10x_StdPeriph_Driver/src/stm32f10x_tim.c ****   
 374:../Libraries/STM32F10x_StdPeriph_Driver/src/stm32f10x_tim.c ****   /* Get the TIMx CCER register value */  
 375:../Libraries/STM32F10x_StdPeriph_Driver/src/stm32f10x_tim.c ****   tmpccer = TIMx->CCER;
 21150              		.loc 1 375 0
 21151 002c 7B68     		ldr	r3, [r7, #4]
 21152 002e 1B8C     		ldrh	r3, [r3, #32]	@ movhi
 21153 0030 FB81     		strh	r3, [r7, #14]	@ movhi
 376:../Libraries/STM32F10x_StdPeriph_Driver/src/stm32f10x_tim.c ****   /* Get the TIMx CR2 register value */
 377:../Libraries/STM32F10x_StdPeriph_Driver/src/stm32f10x_tim.c ****   tmpcr2 =  TIMx->CR2;
 21154              		.loc 1 377 0
 21155 0032 7B68     		ldr	r3, [r7, #4]
 21156 0034 9B88     		ldrh	r3, [r3, #4]	@ movhi
 21157 0036 BB81     		strh	r3, [r7, #12]	@ movhi
 378:../Libraries/STM32F10x_StdPeriph_Driver/src/stm32f10x_tim.c ****   
 379:../Libraries/STM32F10x_StdPeriph_Driver/src/stm32f10x_tim.c ****   /* Get the TIMx CCMR1 register value */
 380:../Libraries/STM32F10x_StdPeriph_Driver/src/stm32f10x_tim.c ****   tmpccmrx = TIMx->CCMR1;
 21158              		.loc 1 380 0
 21159 0038 7B68     		ldr	r3, [r7, #4]
 21160 003a 1B8B     		ldrh	r3, [r3, #24]	@ movhi
 21161 003c 7B81     		strh	r3, [r7, #10]	@ movhi
 381:../Libraries/STM32F10x_StdPeriph_Driver/src/stm32f10x_tim.c ****     
 382:../Libraries/STM32F10x_StdPeriph_Driver/src/stm32f10x_tim.c ****   /* Reset the Output Compare mode and Capture/Compare selection Bits */
 383:../Libraries/STM32F10x_StdPeriph_Driver/src/stm32f10x_tim.c ****   tmpccmrx &= (uint16_t)(~((uint16_t)TIM_CCMR1_OC2M));
 21162              		.loc 1 383 0
 21163 003e 7B89     		ldrh	r3, [r7, #10]	@ movhi
 21164 0040 23F4E043 		bic	r3, r3, #28672
 21165 0044 7B81     		strh	r3, [r7, #10]	@ movhi
 384:../Libraries/STM32F10x_StdPeriph_Driver/src/stm32f10x_tim.c ****   tmpccmrx &= (uint16_t)(~((uint16_t)TIM_CCMR1_CC2S));
 21166              		.loc 1 384 0
 21167 0046 7B89     		ldrh	r3, [r7, #10]	@ movhi
 21168 0048 23F44073 		bic	r3, r3, #768
 21169 004c 7B81     		strh	r3, [r7, #10]	@ movhi
 385:../Libraries/STM32F10x_StdPeriph_Driver/src/stm32f10x_tim.c ****   
 386:../Libraries/STM32F10x_StdPeriph_Driver/src/stm32f10x_tim.c ****   /* Select the Output Compare Mode */
 387:../Libraries/STM32F10x_StdPeriph_Driver/src/stm32f10x_tim.c ****   tmpccmrx |= (uint16_t)(TIM_OCInitStruct->TIM_OCMode << 8);
 21170              		.loc 1 387 0
 21171 004e 3B68     		ldr	r3, [r7, #0]
 21172 0050 1B88     		ldrh	r3, [r3, #0]
 21173 0052 4FEA0323 		lsl	r3, r3, #8
 21174 0056 9AB2     		uxth	r2, r3
 21175 0058 7B89     		ldrh	r3, [r7, #10]	@ movhi
 21176 005a 42EA0303 		orr	r3, r2, r3
 21177 005e 7B81     		strh	r3, [r7, #10]	@ movhi
 388:../Libraries/STM32F10x_StdPeriph_Driver/src/stm32f10x_tim.c ****   
 389:../Libraries/STM32F10x_StdPeriph_Driver/src/stm32f10x_tim.c ****   /* Reset the Output Polarity level */
 390:../Libraries/STM32F10x_StdPeriph_Driver/src/stm32f10x_tim.c ****   tmpccer &= (uint16_t)(~((uint16_t)TIM_CCER_CC2P));
 21178              		.loc 1 390 0
 21179 0060 FB89     		ldrh	r3, [r7, #14]	@ movhi
 21180 0062 23F02003 		bic	r3, r3, #32
 21181 0066 FB81     		strh	r3, [r7, #14]	@ movhi
 391:../Libraries/STM32F10x_StdPeriph_Driver/src/stm32f10x_tim.c ****   /* Set the Output Compare Polarity */
 392:../Libraries/STM32F10x_StdPeriph_Driver/src/stm32f10x_tim.c ****   tmpccer |= (uint16_t)(TIM_OCInitStruct->TIM_OCPolarity << 4);
 21182              		.loc 1 392 0
 21183 0068 3B68     		ldr	r3, [r7, #0]
 21184 006a 1B89     		ldrh	r3, [r3, #8]
 21185 006c 4FEA0313 		lsl	r3, r3, #4
 21186 0070 9AB2     		uxth	r2, r3
 21187 0072 FB89     		ldrh	r3, [r7, #14]	@ movhi
 21188 0074 42EA0303 		orr	r3, r2, r3
 21189 0078 FB81     		strh	r3, [r7, #14]	@ movhi
 393:../Libraries/STM32F10x_StdPeriph_Driver/src/stm32f10x_tim.c ****   
 394:../Libraries/STM32F10x_StdPeriph_Driver/src/stm32f10x_tim.c ****   /* Set the Output State */
 395:../Libraries/STM32F10x_StdPeriph_Driver/src/stm32f10x_tim.c ****   tmpccer |= (uint16_t)(TIM_OCInitStruct->TIM_OutputState << 4);
 21190              		.loc 1 395 0
 21191 007a 3B68     		ldr	r3, [r7, #0]
 21192 007c 5B88     		ldrh	r3, [r3, #2]
 21193 007e 4FEA0313 		lsl	r3, r3, #4
 21194 0082 9AB2     		uxth	r2, r3
 21195 0084 FB89     		ldrh	r3, [r7, #14]	@ movhi
 21196 0086 42EA0303 		orr	r3, r2, r3
 21197 008a FB81     		strh	r3, [r7, #14]	@ movhi
 396:../Libraries/STM32F10x_StdPeriph_Driver/src/stm32f10x_tim.c ****     
 397:../Libraries/STM32F10x_StdPeriph_Driver/src/stm32f10x_tim.c ****   if((TIMx == TIM1) || (TIMx == TIM8))
 21198              		.loc 1 397 0
 21199 008c 7A68     		ldr	r2, [r7, #4]
 21200 008e 264B     		ldr	r3, .L37
 21201 0090 9A42     		cmp	r2, r3
 21202 0092 03D0     		beq	.L35
 21203              		.loc 1 397 0 is_stmt 0 discriminator 1
 21204 0094 7A68     		ldr	r2, [r7, #4]
 21205 0096 254B     		ldr	r3, .L37+4
 21206 0098 9A42     		cmp	r2, r3
 21207 009a 33D1     		bne	.L36
 21208              	.L35:
 398:../Libraries/STM32F10x_StdPeriph_Driver/src/stm32f10x_tim.c ****   {
 399:../Libraries/STM32F10x_StdPeriph_Driver/src/stm32f10x_tim.c ****     assert_param(IS_TIM_OUTPUTN_STATE(TIM_OCInitStruct->TIM_OutputNState));
 400:../Libraries/STM32F10x_StdPeriph_Driver/src/stm32f10x_tim.c ****     assert_param(IS_TIM_OCN_POLARITY(TIM_OCInitStruct->TIM_OCNPolarity));
 401:../Libraries/STM32F10x_StdPeriph_Driver/src/stm32f10x_tim.c ****     assert_param(IS_TIM_OCNIDLE_STATE(TIM_OCInitStruct->TIM_OCNIdleState));
 402:../Libraries/STM32F10x_StdPeriph_Driver/src/stm32f10x_tim.c ****     assert_param(IS_TIM_OCIDLE_STATE(TIM_OCInitStruct->TIM_OCIdleState));
 403:../Libraries/STM32F10x_StdPeriph_Driver/src/stm32f10x_tim.c ****     
 404:../Libraries/STM32F10x_StdPeriph_Driver/src/stm32f10x_tim.c ****     /* Reset the Output N Polarity level */
 405:../Libraries/STM32F10x_StdPeriph_Driver/src/stm32f10x_tim.c ****     tmpccer &= (uint16_t)(~((uint16_t)TIM_CCER_CC2NP));
 21209              		.loc 1 405 0 is_stmt 1
 21210 009c FB89     		ldrh	r3, [r7, #14]	@ movhi
 21211 009e 23F08003 		bic	r3, r3, #128
 21212 00a2 FB81     		strh	r3, [r7, #14]	@ movhi
 406:../Libraries/STM32F10x_StdPeriph_Driver/src/stm32f10x_tim.c ****     /* Set the Output N Polarity */
 407:../Libraries/STM32F10x_StdPeriph_Driver/src/stm32f10x_tim.c ****     tmpccer |= (uint16_t)(TIM_OCInitStruct->TIM_OCNPolarity << 4);
 21213              		.loc 1 407 0
 21214 00a4 3B68     		ldr	r3, [r7, #0]
 21215 00a6 5B89     		ldrh	r3, [r3, #10]
 21216 00a8 4FEA0313 		lsl	r3, r3, #4
 21217 00ac 9AB2     		uxth	r2, r3
 21218 00ae FB89     		ldrh	r3, [r7, #14]	@ movhi
 21219 00b0 42EA0303 		orr	r3, r2, r3
 21220 00b4 FB81     		strh	r3, [r7, #14]	@ movhi
 408:../Libraries/STM32F10x_StdPeriph_Driver/src/stm32f10x_tim.c ****     
 409:../Libraries/STM32F10x_StdPeriph_Driver/src/stm32f10x_tim.c ****     /* Reset the Output N State */
 410:../Libraries/STM32F10x_StdPeriph_Driver/src/stm32f10x_tim.c ****     tmpccer &= (uint16_t)(~((uint16_t)TIM_CCER_CC2NE));    
 21221              		.loc 1 410 0
 21222 00b6 FB89     		ldrh	r3, [r7, #14]	@ movhi
 21223 00b8 23F04003 		bic	r3, r3, #64
 21224 00bc FB81     		strh	r3, [r7, #14]	@ movhi
 411:../Libraries/STM32F10x_StdPeriph_Driver/src/stm32f10x_tim.c ****     /* Set the Output N State */
 412:../Libraries/STM32F10x_StdPeriph_Driver/src/stm32f10x_tim.c ****     tmpccer |= (uint16_t)(TIM_OCInitStruct->TIM_OutputNState << 4);
 21225              		.loc 1 412 0
 21226 00be 3B68     		ldr	r3, [r7, #0]
 21227 00c0 9B88     		ldrh	r3, [r3, #4]
 21228 00c2 4FEA0313 		lsl	r3, r3, #4
 21229 00c6 9AB2     		uxth	r2, r3
 21230 00c8 FB89     		ldrh	r3, [r7, #14]	@ movhi
 21231 00ca 42EA0303 		orr	r3, r2, r3
 21232 00ce FB81     		strh	r3, [r7, #14]	@ movhi
 413:../Libraries/STM32F10x_StdPeriph_Driver/src/stm32f10x_tim.c ****     
 414:../Libraries/STM32F10x_StdPeriph_Driver/src/stm32f10x_tim.c ****     /* Reset the Output Compare and Output Compare N IDLE State */
 415:../Libraries/STM32F10x_StdPeriph_Driver/src/stm32f10x_tim.c ****     tmpcr2 &= (uint16_t)(~((uint16_t)TIM_CR2_OIS2));
 21233              		.loc 1 415 0
 21234 00d0 BB89     		ldrh	r3, [r7, #12]	@ movhi
 21235 00d2 23F48063 		bic	r3, r3, #1024
 21236 00d6 BB81     		strh	r3, [r7, #12]	@ movhi
 416:../Libraries/STM32F10x_StdPeriph_Driver/src/stm32f10x_tim.c ****     tmpcr2 &= (uint16_t)(~((uint16_t)TIM_CR2_OIS2N));
 21237              		.loc 1 416 0
 21238 00d8 BB89     		ldrh	r3, [r7, #12]	@ movhi
 21239 00da 23F40063 		bic	r3, r3, #2048
 21240 00de BB81     		strh	r3, [r7, #12]	@ movhi
 417:../Libraries/STM32F10x_StdPeriph_Driver/src/stm32f10x_tim.c ****     
 418:../Libraries/STM32F10x_StdPeriph_Driver/src/stm32f10x_tim.c ****     /* Set the Output Idle state */
 419:../Libraries/STM32F10x_StdPeriph_Driver/src/stm32f10x_tim.c ****     tmpcr2 |= (uint16_t)(TIM_OCInitStruct->TIM_OCIdleState << 2);
 21241              		.loc 1 419 0
 21242 00e0 3B68     		ldr	r3, [r7, #0]
 21243 00e2 9B89     		ldrh	r3, [r3, #12]
 21244 00e4 4FEA8303 		lsl	r3, r3, #2
 21245 00e8 9AB2     		uxth	r2, r3
 21246 00ea BB89     		ldrh	r3, [r7, #12]	@ movhi
 21247 00ec 42EA0303 		orr	r3, r2, r3
 21248 00f0 BB81     		strh	r3, [r7, #12]	@ movhi
 420:../Libraries/STM32F10x_StdPeriph_Driver/src/stm32f10x_tim.c ****     /* Set the Output N Idle state */
 421:../Libraries/STM32F10x_StdPeriph_Driver/src/stm32f10x_tim.c ****     tmpcr2 |= (uint16_t)(TIM_OCInitStruct->TIM_OCNIdleState << 2);
 21249              		.loc 1 421 0
 21250 00f2 3B68     		ldr	r3, [r7, #0]
 21251 00f4 DB89     		ldrh	r3, [r3, #14]
 21252 00f6 4FEA8303 		lsl	r3, r3, #2
 21253 00fa 9AB2     		uxth	r2, r3
 21254 00fc BB89     		ldrh	r3, [r7, #12]	@ movhi
 21255 00fe 42EA0303 		orr	r3, r2, r3
 21256 0102 BB81     		strh	r3, [r7, #12]	@ movhi
 21257              	.L36:
 422:../Libraries/STM32F10x_StdPeriph_Driver/src/stm32f10x_tim.c ****   }
 423:../Libraries/STM32F10x_StdPeriph_Driver/src/stm32f10x_tim.c ****   /* Write to TIMx CR2 */
 424:../Libraries/STM32F10x_StdPeriph_Driver/src/stm32f10x_tim.c ****   TIMx->CR2 = tmpcr2;
 21258              		.loc 1 424 0
 21259 0104 7B68     		ldr	r3, [r7, #4]
 21260 0106 BA89     		ldrh	r2, [r7, #12]	@ movhi
 21261 0108 9A80     		strh	r2, [r3, #4]	@ movhi
 425:../Libraries/STM32F10x_StdPeriph_Driver/src/stm32f10x_tim.c ****   
 426:../Libraries/STM32F10x_StdPeriph_Driver/src/stm32f10x_tim.c ****   /* Write to TIMx CCMR1 */
 427:../Libraries/STM32F10x_StdPeriph_Driver/src/stm32f10x_tim.c ****   TIMx->CCMR1 = tmpccmrx;
 21262              		.loc 1 427 0
 21263 010a 7B68     		ldr	r3, [r7, #4]
 21264 010c 7A89     		ldrh	r2, [r7, #10]	@ movhi
 21265 010e 1A83     		strh	r2, [r3, #24]	@ movhi
 428:../Libraries/STM32F10x_StdPeriph_Driver/src/stm32f10x_tim.c **** 
 429:../Libraries/STM32F10x_StdPeriph_Driver/src/stm32f10x_tim.c ****   /* Set the Capture Compare Register value */
 430:../Libraries/STM32F10x_StdPeriph_Driver/src/stm32f10x_tim.c ****   TIMx->CCR2 = TIM_OCInitStruct->TIM_Pulse;
 21266              		.loc 1 430 0
 21267 0110 3B68     		ldr	r3, [r7, #0]
 21268 0112 DA88     		ldrh	r2, [r3, #6]
 21269 0114 7B68     		ldr	r3, [r7, #4]
 21270 0116 1A87     		strh	r2, [r3, #56]	@ movhi
 431:../Libraries/STM32F10x_StdPeriph_Driver/src/stm32f10x_tim.c ****   
 432:../Libraries/STM32F10x_StdPeriph_Driver/src/stm32f10x_tim.c ****   /* Write to TIMx CCER */
 433:../Libraries/STM32F10x_StdPeriph_Driver/src/stm32f10x_tim.c ****   TIMx->CCER = tmpccer;
 21271              		.loc 1 433 0
 21272 0118 7B68     		ldr	r3, [r7, #4]
 21273 011a FA89     		ldrh	r2, [r7, #14]	@ movhi
 21274 011c 1A84     		strh	r2, [r3, #32]	@ movhi
 434:../Libraries/STM32F10x_StdPeriph_Driver/src/stm32f10x_tim.c **** }
 21275              		.loc 1 434 0
 21276 011e 07F11407 		add	r7, r7, #20
 21277 0122 BD46     		mov	sp, r7
 21278 0124 80BC     		pop	{r7}
 21279 0126 7047     		bx	lr
 21280              	.L38:
 21281              		.align	2
 21282              	.L37:
 21283 0128 002C0140 		.word	1073818624
 21284 012c 00340140 		.word	1073820672
 21285              		.cfi_endproc
 21286              	.LFE32:
 21288              		.section	.text.TIM_OC3Init,"ax",%progbits
 21289              		.align	2
 21290              		.global	TIM_OC3Init
 21291              		.thumb
 21292              		.thumb_func
 21294              	TIM_OC3Init:
 21295              	.LFB33:
 435:../Libraries/STM32F10x_StdPeriph_Driver/src/stm32f10x_tim.c **** 
 436:../Libraries/STM32F10x_StdPeriph_Driver/src/stm32f10x_tim.c **** /**
 437:../Libraries/STM32F10x_StdPeriph_Driver/src/stm32f10x_tim.c ****   * @brief  Initializes the TIMx Channel3 according to the specified
 438:../Libraries/STM32F10x_StdPeriph_Driver/src/stm32f10x_tim.c ****   *         parameters in the TIM_OCInitStruct.
 439:../Libraries/STM32F10x_StdPeriph_Driver/src/stm32f10x_tim.c ****   * @param  TIMx: where x can be  1, 2, 3, 4, 5 or 8 to select the TIM peripheral.
 440:../Libraries/STM32F10x_StdPeriph_Driver/src/stm32f10x_tim.c ****   * @param  TIM_OCInitStruct: pointer to a TIM_OCInitTypeDef structure
 441:../Libraries/STM32F10x_StdPeriph_Driver/src/stm32f10x_tim.c ****   *         that contains the configuration information for the specified TIM peripheral.
 442:../Libraries/STM32F10x_StdPeriph_Driver/src/stm32f10x_tim.c ****   * @retval None
 443:../Libraries/STM32F10x_StdPeriph_Driver/src/stm32f10x_tim.c ****   */
 444:../Libraries/STM32F10x_StdPeriph_Driver/src/stm32f10x_tim.c **** void TIM_OC3Init(TIM_TypeDef* TIMx, TIM_OCInitTypeDef* TIM_OCInitStruct)
 445:../Libraries/STM32F10x_StdPeriph_Driver/src/stm32f10x_tim.c **** {
 21296              		.loc 1 445 0
 21297              		.cfi_startproc
 21298              		@ args = 0, pretend = 0, frame = 16
 21299              		@ frame_needed = 1, uses_anonymous_args = 0
 21300              		@ link register save eliminated.
 21301 0000 80B4     		push	{r7}
 21302              	.LCFI12:
 21303              		.cfi_def_cfa_offset 4
 21304 0002 85B0     		sub	sp, sp, #20
 21305              	.LCFI13:
 21306              		.cfi_def_cfa_offset 24
 21307 0004 00AF     		add	r7, sp, #0
 21308              		.cfi_offset 7, -4
 21309              	.LCFI14:
 21310              		.cfi_def_cfa_register 7
 21311 0006 7860     		str	r0, [r7, #4]
 21312 0008 3960     		str	r1, [r7, #0]
 446:../Libraries/STM32F10x_StdPeriph_Driver/src/stm32f10x_tim.c ****   uint16_t tmpccmrx = 0, tmpccer = 0, tmpcr2 = 0;
 21313              		.loc 1 446 0
 21314 000a 4FF00003 		mov	r3, #0
 21315 000e 7B81     		strh	r3, [r7, #10]	@ movhi
 21316 0010 4FF00003 		mov	r3, #0
 21317 0014 FB81     		strh	r3, [r7, #14]	@ movhi
 21318 0016 4FF00003 		mov	r3, #0
 21319 001a BB81     		strh	r3, [r7, #12]	@ movhi
 447:../Libraries/STM32F10x_StdPeriph_Driver/src/stm32f10x_tim.c ****    
 448:../Libraries/STM32F10x_StdPeriph_Driver/src/stm32f10x_tim.c ****   /* Check the parameters */
 449:../Libraries/STM32F10x_StdPeriph_Driver/src/stm32f10x_tim.c ****   assert_param(IS_TIM_LIST3_PERIPH(TIMx)); 
 450:../Libraries/STM32F10x_StdPeriph_Driver/src/stm32f10x_tim.c ****   assert_param(IS_TIM_OC_MODE(TIM_OCInitStruct->TIM_OCMode));
 451:../Libraries/STM32F10x_StdPeriph_Driver/src/stm32f10x_tim.c ****   assert_param(IS_TIM_OUTPUT_STATE(TIM_OCInitStruct->TIM_OutputState));
 452:../Libraries/STM32F10x_StdPeriph_Driver/src/stm32f10x_tim.c ****   assert_param(IS_TIM_OC_POLARITY(TIM_OCInitStruct->TIM_OCPolarity));   
 453:../Libraries/STM32F10x_StdPeriph_Driver/src/stm32f10x_tim.c ****   /* Disable the Channel 2: Reset the CC2E Bit */
 454:../Libraries/STM32F10x_StdPeriph_Driver/src/stm32f10x_tim.c ****   TIMx->CCER &= (uint16_t)(~((uint16_t)TIM_CCER_CC3E));
 21320              		.loc 1 454 0
 21321 001c 7B68     		ldr	r3, [r7, #4]
 21322 001e 1B8C     		ldrh	r3, [r3, #32]	@ movhi
 21323 0020 9BB2     		uxth	r3, r3
 21324 0022 23F48073 		bic	r3, r3, #256
 21325 0026 9AB2     		uxth	r2, r3
 21326 0028 7B68     		ldr	r3, [r7, #4]
 21327 002a 1A84     		strh	r2, [r3, #32]	@ movhi
 455:../Libraries/STM32F10x_StdPeriph_Driver/src/stm32f10x_tim.c ****   
 456:../Libraries/STM32F10x_StdPeriph_Driver/src/stm32f10x_tim.c ****   /* Get the TIMx CCER register value */
 457:../Libraries/STM32F10x_StdPeriph_Driver/src/stm32f10x_tim.c ****   tmpccer = TIMx->CCER;
 21328              		.loc 1 457 0
 21329 002c 7B68     		ldr	r3, [r7, #4]
 21330 002e 1B8C     		ldrh	r3, [r3, #32]	@ movhi
 21331 0030 FB81     		strh	r3, [r7, #14]	@ movhi
 458:../Libraries/STM32F10x_StdPeriph_Driver/src/stm32f10x_tim.c ****   /* Get the TIMx CR2 register value */
 459:../Libraries/STM32F10x_StdPeriph_Driver/src/stm32f10x_tim.c ****   tmpcr2 =  TIMx->CR2;
 21332              		.loc 1 459 0
 21333 0032 7B68     		ldr	r3, [r7, #4]
 21334 0034 9B88     		ldrh	r3, [r3, #4]	@ movhi
 21335 0036 BB81     		strh	r3, [r7, #12]	@ movhi
 460:../Libraries/STM32F10x_StdPeriph_Driver/src/stm32f10x_tim.c ****   
 461:../Libraries/STM32F10x_StdPeriph_Driver/src/stm32f10x_tim.c ****   /* Get the TIMx CCMR2 register value */
 462:../Libraries/STM32F10x_StdPeriph_Driver/src/stm32f10x_tim.c ****   tmpccmrx = TIMx->CCMR2;
 21336              		.loc 1 462 0
 21337 0038 7B68     		ldr	r3, [r7, #4]
 21338 003a 9B8B     		ldrh	r3, [r3, #28]	@ movhi
 21339 003c 7B81     		strh	r3, [r7, #10]	@ movhi
 463:../Libraries/STM32F10x_StdPeriph_Driver/src/stm32f10x_tim.c ****     
 464:../Libraries/STM32F10x_StdPeriph_Driver/src/stm32f10x_tim.c ****   /* Reset the Output Compare mode and Capture/Compare selection Bits */
 465:../Libraries/STM32F10x_StdPeriph_Driver/src/stm32f10x_tim.c ****   tmpccmrx &= (uint16_t)(~((uint16_t)TIM_CCMR2_OC3M));
 21340              		.loc 1 465 0
 21341 003e 7B89     		ldrh	r3, [r7, #10]	@ movhi
 21342 0040 23F07003 		bic	r3, r3, #112
 21343 0044 7B81     		strh	r3, [r7, #10]	@ movhi
 466:../Libraries/STM32F10x_StdPeriph_Driver/src/stm32f10x_tim.c ****   tmpccmrx &= (uint16_t)(~((uint16_t)TIM_CCMR2_CC3S));  
 21344              		.loc 1 466 0
 21345 0046 7B89     		ldrh	r3, [r7, #10]	@ movhi
 21346 0048 23F00303 		bic	r3, r3, #3
 21347 004c 7B81     		strh	r3, [r7, #10]	@ movhi
 467:../Libraries/STM32F10x_StdPeriph_Driver/src/stm32f10x_tim.c ****   /* Select the Output Compare Mode */
 468:../Libraries/STM32F10x_StdPeriph_Driver/src/stm32f10x_tim.c ****   tmpccmrx |= TIM_OCInitStruct->TIM_OCMode;
 21348              		.loc 1 468 0
 21349 004e 3B68     		ldr	r3, [r7, #0]
 21350 0050 1A88     		ldrh	r2, [r3, #0]
 21351 0052 7B89     		ldrh	r3, [r7, #10]	@ movhi
 21352 0054 42EA0303 		orr	r3, r2, r3
 21353 0058 7B81     		strh	r3, [r7, #10]	@ movhi
 469:../Libraries/STM32F10x_StdPeriph_Driver/src/stm32f10x_tim.c ****   
 470:../Libraries/STM32F10x_StdPeriph_Driver/src/stm32f10x_tim.c ****   /* Reset the Output Polarity level */
 471:../Libraries/STM32F10x_StdPeriph_Driver/src/stm32f10x_tim.c ****   tmpccer &= (uint16_t)(~((uint16_t)TIM_CCER_CC3P));
 21354              		.loc 1 471 0
 21355 005a FB89     		ldrh	r3, [r7, #14]	@ movhi
 21356 005c 23F40073 		bic	r3, r3, #512
 21357 0060 FB81     		strh	r3, [r7, #14]	@ movhi
 472:../Libraries/STM32F10x_StdPeriph_Driver/src/stm32f10x_tim.c ****   /* Set the Output Compare Polarity */
 473:../Libraries/STM32F10x_StdPeriph_Driver/src/stm32f10x_tim.c ****   tmpccer |= (uint16_t)(TIM_OCInitStruct->TIM_OCPolarity << 8);
 21358              		.loc 1 473 0
 21359 0062 3B68     		ldr	r3, [r7, #0]
 21360 0064 1B89     		ldrh	r3, [r3, #8]
 21361 0066 4FEA0323 		lsl	r3, r3, #8
 21362 006a 9AB2     		uxth	r2, r3
 21363 006c FB89     		ldrh	r3, [r7, #14]	@ movhi
 21364 006e 42EA0303 		orr	r3, r2, r3
 21365 0072 FB81     		strh	r3, [r7, #14]	@ movhi
 474:../Libraries/STM32F10x_StdPeriph_Driver/src/stm32f10x_tim.c ****   
 475:../Libraries/STM32F10x_StdPeriph_Driver/src/stm32f10x_tim.c ****   /* Set the Output State */
 476:../Libraries/STM32F10x_StdPeriph_Driver/src/stm32f10x_tim.c ****   tmpccer |= (uint16_t)(TIM_OCInitStruct->TIM_OutputState << 8);
 21366              		.loc 1 476 0
 21367 0074 3B68     		ldr	r3, [r7, #0]
 21368 0076 5B88     		ldrh	r3, [r3, #2]
 21369 0078 4FEA0323 		lsl	r3, r3, #8
 21370 007c 9AB2     		uxth	r2, r3
 21371 007e FB89     		ldrh	r3, [r7, #14]	@ movhi
 21372 0080 42EA0303 		orr	r3, r2, r3
 21373 0084 FB81     		strh	r3, [r7, #14]	@ movhi
 477:../Libraries/STM32F10x_StdPeriph_Driver/src/stm32f10x_tim.c ****     
 478:../Libraries/STM32F10x_StdPeriph_Driver/src/stm32f10x_tim.c ****   if((TIMx == TIM1) || (TIMx == TIM8))
 21374              		.loc 1 478 0
 21375 0086 7A68     		ldr	r2, [r7, #4]
 21376 0088 264B     		ldr	r3, .L42
 21377 008a 9A42     		cmp	r2, r3
 21378 008c 03D0     		beq	.L40
 21379              		.loc 1 478 0 is_stmt 0 discriminator 1
 21380 008e 7A68     		ldr	r2, [r7, #4]
 21381 0090 254B     		ldr	r3, .L42+4
 21382 0092 9A42     		cmp	r2, r3
 21383 0094 33D1     		bne	.L41
 21384              	.L40:
 479:../Libraries/STM32F10x_StdPeriph_Driver/src/stm32f10x_tim.c ****   {
 480:../Libraries/STM32F10x_StdPeriph_Driver/src/stm32f10x_tim.c ****     assert_param(IS_TIM_OUTPUTN_STATE(TIM_OCInitStruct->TIM_OutputNState));
 481:../Libraries/STM32F10x_StdPeriph_Driver/src/stm32f10x_tim.c ****     assert_param(IS_TIM_OCN_POLARITY(TIM_OCInitStruct->TIM_OCNPolarity));
 482:../Libraries/STM32F10x_StdPeriph_Driver/src/stm32f10x_tim.c ****     assert_param(IS_TIM_OCNIDLE_STATE(TIM_OCInitStruct->TIM_OCNIdleState));
 483:../Libraries/STM32F10x_StdPeriph_Driver/src/stm32f10x_tim.c ****     assert_param(IS_TIM_OCIDLE_STATE(TIM_OCInitStruct->TIM_OCIdleState));
 484:../Libraries/STM32F10x_StdPeriph_Driver/src/stm32f10x_tim.c ****     
 485:../Libraries/STM32F10x_StdPeriph_Driver/src/stm32f10x_tim.c ****     /* Reset the Output N Polarity level */
 486:../Libraries/STM32F10x_StdPeriph_Driver/src/stm32f10x_tim.c ****     tmpccer &= (uint16_t)(~((uint16_t)TIM_CCER_CC3NP));
 21385              		.loc 1 486 0 is_stmt 1
 21386 0096 FB89     		ldrh	r3, [r7, #14]	@ movhi
 21387 0098 23F40063 		bic	r3, r3, #2048
 21388 009c FB81     		strh	r3, [r7, #14]	@ movhi
 487:../Libraries/STM32F10x_StdPeriph_Driver/src/stm32f10x_tim.c ****     /* Set the Output N Polarity */
 488:../Libraries/STM32F10x_StdPeriph_Driver/src/stm32f10x_tim.c ****     tmpccer |= (uint16_t)(TIM_OCInitStruct->TIM_OCNPolarity << 8);
 21389              		.loc 1 488 0
 21390 009e 3B68     		ldr	r3, [r7, #0]
 21391 00a0 5B89     		ldrh	r3, [r3, #10]
 21392 00a2 4FEA0323 		lsl	r3, r3, #8
 21393 00a6 9AB2     		uxth	r2, r3
 21394 00a8 FB89     		ldrh	r3, [r7, #14]	@ movhi
 21395 00aa 42EA0303 		orr	r3, r2, r3
 21396 00ae FB81     		strh	r3, [r7, #14]	@ movhi
 489:../Libraries/STM32F10x_StdPeriph_Driver/src/stm32f10x_tim.c ****     /* Reset the Output N State */
 490:../Libraries/STM32F10x_StdPeriph_Driver/src/stm32f10x_tim.c ****     tmpccer &= (uint16_t)(~((uint16_t)TIM_CCER_CC3NE));
 21397              		.loc 1 490 0
 21398 00b0 FB89     		ldrh	r3, [r7, #14]	@ movhi
 21399 00b2 23F48063 		bic	r3, r3, #1024
 21400 00b6 FB81     		strh	r3, [r7, #14]	@ movhi
 491:../Libraries/STM32F10x_StdPeriph_Driver/src/stm32f10x_tim.c ****     
 492:../Libraries/STM32F10x_StdPeriph_Driver/src/stm32f10x_tim.c ****     /* Set the Output N State */
 493:../Libraries/STM32F10x_StdPeriph_Driver/src/stm32f10x_tim.c ****     tmpccer |= (uint16_t)(TIM_OCInitStruct->TIM_OutputNState << 8);
 21401              		.loc 1 493 0
 21402 00b8 3B68     		ldr	r3, [r7, #0]
 21403 00ba 9B88     		ldrh	r3, [r3, #4]
 21404 00bc 4FEA0323 		lsl	r3, r3, #8
 21405 00c0 9AB2     		uxth	r2, r3
 21406 00c2 FB89     		ldrh	r3, [r7, #14]	@ movhi
 21407 00c4 42EA0303 		orr	r3, r2, r3
 21408 00c8 FB81     		strh	r3, [r7, #14]	@ movhi
 494:../Libraries/STM32F10x_StdPeriph_Driver/src/stm32f10x_tim.c ****     /* Reset the Output Compare and Output Compare N IDLE State */
 495:../Libraries/STM32F10x_StdPeriph_Driver/src/stm32f10x_tim.c ****     tmpcr2 &= (uint16_t)(~((uint16_t)TIM_CR2_OIS3));
 21409              		.loc 1 495 0
 21410 00ca BB89     		ldrh	r3, [r7, #12]	@ movhi
 21411 00cc 23F48053 		bic	r3, r3, #4096
 21412 00d0 BB81     		strh	r3, [r7, #12]	@ movhi
 496:../Libraries/STM32F10x_StdPeriph_Driver/src/stm32f10x_tim.c ****     tmpcr2 &= (uint16_t)(~((uint16_t)TIM_CR2_OIS3N));
 21413              		.loc 1 496 0
 21414 00d2 BB89     		ldrh	r3, [r7, #12]	@ movhi
 21415 00d4 23F40053 		bic	r3, r3, #8192
 21416 00d8 BB81     		strh	r3, [r7, #12]	@ movhi
 497:../Libraries/STM32F10x_StdPeriph_Driver/src/stm32f10x_tim.c ****     /* Set the Output Idle state */
 498:../Libraries/STM32F10x_StdPeriph_Driver/src/stm32f10x_tim.c ****     tmpcr2 |= (uint16_t)(TIM_OCInitStruct->TIM_OCIdleState << 4);
 21417              		.loc 1 498 0
 21418 00da 3B68     		ldr	r3, [r7, #0]
 21419 00dc 9B89     		ldrh	r3, [r3, #12]
 21420 00de 4FEA0313 		lsl	r3, r3, #4
 21421 00e2 9AB2     		uxth	r2, r3
 21422 00e4 BB89     		ldrh	r3, [r7, #12]	@ movhi
 21423 00e6 42EA0303 		orr	r3, r2, r3
 21424 00ea BB81     		strh	r3, [r7, #12]	@ movhi
 499:../Libraries/STM32F10x_StdPeriph_Driver/src/stm32f10x_tim.c ****     /* Set the Output N Idle state */
 500:../Libraries/STM32F10x_StdPeriph_Driver/src/stm32f10x_tim.c ****     tmpcr2 |= (uint16_t)(TIM_OCInitStruct->TIM_OCNIdleState << 4);
 21425              		.loc 1 500 0
 21426 00ec 3B68     		ldr	r3, [r7, #0]
 21427 00ee DB89     		ldrh	r3, [r3, #14]
 21428 00f0 4FEA0313 		lsl	r3, r3, #4
 21429 00f4 9AB2     		uxth	r2, r3
 21430 00f6 BB89     		ldrh	r3, [r7, #12]	@ movhi
 21431 00f8 42EA0303 		orr	r3, r2, r3
 21432 00fc BB81     		strh	r3, [r7, #12]	@ movhi
 21433              	.L41:
 501:../Libraries/STM32F10x_StdPeriph_Driver/src/stm32f10x_tim.c ****   }
 502:../Libraries/STM32F10x_StdPeriph_Driver/src/stm32f10x_tim.c ****   /* Write to TIMx CR2 */
 503:../Libraries/STM32F10x_StdPeriph_Driver/src/stm32f10x_tim.c ****   TIMx->CR2 = tmpcr2;
 21434              		.loc 1 503 0
 21435 00fe 7B68     		ldr	r3, [r7, #4]
 21436 0100 BA89     		ldrh	r2, [r7, #12]	@ movhi
 21437 0102 9A80     		strh	r2, [r3, #4]	@ movhi
 504:../Libraries/STM32F10x_StdPeriph_Driver/src/stm32f10x_tim.c ****   
 505:../Libraries/STM32F10x_StdPeriph_Driver/src/stm32f10x_tim.c ****   /* Write to TIMx CCMR2 */
 506:../Libraries/STM32F10x_StdPeriph_Driver/src/stm32f10x_tim.c ****   TIMx->CCMR2 = tmpccmrx;
 21438              		.loc 1 506 0
 21439 0104 7B68     		ldr	r3, [r7, #4]
 21440 0106 7A89     		ldrh	r2, [r7, #10]	@ movhi
 21441 0108 9A83     		strh	r2, [r3, #28]	@ movhi
 507:../Libraries/STM32F10x_StdPeriph_Driver/src/stm32f10x_tim.c **** 
 508:../Libraries/STM32F10x_StdPeriph_Driver/src/stm32f10x_tim.c ****   /* Set the Capture Compare Register value */
 509:../Libraries/STM32F10x_StdPeriph_Driver/src/stm32f10x_tim.c ****   TIMx->CCR3 = TIM_OCInitStruct->TIM_Pulse;
 21442              		.loc 1 509 0
 21443 010a 3B68     		ldr	r3, [r7, #0]
 21444 010c DA88     		ldrh	r2, [r3, #6]
 21445 010e 7B68     		ldr	r3, [r7, #4]
 21446 0110 9A87     		strh	r2, [r3, #60]	@ movhi
 510:../Libraries/STM32F10x_StdPeriph_Driver/src/stm32f10x_tim.c ****   
 511:../Libraries/STM32F10x_StdPeriph_Driver/src/stm32f10x_tim.c ****   /* Write to TIMx CCER */
 512:../Libraries/STM32F10x_StdPeriph_Driver/src/stm32f10x_tim.c ****   TIMx->CCER = tmpccer;
 21447              		.loc 1 512 0
 21448 0112 7B68     		ldr	r3, [r7, #4]
 21449 0114 FA89     		ldrh	r2, [r7, #14]	@ movhi
 21450 0116 1A84     		strh	r2, [r3, #32]	@ movhi
 513:../Libraries/STM32F10x_StdPeriph_Driver/src/stm32f10x_tim.c **** }
 21451              		.loc 1 513 0
 21452 0118 07F11407 		add	r7, r7, #20
 21453 011c BD46     		mov	sp, r7
 21454 011e 80BC     		pop	{r7}
 21455 0120 7047     		bx	lr
 21456              	.L43:
 21457 0122 00BF     		.align	2
 21458              	.L42:
 21459 0124 002C0140 		.word	1073818624
 21460 0128 00340140 		.word	1073820672
 21461              		.cfi_endproc
 21462              	.LFE33:
 21464              		.section	.text.TIM_OC4Init,"ax",%progbits
 21465              		.align	2
 21466              		.global	TIM_OC4Init
 21467              		.thumb
 21468              		.thumb_func
 21470              	TIM_OC4Init:
 21471              	.LFB34:
 514:../Libraries/STM32F10x_StdPeriph_Driver/src/stm32f10x_tim.c **** 
 515:../Libraries/STM32F10x_StdPeriph_Driver/src/stm32f10x_tim.c **** /**
 516:../Libraries/STM32F10x_StdPeriph_Driver/src/stm32f10x_tim.c ****   * @brief  Initializes the TIMx Channel4 according to the specified
 517:../Libraries/STM32F10x_StdPeriph_Driver/src/stm32f10x_tim.c ****   *         parameters in the TIM_OCInitStruct.
 518:../Libraries/STM32F10x_StdPeriph_Driver/src/stm32f10x_tim.c ****   * @param  TIMx: where x can be  1, 2, 3, 4, 5 or 8 to select the TIM peripheral.
 519:../Libraries/STM32F10x_StdPeriph_Driver/src/stm32f10x_tim.c ****   * @param  TIM_OCInitStruct: pointer to a TIM_OCInitTypeDef structure
 520:../Libraries/STM32F10x_StdPeriph_Driver/src/stm32f10x_tim.c ****   *         that contains the configuration information for the specified TIM peripheral.
 521:../Libraries/STM32F10x_StdPeriph_Driver/src/stm32f10x_tim.c ****   * @retval None
 522:../Libraries/STM32F10x_StdPeriph_Driver/src/stm32f10x_tim.c ****   */
 523:../Libraries/STM32F10x_StdPeriph_Driver/src/stm32f10x_tim.c **** void TIM_OC4Init(TIM_TypeDef* TIMx, TIM_OCInitTypeDef* TIM_OCInitStruct)
 524:../Libraries/STM32F10x_StdPeriph_Driver/src/stm32f10x_tim.c **** {
 21472              		.loc 1 524 0
 21473              		.cfi_startproc
 21474              		@ args = 0, pretend = 0, frame = 16
 21475              		@ frame_needed = 1, uses_anonymous_args = 0
 21476              		@ link register save eliminated.
 21477 0000 80B4     		push	{r7}
 21478              	.LCFI15:
 21479              		.cfi_def_cfa_offset 4
 21480 0002 85B0     		sub	sp, sp, #20
 21481              	.LCFI16:
 21482              		.cfi_def_cfa_offset 24
 21483 0004 00AF     		add	r7, sp, #0
 21484              		.cfi_offset 7, -4
 21485              	.LCFI17:
 21486              		.cfi_def_cfa_register 7
 21487 0006 7860     		str	r0, [r7, #4]
 21488 0008 3960     		str	r1, [r7, #0]
 525:../Libraries/STM32F10x_StdPeriph_Driver/src/stm32f10x_tim.c ****   uint16_t tmpccmrx = 0, tmpccer = 0, tmpcr2 = 0;
 21489              		.loc 1 525 0
 21490 000a 4FF00003 		mov	r3, #0
 21491 000e BB81     		strh	r3, [r7, #12]	@ movhi
 21492 0010 4FF00003 		mov	r3, #0
 21493 0014 7B81     		strh	r3, [r7, #10]	@ movhi
 21494 0016 4FF00003 		mov	r3, #0
 21495 001a FB81     		strh	r3, [r7, #14]	@ movhi
 526:../Libraries/STM32F10x_StdPeriph_Driver/src/stm32f10x_tim.c ****    
 527:../Libraries/STM32F10x_StdPeriph_Driver/src/stm32f10x_tim.c ****   /* Check the parameters */
 528:../Libraries/STM32F10x_StdPeriph_Driver/src/stm32f10x_tim.c ****   assert_param(IS_TIM_LIST3_PERIPH(TIMx)); 
 529:../Libraries/STM32F10x_StdPeriph_Driver/src/stm32f10x_tim.c ****   assert_param(IS_TIM_OC_MODE(TIM_OCInitStruct->TIM_OCMode));
 530:../Libraries/STM32F10x_StdPeriph_Driver/src/stm32f10x_tim.c ****   assert_param(IS_TIM_OUTPUT_STATE(TIM_OCInitStruct->TIM_OutputState));
 531:../Libraries/STM32F10x_StdPeriph_Driver/src/stm32f10x_tim.c ****   assert_param(IS_TIM_OC_POLARITY(TIM_OCInitStruct->TIM_OCPolarity));   
 532:../Libraries/STM32F10x_StdPeriph_Driver/src/stm32f10x_tim.c ****   /* Disable the Channel 2: Reset the CC4E Bit */
 533:../Libraries/STM32F10x_StdPeriph_Driver/src/stm32f10x_tim.c ****   TIMx->CCER &= (uint16_t)(~((uint16_t)TIM_CCER_CC4E));
 21496              		.loc 1 533 0
 21497 001c 7B68     		ldr	r3, [r7, #4]
 21498 001e 1B8C     		ldrh	r3, [r3, #32]	@ movhi
 21499 0020 9BB2     		uxth	r3, r3
 21500 0022 23F48053 		bic	r3, r3, #4096
 21501 0026 9AB2     		uxth	r2, r3
 21502 0028 7B68     		ldr	r3, [r7, #4]
 21503 002a 1A84     		strh	r2, [r3, #32]	@ movhi
 534:../Libraries/STM32F10x_StdPeriph_Driver/src/stm32f10x_tim.c ****   
 535:../Libraries/STM32F10x_StdPeriph_Driver/src/stm32f10x_tim.c ****   /* Get the TIMx CCER register value */
 536:../Libraries/STM32F10x_StdPeriph_Driver/src/stm32f10x_tim.c ****   tmpccer = TIMx->CCER;
 21504              		.loc 1 536 0
 21505 002c 7B68     		ldr	r3, [r7, #4]
 21506 002e 1B8C     		ldrh	r3, [r3, #32]	@ movhi
 21507 0030 7B81     		strh	r3, [r7, #10]	@ movhi
 537:../Libraries/STM32F10x_StdPeriph_Driver/src/stm32f10x_tim.c ****   /* Get the TIMx CR2 register value */
 538:../Libraries/STM32F10x_StdPeriph_Driver/src/stm32f10x_tim.c ****   tmpcr2 =  TIMx->CR2;
 21508              		.loc 1 538 0
 21509 0032 7B68     		ldr	r3, [r7, #4]
 21510 0034 9B88     		ldrh	r3, [r3, #4]	@ movhi
 21511 0036 FB81     		strh	r3, [r7, #14]	@ movhi
 539:../Libraries/STM32F10x_StdPeriph_Driver/src/stm32f10x_tim.c ****   
 540:../Libraries/STM32F10x_StdPeriph_Driver/src/stm32f10x_tim.c ****   /* Get the TIMx CCMR2 register value */
 541:../Libraries/STM32F10x_StdPeriph_Driver/src/stm32f10x_tim.c ****   tmpccmrx = TIMx->CCMR2;
 21512              		.loc 1 541 0
 21513 0038 7B68     		ldr	r3, [r7, #4]
 21514 003a 9B8B     		ldrh	r3, [r3, #28]	@ movhi
 21515 003c BB81     		strh	r3, [r7, #12]	@ movhi
 542:../Libraries/STM32F10x_StdPeriph_Driver/src/stm32f10x_tim.c ****     
 543:../Libraries/STM32F10x_StdPeriph_Driver/src/stm32f10x_tim.c ****   /* Reset the Output Compare mode and Capture/Compare selection Bits */
 544:../Libraries/STM32F10x_StdPeriph_Driver/src/stm32f10x_tim.c ****   tmpccmrx &= (uint16_t)(~((uint16_t)TIM_CCMR2_OC4M));
 21516              		.loc 1 544 0
 21517 003e BB89     		ldrh	r3, [r7, #12]	@ movhi
 21518 0040 23F4E043 		bic	r3, r3, #28672
 21519 0044 BB81     		strh	r3, [r7, #12]	@ movhi
 545:../Libraries/STM32F10x_StdPeriph_Driver/src/stm32f10x_tim.c ****   tmpccmrx &= (uint16_t)(~((uint16_t)TIM_CCMR2_CC4S));
 21520              		.loc 1 545 0
 21521 0046 BB89     		ldrh	r3, [r7, #12]	@ movhi
 21522 0048 23F44073 		bic	r3, r3, #768
 21523 004c BB81     		strh	r3, [r7, #12]	@ movhi
 546:../Libraries/STM32F10x_StdPeriph_Driver/src/stm32f10x_tim.c ****   
 547:../Libraries/STM32F10x_StdPeriph_Driver/src/stm32f10x_tim.c ****   /* Select the Output Compare Mode */
 548:../Libraries/STM32F10x_StdPeriph_Driver/src/stm32f10x_tim.c ****   tmpccmrx |= (uint16_t)(TIM_OCInitStruct->TIM_OCMode << 8);
 21524              		.loc 1 548 0
 21525 004e 3B68     		ldr	r3, [r7, #0]
 21526 0050 1B88     		ldrh	r3, [r3, #0]
 21527 0052 4FEA0323 		lsl	r3, r3, #8
 21528 0056 9AB2     		uxth	r2, r3
 21529 0058 BB89     		ldrh	r3, [r7, #12]	@ movhi
 21530 005a 42EA0303 		orr	r3, r2, r3
 21531 005e BB81     		strh	r3, [r7, #12]	@ movhi
 549:../Libraries/STM32F10x_StdPeriph_Driver/src/stm32f10x_tim.c ****   
 550:../Libraries/STM32F10x_StdPeriph_Driver/src/stm32f10x_tim.c ****   /* Reset the Output Polarity level */
 551:../Libraries/STM32F10x_StdPeriph_Driver/src/stm32f10x_tim.c ****   tmpccer &= (uint16_t)(~((uint16_t)TIM_CCER_CC4P));
 21532              		.loc 1 551 0
 21533 0060 7B89     		ldrh	r3, [r7, #10]	@ movhi
 21534 0062 23F40053 		bic	r3, r3, #8192
 21535 0066 7B81     		strh	r3, [r7, #10]	@ movhi
 552:../Libraries/STM32F10x_StdPeriph_Driver/src/stm32f10x_tim.c ****   /* Set the Output Compare Polarity */
 553:../Libraries/STM32F10x_StdPeriph_Driver/src/stm32f10x_tim.c ****   tmpccer |= (uint16_t)(TIM_OCInitStruct->TIM_OCPolarity << 12);
 21536              		.loc 1 553 0
 21537 0068 3B68     		ldr	r3, [r7, #0]
 21538 006a 1B89     		ldrh	r3, [r3, #8]
 21539 006c 4FEA0333 		lsl	r3, r3, #12
 21540 0070 9AB2     		uxth	r2, r3
 21541 0072 7B89     		ldrh	r3, [r7, #10]	@ movhi
 21542 0074 42EA0303 		orr	r3, r2, r3
 21543 0078 7B81     		strh	r3, [r7, #10]	@ movhi
 554:../Libraries/STM32F10x_StdPeriph_Driver/src/stm32f10x_tim.c ****   
 555:../Libraries/STM32F10x_StdPeriph_Driver/src/stm32f10x_tim.c ****   /* Set the Output State */
 556:../Libraries/STM32F10x_StdPeriph_Driver/src/stm32f10x_tim.c ****   tmpccer |= (uint16_t)(TIM_OCInitStruct->TIM_OutputState << 12);
 21544              		.loc 1 556 0
 21545 007a 3B68     		ldr	r3, [r7, #0]
 21546 007c 5B88     		ldrh	r3, [r3, #2]
 21547 007e 4FEA0333 		lsl	r3, r3, #12
 21548 0082 9AB2     		uxth	r2, r3
 21549 0084 7B89     		ldrh	r3, [r7, #10]	@ movhi
 21550 0086 42EA0303 		orr	r3, r2, r3
 21551 008a 7B81     		strh	r3, [r7, #10]	@ movhi
 557:../Libraries/STM32F10x_StdPeriph_Driver/src/stm32f10x_tim.c ****     
 558:../Libraries/STM32F10x_StdPeriph_Driver/src/stm32f10x_tim.c ****   if((TIMx == TIM1) || (TIMx == TIM8))
 21552              		.loc 1 558 0
 21553 008c 7A68     		ldr	r2, [r7, #4]
 21554 008e 134B     		ldr	r3, .L47
 21555 0090 9A42     		cmp	r2, r3
 21556 0092 03D0     		beq	.L45
 21557              		.loc 1 558 0 is_stmt 0 discriminator 1
 21558 0094 7A68     		ldr	r2, [r7, #4]
 21559 0096 124B     		ldr	r3, .L47+4
 21560 0098 9A42     		cmp	r2, r3
 21561 009a 0CD1     		bne	.L46
 21562              	.L45:
 559:../Libraries/STM32F10x_StdPeriph_Driver/src/stm32f10x_tim.c ****   {
 560:../Libraries/STM32F10x_StdPeriph_Driver/src/stm32f10x_tim.c ****     assert_param(IS_TIM_OCIDLE_STATE(TIM_OCInitStruct->TIM_OCIdleState));
 561:../Libraries/STM32F10x_StdPeriph_Driver/src/stm32f10x_tim.c ****     /* Reset the Output Compare IDLE State */
 562:../Libraries/STM32F10x_StdPeriph_Driver/src/stm32f10x_tim.c ****     tmpcr2 &= (uint16_t)(~((uint16_t)TIM_CR2_OIS4));
 21563              		.loc 1 562 0 is_stmt 1
 21564 009c FB89     		ldrh	r3, [r7, #14]	@ movhi
 21565 009e 23F48043 		bic	r3, r3, #16384
 21566 00a2 FB81     		strh	r3, [r7, #14]	@ movhi
 563:../Libraries/STM32F10x_StdPeriph_Driver/src/stm32f10x_tim.c ****     /* Set the Output Idle state */
 564:../Libraries/STM32F10x_StdPeriph_Driver/src/stm32f10x_tim.c ****     tmpcr2 |= (uint16_t)(TIM_OCInitStruct->TIM_OCIdleState << 6);
 21567              		.loc 1 564 0
 21568 00a4 3B68     		ldr	r3, [r7, #0]
 21569 00a6 9B89     		ldrh	r3, [r3, #12]
 21570 00a8 4FEA8313 		lsl	r3, r3, #6
 21571 00ac 9AB2     		uxth	r2, r3
 21572 00ae FB89     		ldrh	r3, [r7, #14]	@ movhi
 21573 00b0 42EA0303 		orr	r3, r2, r3
 21574 00b4 FB81     		strh	r3, [r7, #14]	@ movhi
 21575              	.L46:
 565:../Libraries/STM32F10x_StdPeriph_Driver/src/stm32f10x_tim.c ****   }
 566:../Libraries/STM32F10x_StdPeriph_Driver/src/stm32f10x_tim.c ****   /* Write to TIMx CR2 */
 567:../Libraries/STM32F10x_StdPeriph_Driver/src/stm32f10x_tim.c ****   TIMx->CR2 = tmpcr2;
 21576              		.loc 1 567 0
 21577 00b6 7B68     		ldr	r3, [r7, #4]
 21578 00b8 FA89     		ldrh	r2, [r7, #14]	@ movhi
 21579 00ba 9A80     		strh	r2, [r3, #4]	@ movhi
 568:../Libraries/STM32F10x_StdPeriph_Driver/src/stm32f10x_tim.c ****   
 569:../Libraries/STM32F10x_StdPeriph_Driver/src/stm32f10x_tim.c ****   /* Write to TIMx CCMR2 */  
 570:../Libraries/STM32F10x_StdPeriph_Driver/src/stm32f10x_tim.c ****   TIMx->CCMR2 = tmpccmrx;
 21580              		.loc 1 570 0
 21581 00bc 7B68     		ldr	r3, [r7, #4]
 21582 00be BA89     		ldrh	r2, [r7, #12]	@ movhi
 21583 00c0 9A83     		strh	r2, [r3, #28]	@ movhi
 571:../Libraries/STM32F10x_StdPeriph_Driver/src/stm32f10x_tim.c **** 
 572:../Libraries/STM32F10x_StdPeriph_Driver/src/stm32f10x_tim.c ****   /* Set the Capture Compare Register value */
 573:../Libraries/STM32F10x_StdPeriph_Driver/src/stm32f10x_tim.c ****   TIMx->CCR4 = TIM_OCInitStruct->TIM_Pulse;
 21584              		.loc 1 573 0
 21585 00c2 3B68     		ldr	r3, [r7, #0]
 21586 00c4 DA88     		ldrh	r2, [r3, #6]
 21587 00c6 7B68     		ldr	r3, [r7, #4]
 21588 00c8 A3F84020 		strh	r2, [r3, #64]	@ movhi
 574:../Libraries/STM32F10x_StdPeriph_Driver/src/stm32f10x_tim.c ****   
 575:../Libraries/STM32F10x_StdPeriph_Driver/src/stm32f10x_tim.c ****   /* Write to TIMx CCER */
 576:../Libraries/STM32F10x_StdPeriph_Driver/src/stm32f10x_tim.c ****   TIMx->CCER = tmpccer;
 21589              		.loc 1 576 0
 21590 00cc 7B68     		ldr	r3, [r7, #4]
 21591 00ce 7A89     		ldrh	r2, [r7, #10]	@ movhi
 21592 00d0 1A84     		strh	r2, [r3, #32]	@ movhi
 577:../Libraries/STM32F10x_StdPeriph_Driver/src/stm32f10x_tim.c **** }
 21593              		.loc 1 577 0
 21594 00d2 07F11407 		add	r7, r7, #20
 21595 00d6 BD46     		mov	sp, r7
 21596 00d8 80BC     		pop	{r7}
 21597 00da 7047     		bx	lr
 21598              	.L48:
 21599              		.align	2
 21600              	.L47:
 21601 00dc 002C0140 		.word	1073818624
 21602 00e0 00340140 		.word	1073820672
 21603              		.cfi_endproc
 21604              	.LFE34:
 21606              		.section	.text.TIM_ICInit,"ax",%progbits
 21607              		.align	2
 21608              		.global	TIM_ICInit
 21609              		.thumb
 21610              		.thumb_func
 21612              	TIM_ICInit:
 21613              	.LFB35:
 578:../Libraries/STM32F10x_StdPeriph_Driver/src/stm32f10x_tim.c **** 
 579:../Libraries/STM32F10x_StdPeriph_Driver/src/stm32f10x_tim.c **** /**
 580:../Libraries/STM32F10x_StdPeriph_Driver/src/stm32f10x_tim.c ****   * @brief  Initializes the TIM peripheral according to the specified
 581:../Libraries/STM32F10x_StdPeriph_Driver/src/stm32f10x_tim.c ****   *         parameters in the TIM_ICInitStruct.
 582:../Libraries/STM32F10x_StdPeriph_Driver/src/stm32f10x_tim.c ****   * @param  TIMx: where x can be  1 to 17 except 6 and 7 to select the TIM peripheral.
 583:../Libraries/STM32F10x_StdPeriph_Driver/src/stm32f10x_tim.c ****   * @param  TIM_ICInitStruct: pointer to a TIM_ICInitTypeDef structure
 584:../Libraries/STM32F10x_StdPeriph_Driver/src/stm32f10x_tim.c ****   *         that contains the configuration information for the specified TIM peripheral.
 585:../Libraries/STM32F10x_StdPeriph_Driver/src/stm32f10x_tim.c ****   * @retval None
 586:../Libraries/STM32F10x_StdPeriph_Driver/src/stm32f10x_tim.c ****   */
 587:../Libraries/STM32F10x_StdPeriph_Driver/src/stm32f10x_tim.c **** void TIM_ICInit(TIM_TypeDef* TIMx, TIM_ICInitTypeDef* TIM_ICInitStruct)
 588:../Libraries/STM32F10x_StdPeriph_Driver/src/stm32f10x_tim.c **** {
 21614              		.loc 1 588 0
 21615              		.cfi_startproc
 21616              		@ args = 0, pretend = 0, frame = 8
 21617              		@ frame_needed = 1, uses_anonymous_args = 0
 21618 0000 80B5     		push	{r7, lr}
 21619              	.LCFI18:
 21620              		.cfi_def_cfa_offset 8
 21621 0002 82B0     		sub	sp, sp, #8
 21622              	.LCFI19:
 21623              		.cfi_def_cfa_offset 16
 21624 0004 00AF     		add	r7, sp, #0
 21625              		.cfi_offset 14, -4
 21626              		.cfi_offset 7, -8
 21627              	.LCFI20:
 21628              		.cfi_def_cfa_register 7
 21629 0006 7860     		str	r0, [r7, #4]
 21630 0008 3960     		str	r1, [r7, #0]
 589:../Libraries/STM32F10x_StdPeriph_Driver/src/stm32f10x_tim.c ****   /* Check the parameters */
 590:../Libraries/STM32F10x_StdPeriph_Driver/src/stm32f10x_tim.c ****   assert_param(IS_TIM_CHANNEL(TIM_ICInitStruct->TIM_Channel));  
 591:../Libraries/STM32F10x_StdPeriph_Driver/src/stm32f10x_tim.c ****   assert_param(IS_TIM_IC_SELECTION(TIM_ICInitStruct->TIM_ICSelection));
 592:../Libraries/STM32F10x_StdPeriph_Driver/src/stm32f10x_tim.c ****   assert_param(IS_TIM_IC_PRESCALER(TIM_ICInitStruct->TIM_ICPrescaler));
 593:../Libraries/STM32F10x_StdPeriph_Driver/src/stm32f10x_tim.c ****   assert_param(IS_TIM_IC_FILTER(TIM_ICInitStruct->TIM_ICFilter));
 594:../Libraries/STM32F10x_StdPeriph_Driver/src/stm32f10x_tim.c ****   
 595:../Libraries/STM32F10x_StdPeriph_Driver/src/stm32f10x_tim.c ****   if((TIMx == TIM1) || (TIMx == TIM8) || (TIMx == TIM2) || (TIMx == TIM3) ||
 596:../Libraries/STM32F10x_StdPeriph_Driver/src/stm32f10x_tim.c ****      (TIMx == TIM4) ||(TIMx == TIM5))
 597:../Libraries/STM32F10x_StdPeriph_Driver/src/stm32f10x_tim.c ****   {
 598:../Libraries/STM32F10x_StdPeriph_Driver/src/stm32f10x_tim.c ****     assert_param(IS_TIM_IC_POLARITY(TIM_ICInitStruct->TIM_ICPolarity));
 599:../Libraries/STM32F10x_StdPeriph_Driver/src/stm32f10x_tim.c ****   }
 600:../Libraries/STM32F10x_StdPeriph_Driver/src/stm32f10x_tim.c ****   else
 601:../Libraries/STM32F10x_StdPeriph_Driver/src/stm32f10x_tim.c ****   {
 602:../Libraries/STM32F10x_StdPeriph_Driver/src/stm32f10x_tim.c ****     assert_param(IS_TIM_IC_POLARITY_LITE(TIM_ICInitStruct->TIM_ICPolarity));
 603:../Libraries/STM32F10x_StdPeriph_Driver/src/stm32f10x_tim.c ****   }
 604:../Libraries/STM32F10x_StdPeriph_Driver/src/stm32f10x_tim.c ****   if (TIM_ICInitStruct->TIM_Channel == TIM_Channel_1)
 21631              		.loc 1 604 0
 21632 000a 3B68     		ldr	r3, [r7, #0]
 21633 000c 1B88     		ldrh	r3, [r3, #0]
 21634 000e 002B     		cmp	r3, #0
 21635 0010 0FD1     		bne	.L50
 605:../Libraries/STM32F10x_StdPeriph_Driver/src/stm32f10x_tim.c ****   {
 606:../Libraries/STM32F10x_StdPeriph_Driver/src/stm32f10x_tim.c ****     assert_param(IS_TIM_LIST8_PERIPH(TIMx));
 607:../Libraries/STM32F10x_StdPeriph_Driver/src/stm32f10x_tim.c ****     /* TI1 Configuration */
 608:../Libraries/STM32F10x_StdPeriph_Driver/src/stm32f10x_tim.c ****     TI1_Config(TIMx, TIM_ICInitStruct->TIM_ICPolarity,
 21636              		.loc 1 608 0
 21637 0012 3B68     		ldr	r3, [r7, #0]
 21638 0014 5988     		ldrh	r1, [r3, #2]
 609:../Libraries/STM32F10x_StdPeriph_Driver/src/stm32f10x_tim.c ****                TIM_ICInitStruct->TIM_ICSelection,
 21639              		.loc 1 609 0
 21640 0016 3B68     		ldr	r3, [r7, #0]
 608:../Libraries/STM32F10x_StdPeriph_Driver/src/stm32f10x_tim.c ****     TI1_Config(TIMx, TIM_ICInitStruct->TIM_ICPolarity,
 21641              		.loc 1 608 0
 21642 0018 9A88     		ldrh	r2, [r3, #4]
 610:../Libraries/STM32F10x_StdPeriph_Driver/src/stm32f10x_tim.c ****                TIM_ICInitStruct->TIM_ICFilter);
 21643              		.loc 1 610 0
 21644 001a 3B68     		ldr	r3, [r7, #0]
 608:../Libraries/STM32F10x_StdPeriph_Driver/src/stm32f10x_tim.c ****     TI1_Config(TIMx, TIM_ICInitStruct->TIM_ICPolarity,
 21645              		.loc 1 608 0
 21646 001c 1B89     		ldrh	r3, [r3, #8]
 21647 001e 7868     		ldr	r0, [r7, #4]
 21648 0020 FFF7FEFF 		bl	TI1_Config
 611:../Libraries/STM32F10x_StdPeriph_Driver/src/stm32f10x_tim.c ****     /* Set the Input Capture Prescaler value */
 612:../Libraries/STM32F10x_StdPeriph_Driver/src/stm32f10x_tim.c ****     TIM_SetIC1Prescaler(TIMx, TIM_ICInitStruct->TIM_ICPrescaler);
 21649              		.loc 1 612 0
 21650 0024 3B68     		ldr	r3, [r7, #0]
 21651 0026 DB88     		ldrh	r3, [r3, #6]
 21652 0028 7868     		ldr	r0, [r7, #4]
 21653 002a 1946     		mov	r1, r3
 21654 002c FFF7FEFF 		bl	TIM_SetIC1Prescaler
 21655 0030 36E0     		b	.L49
 21656              	.L50:
 613:../Libraries/STM32F10x_StdPeriph_Driver/src/stm32f10x_tim.c ****   }
 614:../Libraries/STM32F10x_StdPeriph_Driver/src/stm32f10x_tim.c ****   else if (TIM_ICInitStruct->TIM_Channel == TIM_Channel_2)
 21657              		.loc 1 614 0
 21658 0032 3B68     		ldr	r3, [r7, #0]
 21659 0034 1B88     		ldrh	r3, [r3, #0]
 21660 0036 042B     		cmp	r3, #4
 21661 0038 0FD1     		bne	.L52
 615:../Libraries/STM32F10x_StdPeriph_Driver/src/stm32f10x_tim.c ****   {
 616:../Libraries/STM32F10x_StdPeriph_Driver/src/stm32f10x_tim.c ****     assert_param(IS_TIM_LIST6_PERIPH(TIMx));
 617:../Libraries/STM32F10x_StdPeriph_Driver/src/stm32f10x_tim.c ****     /* TI2 Configuration */
 618:../Libraries/STM32F10x_StdPeriph_Driver/src/stm32f10x_tim.c ****     TI2_Config(TIMx, TIM_ICInitStruct->TIM_ICPolarity,
 21662              		.loc 1 618 0
 21663 003a 3B68     		ldr	r3, [r7, #0]
 21664 003c 5988     		ldrh	r1, [r3, #2]
 619:../Libraries/STM32F10x_StdPeriph_Driver/src/stm32f10x_tim.c ****                TIM_ICInitStruct->TIM_ICSelection,
 21665              		.loc 1 619 0
 21666 003e 3B68     		ldr	r3, [r7, #0]
 618:../Libraries/STM32F10x_StdPeriph_Driver/src/stm32f10x_tim.c ****     TI2_Config(TIMx, TIM_ICInitStruct->TIM_ICPolarity,
 21667              		.loc 1 618 0
 21668 0040 9A88     		ldrh	r2, [r3, #4]
 620:../Libraries/STM32F10x_StdPeriph_Driver/src/stm32f10x_tim.c ****                TIM_ICInitStruct->TIM_ICFilter);
 21669              		.loc 1 620 0
 21670 0042 3B68     		ldr	r3, [r7, #0]
 618:../Libraries/STM32F10x_StdPeriph_Driver/src/stm32f10x_tim.c ****     TI2_Config(TIMx, TIM_ICInitStruct->TIM_ICPolarity,
 21671              		.loc 1 618 0
 21672 0044 1B89     		ldrh	r3, [r3, #8]
 21673 0046 7868     		ldr	r0, [r7, #4]
 21674 0048 FFF7FEFF 		bl	TI2_Config
 621:../Libraries/STM32F10x_StdPeriph_Driver/src/stm32f10x_tim.c ****     /* Set the Input Capture Prescaler value */
 622:../Libraries/STM32F10x_StdPeriph_Driver/src/stm32f10x_tim.c ****     TIM_SetIC2Prescaler(TIMx, TIM_ICInitStruct->TIM_ICPrescaler);
 21675              		.loc 1 622 0
 21676 004c 3B68     		ldr	r3, [r7, #0]
 21677 004e DB88     		ldrh	r3, [r3, #6]
 21678 0050 7868     		ldr	r0, [r7, #4]
 21679 0052 1946     		mov	r1, r3
 21680 0054 FFF7FEFF 		bl	TIM_SetIC2Prescaler
 21681 0058 22E0     		b	.L49
 21682              	.L52:
 623:../Libraries/STM32F10x_StdPeriph_Driver/src/stm32f10x_tim.c ****   }
 624:../Libraries/STM32F10x_StdPeriph_Driver/src/stm32f10x_tim.c ****   else if (TIM_ICInitStruct->TIM_Channel == TIM_Channel_3)
 21683              		.loc 1 624 0
 21684 005a 3B68     		ldr	r3, [r7, #0]
 21685 005c 1B88     		ldrh	r3, [r3, #0]
 21686 005e 082B     		cmp	r3, #8
 21687 0060 0FD1     		bne	.L53
 625:../Libraries/STM32F10x_StdPeriph_Driver/src/stm32f10x_tim.c ****   {
 626:../Libraries/STM32F10x_StdPeriph_Driver/src/stm32f10x_tim.c ****     assert_param(IS_TIM_LIST3_PERIPH(TIMx));
 627:../Libraries/STM32F10x_StdPeriph_Driver/src/stm32f10x_tim.c ****     /* TI3 Configuration */
 628:../Libraries/STM32F10x_StdPeriph_Driver/src/stm32f10x_tim.c ****     TI3_Config(TIMx,  TIM_ICInitStruct->TIM_ICPolarity,
 21688              		.loc 1 628 0
 21689 0062 3B68     		ldr	r3, [r7, #0]
 21690 0064 5988     		ldrh	r1, [r3, #2]
 629:../Libraries/STM32F10x_StdPeriph_Driver/src/stm32f10x_tim.c ****                TIM_ICInitStruct->TIM_ICSelection,
 21691              		.loc 1 629 0
 21692 0066 3B68     		ldr	r3, [r7, #0]
 628:../Libraries/STM32F10x_StdPeriph_Driver/src/stm32f10x_tim.c ****     TI3_Config(TIMx,  TIM_ICInitStruct->TIM_ICPolarity,
 21693              		.loc 1 628 0
 21694 0068 9A88     		ldrh	r2, [r3, #4]
 630:../Libraries/STM32F10x_StdPeriph_Driver/src/stm32f10x_tim.c ****                TIM_ICInitStruct->TIM_ICFilter);
 21695              		.loc 1 630 0
 21696 006a 3B68     		ldr	r3, [r7, #0]
 628:../Libraries/STM32F10x_StdPeriph_Driver/src/stm32f10x_tim.c ****     TI3_Config(TIMx,  TIM_ICInitStruct->TIM_ICPolarity,
 21697              		.loc 1 628 0
 21698 006c 1B89     		ldrh	r3, [r3, #8]
 21699 006e 7868     		ldr	r0, [r7, #4]
 21700 0070 FFF7FEFF 		bl	TI3_Config
 631:../Libraries/STM32F10x_StdPeriph_Driver/src/stm32f10x_tim.c ****     /* Set the Input Capture Prescaler value */
 632:../Libraries/STM32F10x_StdPeriph_Driver/src/stm32f10x_tim.c ****     TIM_SetIC3Prescaler(TIMx, TIM_ICInitStruct->TIM_ICPrescaler);
 21701              		.loc 1 632 0
 21702 0074 3B68     		ldr	r3, [r7, #0]
 21703 0076 DB88     		ldrh	r3, [r3, #6]
 21704 0078 7868     		ldr	r0, [r7, #4]
 21705 007a 1946     		mov	r1, r3
 21706 007c FFF7FEFF 		bl	TIM_SetIC3Prescaler
 21707 0080 0EE0     		b	.L49
 21708              	.L53:
 633:../Libraries/STM32F10x_StdPeriph_Driver/src/stm32f10x_tim.c ****   }
 634:../Libraries/STM32F10x_StdPeriph_Driver/src/stm32f10x_tim.c ****   else
 635:../Libraries/STM32F10x_StdPeriph_Driver/src/stm32f10x_tim.c ****   {
 636:../Libraries/STM32F10x_StdPeriph_Driver/src/stm32f10x_tim.c ****     assert_param(IS_TIM_LIST3_PERIPH(TIMx));
 637:../Libraries/STM32F10x_StdPeriph_Driver/src/stm32f10x_tim.c ****     /* TI4 Configuration */
 638:../Libraries/STM32F10x_StdPeriph_Driver/src/stm32f10x_tim.c ****     TI4_Config(TIMx, TIM_ICInitStruct->TIM_ICPolarity,
 21709              		.loc 1 638 0
 21710 0082 3B68     		ldr	r3, [r7, #0]
 21711 0084 5988     		ldrh	r1, [r3, #2]
 639:../Libraries/STM32F10x_StdPeriph_Driver/src/stm32f10x_tim.c ****                TIM_ICInitStruct->TIM_ICSelection,
 21712              		.loc 1 639 0
 21713 0086 3B68     		ldr	r3, [r7, #0]
 638:../Libraries/STM32F10x_StdPeriph_Driver/src/stm32f10x_tim.c ****     TI4_Config(TIMx, TIM_ICInitStruct->TIM_ICPolarity,
 21714              		.loc 1 638 0
 21715 0088 9A88     		ldrh	r2, [r3, #4]
 640:../Libraries/STM32F10x_StdPeriph_Driver/src/stm32f10x_tim.c ****                TIM_ICInitStruct->TIM_ICFilter);
 21716              		.loc 1 640 0
 21717 008a 3B68     		ldr	r3, [r7, #0]
 638:../Libraries/STM32F10x_StdPeriph_Driver/src/stm32f10x_tim.c ****     TI4_Config(TIMx, TIM_ICInitStruct->TIM_ICPolarity,
 21718              		.loc 1 638 0
 21719 008c 1B89     		ldrh	r3, [r3, #8]
 21720 008e 7868     		ldr	r0, [r7, #4]
 21721 0090 FFF7FEFF 		bl	TI4_Config
 641:../Libraries/STM32F10x_StdPeriph_Driver/src/stm32f10x_tim.c ****     /* Set the Input Capture Prescaler value */
 642:../Libraries/STM32F10x_StdPeriph_Driver/src/stm32f10x_tim.c ****     TIM_SetIC4Prescaler(TIMx, TIM_ICInitStruct->TIM_ICPrescaler);
 21722              		.loc 1 642 0
 21723 0094 3B68     		ldr	r3, [r7, #0]
 21724 0096 DB88     		ldrh	r3, [r3, #6]
 21725 0098 7868     		ldr	r0, [r7, #4]
 21726 009a 1946     		mov	r1, r3
 21727 009c FFF7FEFF 		bl	TIM_SetIC4Prescaler
 21728              	.L49:
 643:../Libraries/STM32F10x_StdPeriph_Driver/src/stm32f10x_tim.c ****   }
 644:../Libraries/STM32F10x_StdPeriph_Driver/src/stm32f10x_tim.c **** }
 21729              		.loc 1 644 0
 21730 00a0 07F10807 		add	r7, r7, #8
 21731 00a4 BD46     		mov	sp, r7
 21732 00a6 80BD     		pop	{r7, pc}
 21733              		.cfi_endproc
 21734              	.LFE35:
 21736              		.section	.text.TIM_PWMIConfig,"ax",%progbits
 21737              		.align	2
 21738              		.global	TIM_PWMIConfig
 21739              		.thumb
 21740              		.thumb_func
 21742              	TIM_PWMIConfig:
 21743              	.LFB36:
 645:../Libraries/STM32F10x_StdPeriph_Driver/src/stm32f10x_tim.c **** 
 646:../Libraries/STM32F10x_StdPeriph_Driver/src/stm32f10x_tim.c **** /**
 647:../Libraries/STM32F10x_StdPeriph_Driver/src/stm32f10x_tim.c ****   * @brief  Configures the TIM peripheral according to the specified
 648:../Libraries/STM32F10x_StdPeriph_Driver/src/stm32f10x_tim.c ****   *         parameters in the TIM_ICInitStruct to measure an external PWM signal.
 649:../Libraries/STM32F10x_StdPeriph_Driver/src/stm32f10x_tim.c ****   * @param  TIMx: where x can be  1, 2, 3, 4, 5, 8, 9, 12 or 15 to select the TIM peripheral.
 650:../Libraries/STM32F10x_StdPeriph_Driver/src/stm32f10x_tim.c ****   * @param  TIM_ICInitStruct: pointer to a TIM_ICInitTypeDef structure
 651:../Libraries/STM32F10x_StdPeriph_Driver/src/stm32f10x_tim.c ****   *         that contains the configuration information for the specified TIM peripheral.
 652:../Libraries/STM32F10x_StdPeriph_Driver/src/stm32f10x_tim.c ****   * @retval None
 653:../Libraries/STM32F10x_StdPeriph_Driver/src/stm32f10x_tim.c ****   */
 654:../Libraries/STM32F10x_StdPeriph_Driver/src/stm32f10x_tim.c **** void TIM_PWMIConfig(TIM_TypeDef* TIMx, TIM_ICInitTypeDef* TIM_ICInitStruct)
 655:../Libraries/STM32F10x_StdPeriph_Driver/src/stm32f10x_tim.c **** {
 21744              		.loc 1 655 0
 21745              		.cfi_startproc
 21746              		@ args = 0, pretend = 0, frame = 16
 21747              		@ frame_needed = 1, uses_anonymous_args = 0
 21748 0000 80B5     		push	{r7, lr}
 21749              	.LCFI21:
 21750              		.cfi_def_cfa_offset 8
 21751 0002 84B0     		sub	sp, sp, #16
 21752              	.LCFI22:
 21753              		.cfi_def_cfa_offset 24
 21754 0004 00AF     		add	r7, sp, #0
 21755              		.cfi_offset 14, -4
 21756              		.cfi_offset 7, -8
 21757              	.LCFI23:
 21758              		.cfi_def_cfa_register 7
 21759 0006 7860     		str	r0, [r7, #4]
 21760 0008 3960     		str	r1, [r7, #0]
 656:../Libraries/STM32F10x_StdPeriph_Driver/src/stm32f10x_tim.c ****   uint16_t icoppositepolarity = TIM_ICPolarity_Rising;
 21761              		.loc 1 656 0
 21762 000a 4FF00003 		mov	r3, #0
 21763 000e FB81     		strh	r3, [r7, #14]	@ movhi
 657:../Libraries/STM32F10x_StdPeriph_Driver/src/stm32f10x_tim.c ****   uint16_t icoppositeselection = TIM_ICSelection_DirectTI;
 21764              		.loc 1 657 0
 21765 0010 4FF00103 		mov	r3, #1
 21766 0014 BB81     		strh	r3, [r7, #12]	@ movhi
 658:../Libraries/STM32F10x_StdPeriph_Driver/src/stm32f10x_tim.c ****   /* Check the parameters */
 659:../Libraries/STM32F10x_StdPeriph_Driver/src/stm32f10x_tim.c ****   assert_param(IS_TIM_LIST6_PERIPH(TIMx));
 660:../Libraries/STM32F10x_StdPeriph_Driver/src/stm32f10x_tim.c ****   /* Select the Opposite Input Polarity */
 661:../Libraries/STM32F10x_StdPeriph_Driver/src/stm32f10x_tim.c ****   if (TIM_ICInitStruct->TIM_ICPolarity == TIM_ICPolarity_Rising)
 21767              		.loc 1 661 0
 21768 0016 3B68     		ldr	r3, [r7, #0]
 21769 0018 5B88     		ldrh	r3, [r3, #2]
 21770 001a 002B     		cmp	r3, #0
 21771 001c 03D1     		bne	.L55
 662:../Libraries/STM32F10x_StdPeriph_Driver/src/stm32f10x_tim.c ****   {
 663:../Libraries/STM32F10x_StdPeriph_Driver/src/stm32f10x_tim.c ****     icoppositepolarity = TIM_ICPolarity_Falling;
 21772              		.loc 1 663 0
 21773 001e 4FF00203 		mov	r3, #2
 21774 0022 FB81     		strh	r3, [r7, #14]	@ movhi
 21775 0024 02E0     		b	.L56
 21776              	.L55:
 664:../Libraries/STM32F10x_StdPeriph_Driver/src/stm32f10x_tim.c ****   }
 665:../Libraries/STM32F10x_StdPeriph_Driver/src/stm32f10x_tim.c ****   else
 666:../Libraries/STM32F10x_StdPeriph_Driver/src/stm32f10x_tim.c ****   {
 667:../Libraries/STM32F10x_StdPeriph_Driver/src/stm32f10x_tim.c ****     icoppositepolarity = TIM_ICPolarity_Rising;
 21777              		.loc 1 667 0
 21778 0026 4FF00003 		mov	r3, #0
 21779 002a FB81     		strh	r3, [r7, #14]	@ movhi
 21780              	.L56:
 668:../Libraries/STM32F10x_StdPeriph_Driver/src/stm32f10x_tim.c ****   }
 669:../Libraries/STM32F10x_StdPeriph_Driver/src/stm32f10x_tim.c ****   /* Select the Opposite Input */
 670:../Libraries/STM32F10x_StdPeriph_Driver/src/stm32f10x_tim.c ****   if (TIM_ICInitStruct->TIM_ICSelection == TIM_ICSelection_DirectTI)
 21781              		.loc 1 670 0
 21782 002c 3B68     		ldr	r3, [r7, #0]
 21783 002e 9B88     		ldrh	r3, [r3, #4]
 21784 0030 012B     		cmp	r3, #1
 21785 0032 03D1     		bne	.L57
 671:../Libraries/STM32F10x_StdPeriph_Driver/src/stm32f10x_tim.c ****   {
 672:../Libraries/STM32F10x_StdPeriph_Driver/src/stm32f10x_tim.c ****     icoppositeselection = TIM_ICSelection_IndirectTI;
 21786              		.loc 1 672 0
 21787 0034 4FF00203 		mov	r3, #2
 21788 0038 BB81     		strh	r3, [r7, #12]	@ movhi
 21789 003a 02E0     		b	.L58
 21790              	.L57:
 673:../Libraries/STM32F10x_StdPeriph_Driver/src/stm32f10x_tim.c ****   }
 674:../Libraries/STM32F10x_StdPeriph_Driver/src/stm32f10x_tim.c ****   else
 675:../Libraries/STM32F10x_StdPeriph_Driver/src/stm32f10x_tim.c ****   {
 676:../Libraries/STM32F10x_StdPeriph_Driver/src/stm32f10x_tim.c ****     icoppositeselection = TIM_ICSelection_DirectTI;
 21791              		.loc 1 676 0
 21792 003c 4FF00103 		mov	r3, #1
 21793 0040 BB81     		strh	r3, [r7, #12]	@ movhi
 21794              	.L58:
 677:../Libraries/STM32F10x_StdPeriph_Driver/src/stm32f10x_tim.c ****   }
 678:../Libraries/STM32F10x_StdPeriph_Driver/src/stm32f10x_tim.c ****   if (TIM_ICInitStruct->TIM_Channel == TIM_Channel_1)
 21795              		.loc 1 678 0
 21796 0042 3B68     		ldr	r3, [r7, #0]
 21797 0044 1B88     		ldrh	r3, [r3, #0]
 21798 0046 002B     		cmp	r3, #0
 21799 0048 1CD1     		bne	.L59
 679:../Libraries/STM32F10x_StdPeriph_Driver/src/stm32f10x_tim.c ****   {
 680:../Libraries/STM32F10x_StdPeriph_Driver/src/stm32f10x_tim.c ****     /* TI1 Configuration */
 681:../Libraries/STM32F10x_StdPeriph_Driver/src/stm32f10x_tim.c ****     TI1_Config(TIMx, TIM_ICInitStruct->TIM_ICPolarity, TIM_ICInitStruct->TIM_ICSelection,
 21800              		.loc 1 681 0
 21801 004a 3B68     		ldr	r3, [r7, #0]
 21802 004c 5988     		ldrh	r1, [r3, #2]
 21803 004e 3B68     		ldr	r3, [r7, #0]
 21804 0050 9A88     		ldrh	r2, [r3, #4]
 682:../Libraries/STM32F10x_StdPeriph_Driver/src/stm32f10x_tim.c ****                TIM_ICInitStruct->TIM_ICFilter);
 21805              		.loc 1 682 0
 21806 0052 3B68     		ldr	r3, [r7, #0]
 681:../Libraries/STM32F10x_StdPeriph_Driver/src/stm32f10x_tim.c ****     TI1_Config(TIMx, TIM_ICInitStruct->TIM_ICPolarity, TIM_ICInitStruct->TIM_ICSelection,
 21807              		.loc 1 681 0
 21808 0054 1B89     		ldrh	r3, [r3, #8]
 21809 0056 7868     		ldr	r0, [r7, #4]
 21810 0058 FFF7FEFF 		bl	TI1_Config
 683:../Libraries/STM32F10x_StdPeriph_Driver/src/stm32f10x_tim.c ****     /* Set the Input Capture Prescaler value */
 684:../Libraries/STM32F10x_StdPeriph_Driver/src/stm32f10x_tim.c ****     TIM_SetIC1Prescaler(TIMx, TIM_ICInitStruct->TIM_ICPrescaler);
 21811              		.loc 1 684 0
 21812 005c 3B68     		ldr	r3, [r7, #0]
 21813 005e DB88     		ldrh	r3, [r3, #6]
 21814 0060 7868     		ldr	r0, [r7, #4]
 21815 0062 1946     		mov	r1, r3
 21816 0064 FFF7FEFF 		bl	TIM_SetIC1Prescaler
 685:../Libraries/STM32F10x_StdPeriph_Driver/src/stm32f10x_tim.c ****     /* TI2 Configuration */
 686:../Libraries/STM32F10x_StdPeriph_Driver/src/stm32f10x_tim.c ****     TI2_Config(TIMx, icoppositepolarity, icoppositeselection, TIM_ICInitStruct->TIM_ICFilter);
 21817              		.loc 1 686 0
 21818 0068 3B68     		ldr	r3, [r7, #0]
 21819 006a 1B89     		ldrh	r3, [r3, #8]
 21820 006c F989     		ldrh	r1, [r7, #14]
 21821 006e BA89     		ldrh	r2, [r7, #12]
 21822 0070 7868     		ldr	r0, [r7, #4]
 21823 0072 FFF7FEFF 		bl	TI2_Config
 687:../Libraries/STM32F10x_StdPeriph_Driver/src/stm32f10x_tim.c ****     /* Set the Input Capture Prescaler value */
 688:../Libraries/STM32F10x_StdPeriph_Driver/src/stm32f10x_tim.c ****     TIM_SetIC2Prescaler(TIMx, TIM_ICInitStruct->TIM_ICPrescaler);
 21824              		.loc 1 688 0
 21825 0076 3B68     		ldr	r3, [r7, #0]
 21826 0078 DB88     		ldrh	r3, [r3, #6]
 21827 007a 7868     		ldr	r0, [r7, #4]
 21828 007c 1946     		mov	r1, r3
 21829 007e FFF7FEFF 		bl	TIM_SetIC2Prescaler
 21830 0082 1BE0     		b	.L54
 21831              	.L59:
 689:../Libraries/STM32F10x_StdPeriph_Driver/src/stm32f10x_tim.c ****   }
 690:../Libraries/STM32F10x_StdPeriph_Driver/src/stm32f10x_tim.c ****   else
 691:../Libraries/STM32F10x_StdPeriph_Driver/src/stm32f10x_tim.c ****   { 
 692:../Libraries/STM32F10x_StdPeriph_Driver/src/stm32f10x_tim.c ****     /* TI2 Configuration */
 693:../Libraries/STM32F10x_StdPeriph_Driver/src/stm32f10x_tim.c ****     TI2_Config(TIMx, TIM_ICInitStruct->TIM_ICPolarity, TIM_ICInitStruct->TIM_ICSelection,
 21832              		.loc 1 693 0
 21833 0084 3B68     		ldr	r3, [r7, #0]
 21834 0086 5988     		ldrh	r1, [r3, #2]
 21835 0088 3B68     		ldr	r3, [r7, #0]
 21836 008a 9A88     		ldrh	r2, [r3, #4]
 694:../Libraries/STM32F10x_StdPeriph_Driver/src/stm32f10x_tim.c ****                TIM_ICInitStruct->TIM_ICFilter);
 21837              		.loc 1 694 0
 21838 008c 3B68     		ldr	r3, [r7, #0]
 693:../Libraries/STM32F10x_StdPeriph_Driver/src/stm32f10x_tim.c ****     TI2_Config(TIMx, TIM_ICInitStruct->TIM_ICPolarity, TIM_ICInitStruct->TIM_ICSelection,
 21839              		.loc 1 693 0
 21840 008e 1B89     		ldrh	r3, [r3, #8]
 21841 0090 7868     		ldr	r0, [r7, #4]
 21842 0092 FFF7FEFF 		bl	TI2_Config
 695:../Libraries/STM32F10x_StdPeriph_Driver/src/stm32f10x_tim.c ****     /* Set the Input Capture Prescaler value */
 696:../Libraries/STM32F10x_StdPeriph_Driver/src/stm32f10x_tim.c ****     TIM_SetIC2Prescaler(TIMx, TIM_ICInitStruct->TIM_ICPrescaler);
 21843              		.loc 1 696 0
 21844 0096 3B68     		ldr	r3, [r7, #0]
 21845 0098 DB88     		ldrh	r3, [r3, #6]
 21846 009a 7868     		ldr	r0, [r7, #4]
 21847 009c 1946     		mov	r1, r3
 21848 009e FFF7FEFF 		bl	TIM_SetIC2Prescaler
 697:../Libraries/STM32F10x_StdPeriph_Driver/src/stm32f10x_tim.c ****     /* TI1 Configuration */
 698:../Libraries/STM32F10x_StdPeriph_Driver/src/stm32f10x_tim.c ****     TI1_Config(TIMx, icoppositepolarity, icoppositeselection, TIM_ICInitStruct->TIM_ICFilter);
 21849              		.loc 1 698 0
 21850 00a2 3B68     		ldr	r3, [r7, #0]
 21851 00a4 1B89     		ldrh	r3, [r3, #8]
 21852 00a6 F989     		ldrh	r1, [r7, #14]
 21853 00a8 BA89     		ldrh	r2, [r7, #12]
 21854 00aa 7868     		ldr	r0, [r7, #4]
 21855 00ac FFF7FEFF 		bl	TI1_Config
 699:../Libraries/STM32F10x_StdPeriph_Driver/src/stm32f10x_tim.c ****     /* Set the Input Capture Prescaler value */
 700:../Libraries/STM32F10x_StdPeriph_Driver/src/stm32f10x_tim.c ****     TIM_SetIC1Prescaler(TIMx, TIM_ICInitStruct->TIM_ICPrescaler);
 21856              		.loc 1 700 0
 21857 00b0 3B68     		ldr	r3, [r7, #0]
 21858 00b2 DB88     		ldrh	r3, [r3, #6]
 21859 00b4 7868     		ldr	r0, [r7, #4]
 21860 00b6 1946     		mov	r1, r3
 21861 00b8 FFF7FEFF 		bl	TIM_SetIC1Prescaler
 21862              	.L54:
 701:../Libraries/STM32F10x_StdPeriph_Driver/src/stm32f10x_tim.c ****   }
 702:../Libraries/STM32F10x_StdPeriph_Driver/src/stm32f10x_tim.c **** }
 21863              		.loc 1 702 0
 21864 00bc 07F11007 		add	r7, r7, #16
 21865 00c0 BD46     		mov	sp, r7
 21866 00c2 80BD     		pop	{r7, pc}
 21867              		.cfi_endproc
 21868              	.LFE36:
 21870              		.section	.text.TIM_BDTRConfig,"ax",%progbits
 21871              		.align	2
 21872              		.global	TIM_BDTRConfig
 21873              		.thumb
 21874              		.thumb_func
 21876              	TIM_BDTRConfig:
 21877              	.LFB37:
 703:../Libraries/STM32F10x_StdPeriph_Driver/src/stm32f10x_tim.c **** 
 704:../Libraries/STM32F10x_StdPeriph_Driver/src/stm32f10x_tim.c **** /**
 705:../Libraries/STM32F10x_StdPeriph_Driver/src/stm32f10x_tim.c ****   * @brief  Configures the: Break feature, dead time, Lock level, the OSSI,
 706:../Libraries/STM32F10x_StdPeriph_Driver/src/stm32f10x_tim.c ****   *         the OSSR State and the AOE(automatic output enable).
 707:../Libraries/STM32F10x_StdPeriph_Driver/src/stm32f10x_tim.c ****   * @param  TIMx: where x can be  1 or 8 to select the TIM 
 708:../Libraries/STM32F10x_StdPeriph_Driver/src/stm32f10x_tim.c ****   * @param  TIM_BDTRInitStruct: pointer to a TIM_BDTRInitTypeDef structure that
 709:../Libraries/STM32F10x_StdPeriph_Driver/src/stm32f10x_tim.c ****   *         contains the BDTR Register configuration  information for the TIM peripheral.
 710:../Libraries/STM32F10x_StdPeriph_Driver/src/stm32f10x_tim.c ****   * @retval None
 711:../Libraries/STM32F10x_StdPeriph_Driver/src/stm32f10x_tim.c ****   */
 712:../Libraries/STM32F10x_StdPeriph_Driver/src/stm32f10x_tim.c **** void TIM_BDTRConfig(TIM_TypeDef* TIMx, TIM_BDTRInitTypeDef *TIM_BDTRInitStruct)
 713:../Libraries/STM32F10x_StdPeriph_Driver/src/stm32f10x_tim.c **** {
 21878              		.loc 1 713 0
 21879              		.cfi_startproc
 21880              		@ args = 0, pretend = 0, frame = 8
 21881              		@ frame_needed = 1, uses_anonymous_args = 0
 21882              		@ link register save eliminated.
 21883 0000 80B4     		push	{r7}
 21884              	.LCFI24:
 21885              		.cfi_def_cfa_offset 4
 21886 0002 83B0     		sub	sp, sp, #12
 21887              	.LCFI25:
 21888              		.cfi_def_cfa_offset 16
 21889 0004 00AF     		add	r7, sp, #0
 21890              		.cfi_offset 7, -4
 21891              	.LCFI26:
 21892              		.cfi_def_cfa_register 7
 21893 0006 7860     		str	r0, [r7, #4]
 21894 0008 3960     		str	r1, [r7, #0]
 714:../Libraries/STM32F10x_StdPeriph_Driver/src/stm32f10x_tim.c ****   /* Check the parameters */
 715:../Libraries/STM32F10x_StdPeriph_Driver/src/stm32f10x_tim.c ****   assert_param(IS_TIM_LIST2_PERIPH(TIMx));
 716:../Libraries/STM32F10x_StdPeriph_Driver/src/stm32f10x_tim.c ****   assert_param(IS_TIM_OSSR_STATE(TIM_BDTRInitStruct->TIM_OSSRState));
 717:../Libraries/STM32F10x_StdPeriph_Driver/src/stm32f10x_tim.c ****   assert_param(IS_TIM_OSSI_STATE(TIM_BDTRInitStruct->TIM_OSSIState));
 718:../Libraries/STM32F10x_StdPeriph_Driver/src/stm32f10x_tim.c ****   assert_param(IS_TIM_LOCK_LEVEL(TIM_BDTRInitStruct->TIM_LOCKLevel));
 719:../Libraries/STM32F10x_StdPeriph_Driver/src/stm32f10x_tim.c ****   assert_param(IS_TIM_BREAK_STATE(TIM_BDTRInitStruct->TIM_Break));
 720:../Libraries/STM32F10x_StdPeriph_Driver/src/stm32f10x_tim.c ****   assert_param(IS_TIM_BREAK_POLARITY(TIM_BDTRInitStruct->TIM_BreakPolarity));
 721:../Libraries/STM32F10x_StdPeriph_Driver/src/stm32f10x_tim.c ****   assert_param(IS_TIM_AUTOMATIC_OUTPUT_STATE(TIM_BDTRInitStruct->TIM_AutomaticOutput));
 722:../Libraries/STM32F10x_StdPeriph_Driver/src/stm32f10x_tim.c ****   /* Set the Lock level, the Break enable Bit and the Ploarity, the OSSR State,
 723:../Libraries/STM32F10x_StdPeriph_Driver/src/stm32f10x_tim.c ****      the OSSI State, the dead time value and the Automatic Output Enable Bit */
 724:../Libraries/STM32F10x_StdPeriph_Driver/src/stm32f10x_tim.c ****   TIMx->BDTR = (uint32_t)TIM_BDTRInitStruct->TIM_OSSRState | TIM_BDTRInitStruct->TIM_OSSIState |
 21895              		.loc 1 724 0
 21896 000a 3B68     		ldr	r3, [r7, #0]
 21897 000c 1A88     		ldrh	r2, [r3, #0]
 21898 000e 3B68     		ldr	r3, [r7, #0]
 21899 0010 5B88     		ldrh	r3, [r3, #2]
 21900 0012 42EA0303 		orr	r3, r2, r3
 21901 0016 9AB2     		uxth	r2, r3
 725:../Libraries/STM32F10x_StdPeriph_Driver/src/stm32f10x_tim.c ****              TIM_BDTRInitStruct->TIM_LOCKLevel | TIM_BDTRInitStruct->TIM_DeadTime |
 21902              		.loc 1 725 0
 21903 0018 3B68     		ldr	r3, [r7, #0]
 21904 001a 9B88     		ldrh	r3, [r3, #4]
 724:../Libraries/STM32F10x_StdPeriph_Driver/src/stm32f10x_tim.c ****   TIMx->BDTR = (uint32_t)TIM_BDTRInitStruct->TIM_OSSRState | TIM_BDTRInitStruct->TIM_OSSIState |
 21905              		.loc 1 724 0
 21906 001c 42EA0303 		orr	r3, r2, r3
 21907 0020 9AB2     		uxth	r2, r3
 21908              		.loc 1 725 0
 21909 0022 3B68     		ldr	r3, [r7, #0]
 21910 0024 DB88     		ldrh	r3, [r3, #6]
 724:../Libraries/STM32F10x_StdPeriph_Driver/src/stm32f10x_tim.c ****   TIMx->BDTR = (uint32_t)TIM_BDTRInitStruct->TIM_OSSRState | TIM_BDTRInitStruct->TIM_OSSIState |
 21911              		.loc 1 724 0
 21912 0026 42EA0303 		orr	r3, r2, r3
 21913 002a 9AB2     		uxth	r2, r3
 726:../Libraries/STM32F10x_StdPeriph_Driver/src/stm32f10x_tim.c ****              TIM_BDTRInitStruct->TIM_Break | TIM_BDTRInitStruct->TIM_BreakPolarity |
 21914              		.loc 1 726 0
 21915 002c 3B68     		ldr	r3, [r7, #0]
 21916 002e 1B89     		ldrh	r3, [r3, #8]
 724:../Libraries/STM32F10x_StdPeriph_Driver/src/stm32f10x_tim.c ****   TIMx->BDTR = (uint32_t)TIM_BDTRInitStruct->TIM_OSSRState | TIM_BDTRInitStruct->TIM_OSSIState |
 21917              		.loc 1 724 0
 21918 0030 42EA0303 		orr	r3, r2, r3
 21919 0034 9AB2     		uxth	r2, r3
 21920              		.loc 1 726 0
 21921 0036 3B68     		ldr	r3, [r7, #0]
 21922 0038 5B89     		ldrh	r3, [r3, #10]
 724:../Libraries/STM32F10x_StdPeriph_Driver/src/stm32f10x_tim.c ****   TIMx->BDTR = (uint32_t)TIM_BDTRInitStruct->TIM_OSSRState | TIM_BDTRInitStruct->TIM_OSSIState |
 21923              		.loc 1 724 0
 21924 003a 42EA0303 		orr	r3, r2, r3
 21925 003e 9AB2     		uxth	r2, r3
 727:../Libraries/STM32F10x_StdPeriph_Driver/src/stm32f10x_tim.c ****              TIM_BDTRInitStruct->TIM_AutomaticOutput;
 21926              		.loc 1 727 0
 21927 0040 3B68     		ldr	r3, [r7, #0]
 21928 0042 9B89     		ldrh	r3, [r3, #12]
 724:../Libraries/STM32F10x_StdPeriph_Driver/src/stm32f10x_tim.c ****   TIMx->BDTR = (uint32_t)TIM_BDTRInitStruct->TIM_OSSRState | TIM_BDTRInitStruct->TIM_OSSIState |
 21929              		.loc 1 724 0
 21930 0044 42EA0303 		orr	r3, r2, r3
 21931 0048 9AB2     		uxth	r2, r3
 21932 004a 7B68     		ldr	r3, [r7, #4]
 21933 004c A3F84420 		strh	r2, [r3, #68]	@ movhi
 728:../Libraries/STM32F10x_StdPeriph_Driver/src/stm32f10x_tim.c **** }
 21934              		.loc 1 728 0
 21935 0050 07F10C07 		add	r7, r7, #12
 21936 0054 BD46     		mov	sp, r7
 21937 0056 80BC     		pop	{r7}
 21938 0058 7047     		bx	lr
 21939              		.cfi_endproc
 21940              	.LFE37:
 21942 005a 00BF     		.section	.text.TIM_TimeBaseStructInit,"ax",%progbits
 21943              		.align	2
 21944              		.global	TIM_TimeBaseStructInit
 21945              		.thumb
 21946              		.thumb_func
 21948              	TIM_TimeBaseStructInit:
 21949              	.LFB38:
 729:../Libraries/STM32F10x_StdPeriph_Driver/src/stm32f10x_tim.c **** 
 730:../Libraries/STM32F10x_StdPeriph_Driver/src/stm32f10x_tim.c **** /**
 731:../Libraries/STM32F10x_StdPeriph_Driver/src/stm32f10x_tim.c ****   * @brief  Fills each TIM_TimeBaseInitStruct member with its default value.
 732:../Libraries/STM32F10x_StdPeriph_Driver/src/stm32f10x_tim.c ****   * @param  TIM_TimeBaseInitStruct : pointer to a TIM_TimeBaseInitTypeDef
 733:../Libraries/STM32F10x_StdPeriph_Driver/src/stm32f10x_tim.c ****   *         structure which will be initialized.
 734:../Libraries/STM32F10x_StdPeriph_Driver/src/stm32f10x_tim.c ****   * @retval None
 735:../Libraries/STM32F10x_StdPeriph_Driver/src/stm32f10x_tim.c ****   */
 736:../Libraries/STM32F10x_StdPeriph_Driver/src/stm32f10x_tim.c **** void TIM_TimeBaseStructInit(TIM_TimeBaseInitTypeDef* TIM_TimeBaseInitStruct)
 737:../Libraries/STM32F10x_StdPeriph_Driver/src/stm32f10x_tim.c **** {
 21950              		.loc 1 737 0
 21951              		.cfi_startproc
 21952              		@ args = 0, pretend = 0, frame = 8
 21953              		@ frame_needed = 1, uses_anonymous_args = 0
 21954              		@ link register save eliminated.
 21955 0000 80B4     		push	{r7}
 21956              	.LCFI27:
 21957              		.cfi_def_cfa_offset 4
 21958 0002 83B0     		sub	sp, sp, #12
 21959              	.LCFI28:
 21960              		.cfi_def_cfa_offset 16
 21961 0004 00AF     		add	r7, sp, #0
 21962              		.cfi_offset 7, -4
 21963              	.LCFI29:
 21964              		.cfi_def_cfa_register 7
 21965 0006 7860     		str	r0, [r7, #4]
 738:../Libraries/STM32F10x_StdPeriph_Driver/src/stm32f10x_tim.c ****   /* Set the default configuration */
 739:../Libraries/STM32F10x_StdPeriph_Driver/src/stm32f10x_tim.c ****   TIM_TimeBaseInitStruct->TIM_Period = 0xFFFF;
 21966              		.loc 1 739 0
 21967 0008 7B68     		ldr	r3, [r7, #4]
 21968 000a 4FF6FF72 		movw	r2, #65535
 21969 000e 9A80     		strh	r2, [r3, #4]	@ movhi
 740:../Libraries/STM32F10x_StdPeriph_Driver/src/stm32f10x_tim.c ****   TIM_TimeBaseInitStruct->TIM_Prescaler = 0x0000;
 21970              		.loc 1 740 0
 21971 0010 7B68     		ldr	r3, [r7, #4]
 21972 0012 4FF00002 		mov	r2, #0
 21973 0016 1A80     		strh	r2, [r3, #0]	@ movhi
 741:../Libraries/STM32F10x_StdPeriph_Driver/src/stm32f10x_tim.c ****   TIM_TimeBaseInitStruct->TIM_ClockDivision = TIM_CKD_DIV1;
 21974              		.loc 1 741 0
 21975 0018 7B68     		ldr	r3, [r7, #4]
 21976 001a 4FF00002 		mov	r2, #0
 21977 001e DA80     		strh	r2, [r3, #6]	@ movhi
 742:../Libraries/STM32F10x_StdPeriph_Driver/src/stm32f10x_tim.c ****   TIM_TimeBaseInitStruct->TIM_CounterMode = TIM_CounterMode_Up;
 21978              		.loc 1 742 0
 21979 0020 7B68     		ldr	r3, [r7, #4]
 21980 0022 4FF00002 		mov	r2, #0
 21981 0026 5A80     		strh	r2, [r3, #2]	@ movhi
 743:../Libraries/STM32F10x_StdPeriph_Driver/src/stm32f10x_tim.c ****   TIM_TimeBaseInitStruct->TIM_RepetitionCounter = 0x0000;
 21982              		.loc 1 743 0
 21983 0028 7B68     		ldr	r3, [r7, #4]
 21984 002a 4FF00002 		mov	r2, #0
 21985 002e 1A72     		strb	r2, [r3, #8]
 744:../Libraries/STM32F10x_StdPeriph_Driver/src/stm32f10x_tim.c **** }
 21986              		.loc 1 744 0
 21987 0030 07F10C07 		add	r7, r7, #12
 21988 0034 BD46     		mov	sp, r7
 21989 0036 80BC     		pop	{r7}
 21990 0038 7047     		bx	lr
 21991              		.cfi_endproc
 21992              	.LFE38:
 21994 003a 00BF     		.section	.text.TIM_OCStructInit,"ax",%progbits
 21995              		.align	2
 21996              		.global	TIM_OCStructInit
 21997              		.thumb
 21998              		.thumb_func
 22000              	TIM_OCStructInit:
 22001              	.LFB39:
 745:../Libraries/STM32F10x_StdPeriph_Driver/src/stm32f10x_tim.c **** 
 746:../Libraries/STM32F10x_StdPeriph_Driver/src/stm32f10x_tim.c **** /**
 747:../Libraries/STM32F10x_StdPeriph_Driver/src/stm32f10x_tim.c ****   * @brief  Fills each TIM_OCInitStruct member with its default value.
 748:../Libraries/STM32F10x_StdPeriph_Driver/src/stm32f10x_tim.c ****   * @param  TIM_OCInitStruct : pointer to a TIM_OCInitTypeDef structure which will
 749:../Libraries/STM32F10x_StdPeriph_Driver/src/stm32f10x_tim.c ****   *         be initialized.
 750:../Libraries/STM32F10x_StdPeriph_Driver/src/stm32f10x_tim.c ****   * @retval None
 751:../Libraries/STM32F10x_StdPeriph_Driver/src/stm32f10x_tim.c ****   */
 752:../Libraries/STM32F10x_StdPeriph_Driver/src/stm32f10x_tim.c **** void TIM_OCStructInit(TIM_OCInitTypeDef* TIM_OCInitStruct)
 753:../Libraries/STM32F10x_StdPeriph_Driver/src/stm32f10x_tim.c **** {
 22002              		.loc 1 753 0
 22003              		.cfi_startproc
 22004              		@ args = 0, pretend = 0, frame = 8
 22005              		@ frame_needed = 1, uses_anonymous_args = 0
 22006              		@ link register save eliminated.
 22007 0000 80B4     		push	{r7}
 22008              	.LCFI30:
 22009              		.cfi_def_cfa_offset 4
 22010 0002 83B0     		sub	sp, sp, #12
 22011              	.LCFI31:
 22012              		.cfi_def_cfa_offset 16
 22013 0004 00AF     		add	r7, sp, #0
 22014              		.cfi_offset 7, -4
 22015              	.LCFI32:
 22016              		.cfi_def_cfa_register 7
 22017 0006 7860     		str	r0, [r7, #4]
 754:../Libraries/STM32F10x_StdPeriph_Driver/src/stm32f10x_tim.c ****   /* Set the default configuration */
 755:../Libraries/STM32F10x_StdPeriph_Driver/src/stm32f10x_tim.c ****   TIM_OCInitStruct->TIM_OCMode = TIM_OCMode_Timing;
 22018              		.loc 1 755 0
 22019 0008 7B68     		ldr	r3, [r7, #4]
 22020 000a 4FF00002 		mov	r2, #0
 22021 000e 1A80     		strh	r2, [r3, #0]	@ movhi
 756:../Libraries/STM32F10x_StdPeriph_Driver/src/stm32f10x_tim.c ****   TIM_OCInitStruct->TIM_OutputState = TIM_OutputState_Disable;
 22022              		.loc 1 756 0
 22023 0010 7B68     		ldr	r3, [r7, #4]
 22024 0012 4FF00002 		mov	r2, #0
 22025 0016 5A80     		strh	r2, [r3, #2]	@ movhi
 757:../Libraries/STM32F10x_StdPeriph_Driver/src/stm32f10x_tim.c ****   TIM_OCInitStruct->TIM_OutputNState = TIM_OutputNState_Disable;
 22026              		.loc 1 757 0
 22027 0018 7B68     		ldr	r3, [r7, #4]
 22028 001a 4FF00002 		mov	r2, #0
 22029 001e 9A80     		strh	r2, [r3, #4]	@ movhi
 758:../Libraries/STM32F10x_StdPeriph_Driver/src/stm32f10x_tim.c ****   TIM_OCInitStruct->TIM_Pulse = 0x0000;
 22030              		.loc 1 758 0
 22031 0020 7B68     		ldr	r3, [r7, #4]
 22032 0022 4FF00002 		mov	r2, #0
 22033 0026 DA80     		strh	r2, [r3, #6]	@ movhi
 759:../Libraries/STM32F10x_StdPeriph_Driver/src/stm32f10x_tim.c ****   TIM_OCInitStruct->TIM_OCPolarity = TIM_OCPolarity_High;
 22034              		.loc 1 759 0
 22035 0028 7B68     		ldr	r3, [r7, #4]
 22036 002a 4FF00002 		mov	r2, #0
 22037 002e 1A81     		strh	r2, [r3, #8]	@ movhi
 760:../Libraries/STM32F10x_StdPeriph_Driver/src/stm32f10x_tim.c ****   TIM_OCInitStruct->TIM_OCNPolarity = TIM_OCPolarity_High;
 22038              		.loc 1 760 0
 22039 0030 7B68     		ldr	r3, [r7, #4]
 22040 0032 4FF00002 		mov	r2, #0
 22041 0036 5A81     		strh	r2, [r3, #10]	@ movhi
 761:../Libraries/STM32F10x_StdPeriph_Driver/src/stm32f10x_tim.c ****   TIM_OCInitStruct->TIM_OCIdleState = TIM_OCIdleState_Reset;
 22042              		.loc 1 761 0
 22043 0038 7B68     		ldr	r3, [r7, #4]
 22044 003a 4FF00002 		mov	r2, #0
 22045 003e 9A81     		strh	r2, [r3, #12]	@ movhi
 762:../Libraries/STM32F10x_StdPeriph_Driver/src/stm32f10x_tim.c ****   TIM_OCInitStruct->TIM_OCNIdleState = TIM_OCNIdleState_Reset;
 22046              		.loc 1 762 0
 22047 0040 7B68     		ldr	r3, [r7, #4]
 22048 0042 4FF00002 		mov	r2, #0
 22049 0046 DA81     		strh	r2, [r3, #14]	@ movhi
 763:../Libraries/STM32F10x_StdPeriph_Driver/src/stm32f10x_tim.c **** }
 22050              		.loc 1 763 0
 22051 0048 07F10C07 		add	r7, r7, #12
 22052 004c BD46     		mov	sp, r7
 22053 004e 80BC     		pop	{r7}
 22054 0050 7047     		bx	lr
 22055              		.cfi_endproc
 22056              	.LFE39:
 22058 0052 00BF     		.section	.text.TIM_ICStructInit,"ax",%progbits
 22059              		.align	2
 22060              		.global	TIM_ICStructInit
 22061              		.thumb
 22062              		.thumb_func
 22064              	TIM_ICStructInit:
 22065              	.LFB40:
 764:../Libraries/STM32F10x_StdPeriph_Driver/src/stm32f10x_tim.c **** 
 765:../Libraries/STM32F10x_StdPeriph_Driver/src/stm32f10x_tim.c **** /**
 766:../Libraries/STM32F10x_StdPeriph_Driver/src/stm32f10x_tim.c ****   * @brief  Fills each TIM_ICInitStruct member with its default value.
 767:../Libraries/STM32F10x_StdPeriph_Driver/src/stm32f10x_tim.c ****   * @param  TIM_ICInitStruct: pointer to a TIM_ICInitTypeDef structure which will
 768:../Libraries/STM32F10x_StdPeriph_Driver/src/stm32f10x_tim.c ****   *         be initialized.
 769:../Libraries/STM32F10x_StdPeriph_Driver/src/stm32f10x_tim.c ****   * @retval None
 770:../Libraries/STM32F10x_StdPeriph_Driver/src/stm32f10x_tim.c ****   */
 771:../Libraries/STM32F10x_StdPeriph_Driver/src/stm32f10x_tim.c **** void TIM_ICStructInit(TIM_ICInitTypeDef* TIM_ICInitStruct)
 772:../Libraries/STM32F10x_StdPeriph_Driver/src/stm32f10x_tim.c **** {
 22066              		.loc 1 772 0
 22067              		.cfi_startproc
 22068              		@ args = 0, pretend = 0, frame = 8
 22069              		@ frame_needed = 1, uses_anonymous_args = 0
 22070              		@ link register save eliminated.
 22071 0000 80B4     		push	{r7}
 22072              	.LCFI33:
 22073              		.cfi_def_cfa_offset 4
 22074 0002 83B0     		sub	sp, sp, #12
 22075              	.LCFI34:
 22076              		.cfi_def_cfa_offset 16
 22077 0004 00AF     		add	r7, sp, #0
 22078              		.cfi_offset 7, -4
 22079              	.LCFI35:
 22080              		.cfi_def_cfa_register 7
 22081 0006 7860     		str	r0, [r7, #4]
 773:../Libraries/STM32F10x_StdPeriph_Driver/src/stm32f10x_tim.c ****   /* Set the default configuration */
 774:../Libraries/STM32F10x_StdPeriph_Driver/src/stm32f10x_tim.c ****   TIM_ICInitStruct->TIM_Channel = TIM_Channel_1;
 22082              		.loc 1 774 0
 22083 0008 7B68     		ldr	r3, [r7, #4]
 22084 000a 4FF00002 		mov	r2, #0
 22085 000e 1A80     		strh	r2, [r3, #0]	@ movhi
 775:../Libraries/STM32F10x_StdPeriph_Driver/src/stm32f10x_tim.c ****   TIM_ICInitStruct->TIM_ICPolarity = TIM_ICPolarity_Rising;
 22086              		.loc 1 775 0
 22087 0010 7B68     		ldr	r3, [r7, #4]
 22088 0012 4FF00002 		mov	r2, #0
 22089 0016 5A80     		strh	r2, [r3, #2]	@ movhi
 776:../Libraries/STM32F10x_StdPeriph_Driver/src/stm32f10x_tim.c ****   TIM_ICInitStruct->TIM_ICSelection = TIM_ICSelection_DirectTI;
 22090              		.loc 1 776 0
 22091 0018 7B68     		ldr	r3, [r7, #4]
 22092 001a 4FF00102 		mov	r2, #1
 22093 001e 9A80     		strh	r2, [r3, #4]	@ movhi
 777:../Libraries/STM32F10x_StdPeriph_Driver/src/stm32f10x_tim.c ****   TIM_ICInitStruct->TIM_ICPrescaler = TIM_ICPSC_DIV1;
 22094              		.loc 1 777 0
 22095 0020 7B68     		ldr	r3, [r7, #4]
 22096 0022 4FF00002 		mov	r2, #0
 22097 0026 DA80     		strh	r2, [r3, #6]	@ movhi
 778:../Libraries/STM32F10x_StdPeriph_Driver/src/stm32f10x_tim.c ****   TIM_ICInitStruct->TIM_ICFilter = 0x00;
 22098              		.loc 1 778 0
 22099 0028 7B68     		ldr	r3, [r7, #4]
 22100 002a 4FF00002 		mov	r2, #0
 22101 002e 1A81     		strh	r2, [r3, #8]	@ movhi
 779:../Libraries/STM32F10x_StdPeriph_Driver/src/stm32f10x_tim.c **** }
 22102              		.loc 1 779 0
 22103 0030 07F10C07 		add	r7, r7, #12
 22104 0034 BD46     		mov	sp, r7
 22105 0036 80BC     		pop	{r7}
 22106 0038 7047     		bx	lr
 22107              		.cfi_endproc
 22108              	.LFE40:
 22110 003a 00BF     		.section	.text.TIM_BDTRStructInit,"ax",%progbits
 22111              		.align	2
 22112              		.global	TIM_BDTRStructInit
 22113              		.thumb
 22114              		.thumb_func
 22116              	TIM_BDTRStructInit:
 22117              	.LFB41:
 780:../Libraries/STM32F10x_StdPeriph_Driver/src/stm32f10x_tim.c **** 
 781:../Libraries/STM32F10x_StdPeriph_Driver/src/stm32f10x_tim.c **** /**
 782:../Libraries/STM32F10x_StdPeriph_Driver/src/stm32f10x_tim.c ****   * @brief  Fills each TIM_BDTRInitStruct member with its default value.
 783:../Libraries/STM32F10x_StdPeriph_Driver/src/stm32f10x_tim.c ****   * @param  TIM_BDTRInitStruct: pointer to a TIM_BDTRInitTypeDef structure which
 784:../Libraries/STM32F10x_StdPeriph_Driver/src/stm32f10x_tim.c ****   *         will be initialized.
 785:../Libraries/STM32F10x_StdPeriph_Driver/src/stm32f10x_tim.c ****   * @retval None
 786:../Libraries/STM32F10x_StdPeriph_Driver/src/stm32f10x_tim.c ****   */
 787:../Libraries/STM32F10x_StdPeriph_Driver/src/stm32f10x_tim.c **** void TIM_BDTRStructInit(TIM_BDTRInitTypeDef* TIM_BDTRInitStruct)
 788:../Libraries/STM32F10x_StdPeriph_Driver/src/stm32f10x_tim.c **** {
 22118              		.loc 1 788 0
 22119              		.cfi_startproc
 22120              		@ args = 0, pretend = 0, frame = 8
 22121              		@ frame_needed = 1, uses_anonymous_args = 0
 22122              		@ link register save eliminated.
 22123 0000 80B4     		push	{r7}
 22124              	.LCFI36:
 22125              		.cfi_def_cfa_offset 4
 22126 0002 83B0     		sub	sp, sp, #12
 22127              	.LCFI37:
 22128              		.cfi_def_cfa_offset 16
 22129 0004 00AF     		add	r7, sp, #0
 22130              		.cfi_offset 7, -4
 22131              	.LCFI38:
 22132              		.cfi_def_cfa_register 7
 22133 0006 7860     		str	r0, [r7, #4]
 789:../Libraries/STM32F10x_StdPeriph_Driver/src/stm32f10x_tim.c ****   /* Set the default configuration */
 790:../Libraries/STM32F10x_StdPeriph_Driver/src/stm32f10x_tim.c ****   TIM_BDTRInitStruct->TIM_OSSRState = TIM_OSSRState_Disable;
 22134              		.loc 1 790 0
 22135 0008 7B68     		ldr	r3, [r7, #4]
 22136 000a 4FF00002 		mov	r2, #0
 22137 000e 1A80     		strh	r2, [r3, #0]	@ movhi
 791:../Libraries/STM32F10x_StdPeriph_Driver/src/stm32f10x_tim.c ****   TIM_BDTRInitStruct->TIM_OSSIState = TIM_OSSIState_Disable;
 22138              		.loc 1 791 0
 22139 0010 7B68     		ldr	r3, [r7, #4]
 22140 0012 4FF00002 		mov	r2, #0
 22141 0016 5A80     		strh	r2, [r3, #2]	@ movhi
 792:../Libraries/STM32F10x_StdPeriph_Driver/src/stm32f10x_tim.c ****   TIM_BDTRInitStruct->TIM_LOCKLevel = TIM_LOCKLevel_OFF;
 22142              		.loc 1 792 0
 22143 0018 7B68     		ldr	r3, [r7, #4]
 22144 001a 4FF00002 		mov	r2, #0
 22145 001e 9A80     		strh	r2, [r3, #4]	@ movhi
 793:../Libraries/STM32F10x_StdPeriph_Driver/src/stm32f10x_tim.c ****   TIM_BDTRInitStruct->TIM_DeadTime = 0x00;
 22146              		.loc 1 793 0
 22147 0020 7B68     		ldr	r3, [r7, #4]
 22148 0022 4FF00002 		mov	r2, #0
 22149 0026 DA80     		strh	r2, [r3, #6]	@ movhi
 794:../Libraries/STM32F10x_StdPeriph_Driver/src/stm32f10x_tim.c ****   TIM_BDTRInitStruct->TIM_Break = TIM_Break_Disable;
 22150              		.loc 1 794 0
 22151 0028 7B68     		ldr	r3, [r7, #4]
 22152 002a 4FF00002 		mov	r2, #0
 22153 002e 1A81     		strh	r2, [r3, #8]	@ movhi
 795:../Libraries/STM32F10x_StdPeriph_Driver/src/stm32f10x_tim.c ****   TIM_BDTRInitStruct->TIM_BreakPolarity = TIM_BreakPolarity_Low;
 22154              		.loc 1 795 0
 22155 0030 7B68     		ldr	r3, [r7, #4]
 22156 0032 4FF00002 		mov	r2, #0
 22157 0036 5A81     		strh	r2, [r3, #10]	@ movhi
 796:../Libraries/STM32F10x_StdPeriph_Driver/src/stm32f10x_tim.c ****   TIM_BDTRInitStruct->TIM_AutomaticOutput = TIM_AutomaticOutput_Disable;
 22158              		.loc 1 796 0
 22159 0038 7B68     		ldr	r3, [r7, #4]
 22160 003a 4FF00002 		mov	r2, #0
 22161 003e 9A81     		strh	r2, [r3, #12]	@ movhi
 797:../Libraries/STM32F10x_StdPeriph_Driver/src/stm32f10x_tim.c **** }
 22162              		.loc 1 797 0
 22163 0040 07F10C07 		add	r7, r7, #12
 22164 0044 BD46     		mov	sp, r7
 22165 0046 80BC     		pop	{r7}
 22166 0048 7047     		bx	lr
 22167              		.cfi_endproc
 22168              	.LFE41:
 22170 004a 00BF     		.section	.text.TIM_Cmd,"ax",%progbits
 22171              		.align	2
 22172              		.global	TIM_Cmd
 22173              		.thumb
 22174              		.thumb_func
 22176              	TIM_Cmd:
 22177              	.LFB42:
 798:../Libraries/STM32F10x_StdPeriph_Driver/src/stm32f10x_tim.c **** 
 799:../Libraries/STM32F10x_StdPeriph_Driver/src/stm32f10x_tim.c **** /**
 800:../Libraries/STM32F10x_StdPeriph_Driver/src/stm32f10x_tim.c ****   * @brief  Enables or disables the specified TIM peripheral.
 801:../Libraries/STM32F10x_StdPeriph_Driver/src/stm32f10x_tim.c ****   * @param  TIMx: where x can be 1 to 17 to select the TIMx peripheral.
 802:../Libraries/STM32F10x_StdPeriph_Driver/src/stm32f10x_tim.c ****   * @param  NewState: new state of the TIMx peripheral.
 803:../Libraries/STM32F10x_StdPeriph_Driver/src/stm32f10x_tim.c ****   *   This parameter can be: ENABLE or DISABLE.
 804:../Libraries/STM32F10x_StdPeriph_Driver/src/stm32f10x_tim.c ****   * @retval None
 805:../Libraries/STM32F10x_StdPeriph_Driver/src/stm32f10x_tim.c ****   */
 806:../Libraries/STM32F10x_StdPeriph_Driver/src/stm32f10x_tim.c **** void TIM_Cmd(TIM_TypeDef* TIMx, FunctionalState NewState)
 807:../Libraries/STM32F10x_StdPeriph_Driver/src/stm32f10x_tim.c **** {
 22178              		.loc 1 807 0
 22179              		.cfi_startproc
 22180              		@ args = 0, pretend = 0, frame = 8
 22181              		@ frame_needed = 1, uses_anonymous_args = 0
 22182              		@ link register save eliminated.
 22183 0000 80B4     		push	{r7}
 22184              	.LCFI39:
 22185              		.cfi_def_cfa_offset 4
 22186 0002 83B0     		sub	sp, sp, #12
 22187              	.LCFI40:
 22188              		.cfi_def_cfa_offset 16
 22189 0004 00AF     		add	r7, sp, #0
 22190              		.cfi_offset 7, -4
 22191              	.LCFI41:
 22192              		.cfi_def_cfa_register 7
 22193 0006 7860     		str	r0, [r7, #4]
 22194 0008 0B46     		mov	r3, r1
 22195 000a FB70     		strb	r3, [r7, #3]
 808:../Libraries/STM32F10x_StdPeriph_Driver/src/stm32f10x_tim.c ****   /* Check the parameters */
 809:../Libraries/STM32F10x_StdPeriph_Driver/src/stm32f10x_tim.c ****   assert_param(IS_TIM_ALL_PERIPH(TIMx));
 810:../Libraries/STM32F10x_StdPeriph_Driver/src/stm32f10x_tim.c ****   assert_param(IS_FUNCTIONAL_STATE(NewState));
 811:../Libraries/STM32F10x_StdPeriph_Driver/src/stm32f10x_tim.c ****   
 812:../Libraries/STM32F10x_StdPeriph_Driver/src/stm32f10x_tim.c ****   if (NewState != DISABLE)
 22196              		.loc 1 812 0
 22197 000c FB78     		ldrb	r3, [r7, #3]	@ zero_extendqisi2
 22198 000e 002B     		cmp	r3, #0
 22199 0010 08D0     		beq	.L67
 813:../Libraries/STM32F10x_StdPeriph_Driver/src/stm32f10x_tim.c ****   {
 814:../Libraries/STM32F10x_StdPeriph_Driver/src/stm32f10x_tim.c ****     /* Enable the TIM Counter */
 815:../Libraries/STM32F10x_StdPeriph_Driver/src/stm32f10x_tim.c ****     TIMx->CR1 |= TIM_CR1_CEN;
 22200              		.loc 1 815 0
 22201 0012 7B68     		ldr	r3, [r7, #4]
 22202 0014 1B88     		ldrh	r3, [r3, #0]	@ movhi
 22203 0016 9BB2     		uxth	r3, r3
 22204 0018 43F00103 		orr	r3, r3, #1
 22205 001c 9AB2     		uxth	r2, r3
 22206 001e 7B68     		ldr	r3, [r7, #4]
 22207 0020 1A80     		strh	r2, [r3, #0]	@ movhi
 22208 0022 07E0     		b	.L66
 22209              	.L67:
 816:../Libraries/STM32F10x_StdPeriph_Driver/src/stm32f10x_tim.c ****   }
 817:../Libraries/STM32F10x_StdPeriph_Driver/src/stm32f10x_tim.c ****   else
 818:../Libraries/STM32F10x_StdPeriph_Driver/src/stm32f10x_tim.c ****   {
 819:../Libraries/STM32F10x_StdPeriph_Driver/src/stm32f10x_tim.c ****     /* Disable the TIM Counter */
 820:../Libraries/STM32F10x_StdPeriph_Driver/src/stm32f10x_tim.c ****     TIMx->CR1 &= (uint16_t)(~((uint16_t)TIM_CR1_CEN));
 22210              		.loc 1 820 0
 22211 0024 7B68     		ldr	r3, [r7, #4]
 22212 0026 1B88     		ldrh	r3, [r3, #0]	@ movhi
 22213 0028 9BB2     		uxth	r3, r3
 22214 002a 23F00103 		bic	r3, r3, #1
 22215 002e 9AB2     		uxth	r2, r3
 22216 0030 7B68     		ldr	r3, [r7, #4]
 22217 0032 1A80     		strh	r2, [r3, #0]	@ movhi
 22218              	.L66:
 821:../Libraries/STM32F10x_StdPeriph_Driver/src/stm32f10x_tim.c ****   }
 822:../Libraries/STM32F10x_StdPeriph_Driver/src/stm32f10x_tim.c **** }
 22219              		.loc 1 822 0
 22220 0034 07F10C07 		add	r7, r7, #12
 22221 0038 BD46     		mov	sp, r7
 22222 003a 80BC     		pop	{r7}
 22223 003c 7047     		bx	lr
 22224              		.cfi_endproc
 22225              	.LFE42:
 22227 003e 00BF     		.section	.text.TIM_CtrlPWMOutputs,"ax",%progbits
 22228              		.align	2
 22229              		.global	TIM_CtrlPWMOutputs
 22230              		.thumb
 22231              		.thumb_func
 22233              	TIM_CtrlPWMOutputs:
 22234              	.LFB43:
 823:../Libraries/STM32F10x_StdPeriph_Driver/src/stm32f10x_tim.c **** 
 824:../Libraries/STM32F10x_StdPeriph_Driver/src/stm32f10x_tim.c **** /**
 825:../Libraries/STM32F10x_StdPeriph_Driver/src/stm32f10x_tim.c ****   * @brief  Enables or disables the TIM peripheral Main Outputs.
 826:../Libraries/STM32F10x_StdPeriph_Driver/src/stm32f10x_tim.c ****   * @param  TIMx: where x can be 1, 8, 15, 16 or 17 to select the TIMx peripheral.
 827:../Libraries/STM32F10x_StdPeriph_Driver/src/stm32f10x_tim.c ****   * @param  NewState: new state of the TIM peripheral Main Outputs.
 828:../Libraries/STM32F10x_StdPeriph_Driver/src/stm32f10x_tim.c ****   *   This parameter can be: ENABLE or DISABLE.
 829:../Libraries/STM32F10x_StdPeriph_Driver/src/stm32f10x_tim.c ****   * @retval None
 830:../Libraries/STM32F10x_StdPeriph_Driver/src/stm32f10x_tim.c ****   */
 831:../Libraries/STM32F10x_StdPeriph_Driver/src/stm32f10x_tim.c **** void TIM_CtrlPWMOutputs(TIM_TypeDef* TIMx, FunctionalState NewState)
 832:../Libraries/STM32F10x_StdPeriph_Driver/src/stm32f10x_tim.c **** {
 22235              		.loc 1 832 0
 22236              		.cfi_startproc
 22237              		@ args = 0, pretend = 0, frame = 8
 22238              		@ frame_needed = 1, uses_anonymous_args = 0
 22239              		@ link register save eliminated.
 22240 0000 80B4     		push	{r7}
 22241              	.LCFI42:
 22242              		.cfi_def_cfa_offset 4
 22243 0002 83B0     		sub	sp, sp, #12
 22244              	.LCFI43:
 22245              		.cfi_def_cfa_offset 16
 22246 0004 00AF     		add	r7, sp, #0
 22247              		.cfi_offset 7, -4
 22248              	.LCFI44:
 22249              		.cfi_def_cfa_register 7
 22250 0006 7860     		str	r0, [r7, #4]
 22251 0008 0B46     		mov	r3, r1
 22252 000a FB70     		strb	r3, [r7, #3]
 833:../Libraries/STM32F10x_StdPeriph_Driver/src/stm32f10x_tim.c ****   /* Check the parameters */
 834:../Libraries/STM32F10x_StdPeriph_Driver/src/stm32f10x_tim.c ****   assert_param(IS_TIM_LIST2_PERIPH(TIMx));
 835:../Libraries/STM32F10x_StdPeriph_Driver/src/stm32f10x_tim.c ****   assert_param(IS_FUNCTIONAL_STATE(NewState));
 836:../Libraries/STM32F10x_StdPeriph_Driver/src/stm32f10x_tim.c ****   if (NewState != DISABLE)
 22253              		.loc 1 836 0
 22254 000c FB78     		ldrb	r3, [r7, #3]	@ zero_extendqisi2
 22255 000e 002B     		cmp	r3, #0
 22256 0010 0CD0     		beq	.L70
 837:../Libraries/STM32F10x_StdPeriph_Driver/src/stm32f10x_tim.c ****   {
 838:../Libraries/STM32F10x_StdPeriph_Driver/src/stm32f10x_tim.c ****     /* Enable the TIM Main Output */
 839:../Libraries/STM32F10x_StdPeriph_Driver/src/stm32f10x_tim.c ****     TIMx->BDTR |= TIM_BDTR_MOE;
 22257              		.loc 1 839 0
 22258 0012 7B68     		ldr	r3, [r7, #4]
 22259 0014 B3F84430 		ldrh	r3, [r3, #68]	@ movhi
 22260 0018 9BB2     		uxth	r3, r3
 22261 001a 6FEA4343 		mvn	r3, r3, lsl #17
 22262 001e 6FEA5343 		mvn	r3, r3, lsr #17
 22263 0022 9AB2     		uxth	r2, r3
 22264 0024 7B68     		ldr	r3, [r7, #4]
 22265 0026 A3F84420 		strh	r2, [r3, #68]	@ movhi
 22266 002a 0BE0     		b	.L69
 22267              	.L70:
 840:../Libraries/STM32F10x_StdPeriph_Driver/src/stm32f10x_tim.c ****   }
 841:../Libraries/STM32F10x_StdPeriph_Driver/src/stm32f10x_tim.c ****   else
 842:../Libraries/STM32F10x_StdPeriph_Driver/src/stm32f10x_tim.c ****   {
 843:../Libraries/STM32F10x_StdPeriph_Driver/src/stm32f10x_tim.c ****     /* Disable the TIM Main Output */
 844:../Libraries/STM32F10x_StdPeriph_Driver/src/stm32f10x_tim.c ****     TIMx->BDTR &= (uint16_t)(~((uint16_t)TIM_BDTR_MOE));
 22268              		.loc 1 844 0
 22269 002c 7B68     		ldr	r3, [r7, #4]
 22270 002e B3F84430 		ldrh	r3, [r3, #68]	@ movhi
 22271 0032 9BB2     		uxth	r3, r3
 22272 0034 4FEA4343 		lsl	r3, r3, #17
 22273 0038 4FEA5343 		lsr	r3, r3, #17
 22274 003c 9AB2     		uxth	r2, r3
 22275 003e 7B68     		ldr	r3, [r7, #4]
 22276 0040 A3F84420 		strh	r2, [r3, #68]	@ movhi
 22277              	.L69:
 845:../Libraries/STM32F10x_StdPeriph_Driver/src/stm32f10x_tim.c ****   }  
 846:../Libraries/STM32F10x_StdPeriph_Driver/src/stm32f10x_tim.c **** }
 22278              		.loc 1 846 0
 22279 0044 07F10C07 		add	r7, r7, #12
 22280 0048 BD46     		mov	sp, r7
 22281 004a 80BC     		pop	{r7}
 22282 004c 7047     		bx	lr
 22283              		.cfi_endproc
 22284              	.LFE43:
 22286 004e 00BF     		.section	.text.TIM_ITConfig,"ax",%progbits
 22287              		.align	2
 22288              		.global	TIM_ITConfig
 22289              		.thumb
 22290              		.thumb_func
 22292              	TIM_ITConfig:
 22293              	.LFB44:
 847:../Libraries/STM32F10x_StdPeriph_Driver/src/stm32f10x_tim.c **** 
 848:../Libraries/STM32F10x_StdPeriph_Driver/src/stm32f10x_tim.c **** /**
 849:../Libraries/STM32F10x_StdPeriph_Driver/src/stm32f10x_tim.c ****   * @brief  Enables or disables the specified TIM interrupts.
 850:../Libraries/STM32F10x_StdPeriph_Driver/src/stm32f10x_tim.c ****   * @param  TIMx: where x can be 1 to 17 to select the TIMx peripheral.
 851:../Libraries/STM32F10x_StdPeriph_Driver/src/stm32f10x_tim.c ****   * @param  TIM_IT: specifies the TIM interrupts sources to be enabled or disabled.
 852:../Libraries/STM32F10x_StdPeriph_Driver/src/stm32f10x_tim.c ****   *   This parameter can be any combination of the following values:
 853:../Libraries/STM32F10x_StdPeriph_Driver/src/stm32f10x_tim.c ****   *     @arg TIM_IT_Update: TIM update Interrupt source
 854:../Libraries/STM32F10x_StdPeriph_Driver/src/stm32f10x_tim.c ****   *     @arg TIM_IT_CC1: TIM Capture Compare 1 Interrupt source
 855:../Libraries/STM32F10x_StdPeriph_Driver/src/stm32f10x_tim.c ****   *     @arg TIM_IT_CC2: TIM Capture Compare 2 Interrupt source
 856:../Libraries/STM32F10x_StdPeriph_Driver/src/stm32f10x_tim.c ****   *     @arg TIM_IT_CC3: TIM Capture Compare 3 Interrupt source
 857:../Libraries/STM32F10x_StdPeriph_Driver/src/stm32f10x_tim.c ****   *     @arg TIM_IT_CC4: TIM Capture Compare 4 Interrupt source
 858:../Libraries/STM32F10x_StdPeriph_Driver/src/stm32f10x_tim.c ****   *     @arg TIM_IT_COM: TIM Commutation Interrupt source
 859:../Libraries/STM32F10x_StdPeriph_Driver/src/stm32f10x_tim.c ****   *     @arg TIM_IT_Trigger: TIM Trigger Interrupt source
 860:../Libraries/STM32F10x_StdPeriph_Driver/src/stm32f10x_tim.c ****   *     @arg TIM_IT_Break: TIM Break Interrupt source
 861:../Libraries/STM32F10x_StdPeriph_Driver/src/stm32f10x_tim.c ****   * @note 
 862:../Libraries/STM32F10x_StdPeriph_Driver/src/stm32f10x_tim.c ****   *   - TIM6 and TIM7 can only generate an update interrupt.
 863:../Libraries/STM32F10x_StdPeriph_Driver/src/stm32f10x_tim.c ****   *   - TIM9, TIM12 and TIM15 can have only TIM_IT_Update, TIM_IT_CC1,
 864:../Libraries/STM32F10x_StdPeriph_Driver/src/stm32f10x_tim.c ****   *      TIM_IT_CC2 or TIM_IT_Trigger. 
 865:../Libraries/STM32F10x_StdPeriph_Driver/src/stm32f10x_tim.c ****   *   - TIM10, TIM11, TIM13, TIM14, TIM16 and TIM17 can have TIM_IT_Update or TIM_IT_CC1.   
 866:../Libraries/STM32F10x_StdPeriph_Driver/src/stm32f10x_tim.c ****   *   - TIM_IT_Break is used only with TIM1, TIM8 and TIM15. 
 867:../Libraries/STM32F10x_StdPeriph_Driver/src/stm32f10x_tim.c ****   *   - TIM_IT_COM is used only with TIM1, TIM8, TIM15, TIM16 and TIM17.    
 868:../Libraries/STM32F10x_StdPeriph_Driver/src/stm32f10x_tim.c ****   * @param  NewState: new state of the TIM interrupts.
 869:../Libraries/STM32F10x_StdPeriph_Driver/src/stm32f10x_tim.c ****   *   This parameter can be: ENABLE or DISABLE.
 870:../Libraries/STM32F10x_StdPeriph_Driver/src/stm32f10x_tim.c ****   * @retval None
 871:../Libraries/STM32F10x_StdPeriph_Driver/src/stm32f10x_tim.c ****   */
 872:../Libraries/STM32F10x_StdPeriph_Driver/src/stm32f10x_tim.c **** void TIM_ITConfig(TIM_TypeDef* TIMx, uint16_t TIM_IT, FunctionalState NewState)
 873:../Libraries/STM32F10x_StdPeriph_Driver/src/stm32f10x_tim.c **** {  
 22294              		.loc 1 873 0
 22295              		.cfi_startproc
 22296              		@ args = 0, pretend = 0, frame = 8
 22297              		@ frame_needed = 1, uses_anonymous_args = 0
 22298              		@ link register save eliminated.
 22299 0000 80B4     		push	{r7}
 22300              	.LCFI45:
 22301              		.cfi_def_cfa_offset 4
 22302 0002 83B0     		sub	sp, sp, #12
 22303              	.LCFI46:
 22304              		.cfi_def_cfa_offset 16
 22305 0004 00AF     		add	r7, sp, #0
 22306              		.cfi_offset 7, -4
 22307              	.LCFI47:
 22308              		.cfi_def_cfa_register 7
 22309 0006 7860     		str	r0, [r7, #4]
 22310 0008 1346     		mov	r3, r2
 22311 000a 0A46     		mov	r2, r1	@ movhi
 22312 000c 7A80     		strh	r2, [r7, #2]	@ movhi
 22313 000e 7B70     		strb	r3, [r7, #1]
 874:../Libraries/STM32F10x_StdPeriph_Driver/src/stm32f10x_tim.c ****   /* Check the parameters */
 875:../Libraries/STM32F10x_StdPeriph_Driver/src/stm32f10x_tim.c ****   assert_param(IS_TIM_ALL_PERIPH(TIMx));
 876:../Libraries/STM32F10x_StdPeriph_Driver/src/stm32f10x_tim.c ****   assert_param(IS_TIM_IT(TIM_IT));
 877:../Libraries/STM32F10x_StdPeriph_Driver/src/stm32f10x_tim.c ****   assert_param(IS_FUNCTIONAL_STATE(NewState));
 878:../Libraries/STM32F10x_StdPeriph_Driver/src/stm32f10x_tim.c ****   
 879:../Libraries/STM32F10x_StdPeriph_Driver/src/stm32f10x_tim.c ****   if (NewState != DISABLE)
 22314              		.loc 1 879 0
 22315 0010 7B78     		ldrb	r3, [r7, #1]	@ zero_extendqisi2
 22316 0012 002B     		cmp	r3, #0
 22317 0014 09D0     		beq	.L73
 880:../Libraries/STM32F10x_StdPeriph_Driver/src/stm32f10x_tim.c ****   {
 881:../Libraries/STM32F10x_StdPeriph_Driver/src/stm32f10x_tim.c ****     /* Enable the Interrupt sources */
 882:../Libraries/STM32F10x_StdPeriph_Driver/src/stm32f10x_tim.c ****     TIMx->DIER |= TIM_IT;
 22318              		.loc 1 882 0
 22319 0016 7B68     		ldr	r3, [r7, #4]
 22320 0018 9B89     		ldrh	r3, [r3, #12]	@ movhi
 22321 001a 9AB2     		uxth	r2, r3
 22322 001c 7B88     		ldrh	r3, [r7, #2]	@ movhi
 22323 001e 42EA0303 		orr	r3, r2, r3
 22324 0022 9AB2     		uxth	r2, r3
 22325 0024 7B68     		ldr	r3, [r7, #4]
 22326 0026 9A81     		strh	r2, [r3, #12]	@ movhi
 22327 0028 0BE0     		b	.L72
 22328              	.L73:
 883:../Libraries/STM32F10x_StdPeriph_Driver/src/stm32f10x_tim.c ****   }
 884:../Libraries/STM32F10x_StdPeriph_Driver/src/stm32f10x_tim.c ****   else
 885:../Libraries/STM32F10x_StdPeriph_Driver/src/stm32f10x_tim.c ****   {
 886:../Libraries/STM32F10x_StdPeriph_Driver/src/stm32f10x_tim.c ****     /* Disable the Interrupt sources */
 887:../Libraries/STM32F10x_StdPeriph_Driver/src/stm32f10x_tim.c ****     TIMx->DIER &= (uint16_t)~TIM_IT;
 22329              		.loc 1 887 0
 22330 002a 7B68     		ldr	r3, [r7, #4]
 22331 002c 9B89     		ldrh	r3, [r3, #12]	@ movhi
 22332 002e 9AB2     		uxth	r2, r3
 22333 0030 7B88     		ldrh	r3, [r7, #2]	@ movhi
 22334 0032 6FEA0303 		mvn	r3, r3
 22335 0036 9BB2     		uxth	r3, r3
 22336 0038 02EA0303 		and	r3, r2, r3
 22337 003c 9AB2     		uxth	r2, r3
 22338 003e 7B68     		ldr	r3, [r7, #4]
 22339 0040 9A81     		strh	r2, [r3, #12]	@ movhi
 22340              	.L72:
 888:../Libraries/STM32F10x_StdPeriph_Driver/src/stm32f10x_tim.c ****   }
 889:../Libraries/STM32F10x_StdPeriph_Driver/src/stm32f10x_tim.c **** }
 22341              		.loc 1 889 0
 22342 0042 07F10C07 		add	r7, r7, #12
 22343 0046 BD46     		mov	sp, r7
 22344 0048 80BC     		pop	{r7}
 22345 004a 7047     		bx	lr
 22346              		.cfi_endproc
 22347              	.LFE44:
 22349              		.section	.text.TIM_GenerateEvent,"ax",%progbits
 22350              		.align	2
 22351              		.global	TIM_GenerateEvent
 22352              		.thumb
 22353              		.thumb_func
 22355              	TIM_GenerateEvent:
 22356              	.LFB45:
 890:../Libraries/STM32F10x_StdPeriph_Driver/src/stm32f10x_tim.c **** 
 891:../Libraries/STM32F10x_StdPeriph_Driver/src/stm32f10x_tim.c **** /**
 892:../Libraries/STM32F10x_StdPeriph_Driver/src/stm32f10x_tim.c ****   * @brief  Configures the TIMx event to be generate by software.
 893:../Libraries/STM32F10x_StdPeriph_Driver/src/stm32f10x_tim.c ****   * @param  TIMx: where x can be 1 to 17 to select the TIM peripheral.
 894:../Libraries/STM32F10x_StdPeriph_Driver/src/stm32f10x_tim.c ****   * @param  TIM_EventSource: specifies the event source.
 895:../Libraries/STM32F10x_StdPeriph_Driver/src/stm32f10x_tim.c ****   *   This parameter can be one or more of the following values:	   
 896:../Libraries/STM32F10x_StdPeriph_Driver/src/stm32f10x_tim.c ****   *     @arg TIM_EventSource_Update: Timer update Event source
 897:../Libraries/STM32F10x_StdPeriph_Driver/src/stm32f10x_tim.c ****   *     @arg TIM_EventSource_CC1: Timer Capture Compare 1 Event source
 898:../Libraries/STM32F10x_StdPeriph_Driver/src/stm32f10x_tim.c ****   *     @arg TIM_EventSource_CC2: Timer Capture Compare 2 Event source
 899:../Libraries/STM32F10x_StdPeriph_Driver/src/stm32f10x_tim.c ****   *     @arg TIM_EventSource_CC3: Timer Capture Compare 3 Event source
 900:../Libraries/STM32F10x_StdPeriph_Driver/src/stm32f10x_tim.c ****   *     @arg TIM_EventSource_CC4: Timer Capture Compare 4 Event source
 901:../Libraries/STM32F10x_StdPeriph_Driver/src/stm32f10x_tim.c ****   *     @arg TIM_EventSource_COM: Timer COM event source  
 902:../Libraries/STM32F10x_StdPeriph_Driver/src/stm32f10x_tim.c ****   *     @arg TIM_EventSource_Trigger: Timer Trigger Event source
 903:../Libraries/STM32F10x_StdPeriph_Driver/src/stm32f10x_tim.c ****   *     @arg TIM_EventSource_Break: Timer Break event source
 904:../Libraries/STM32F10x_StdPeriph_Driver/src/stm32f10x_tim.c ****   * @note 
 905:../Libraries/STM32F10x_StdPeriph_Driver/src/stm32f10x_tim.c ****   *   - TIM6 and TIM7 can only generate an update event. 
 906:../Libraries/STM32F10x_StdPeriph_Driver/src/stm32f10x_tim.c ****   *   - TIM_EventSource_COM and TIM_EventSource_Break are used only with TIM1 and TIM8.      
 907:../Libraries/STM32F10x_StdPeriph_Driver/src/stm32f10x_tim.c ****   * @retval None
 908:../Libraries/STM32F10x_StdPeriph_Driver/src/stm32f10x_tim.c ****   */
 909:../Libraries/STM32F10x_StdPeriph_Driver/src/stm32f10x_tim.c **** void TIM_GenerateEvent(TIM_TypeDef* TIMx, uint16_t TIM_EventSource)
 910:../Libraries/STM32F10x_StdPeriph_Driver/src/stm32f10x_tim.c **** { 
 22357              		.loc 1 910 0
 22358              		.cfi_startproc
 22359              		@ args = 0, pretend = 0, frame = 8
 22360              		@ frame_needed = 1, uses_anonymous_args = 0
 22361              		@ link register save eliminated.
 22362 0000 80B4     		push	{r7}
 22363              	.LCFI48:
 22364              		.cfi_def_cfa_offset 4
 22365 0002 83B0     		sub	sp, sp, #12
 22366              	.LCFI49:
 22367              		.cfi_def_cfa_offset 16
 22368 0004 00AF     		add	r7, sp, #0
 22369              		.cfi_offset 7, -4
 22370              	.LCFI50:
 22371              		.cfi_def_cfa_register 7
 22372 0006 7860     		str	r0, [r7, #4]
 22373 0008 0B46     		mov	r3, r1
 22374 000a 7B80     		strh	r3, [r7, #2]	@ movhi
 911:../Libraries/STM32F10x_StdPeriph_Driver/src/stm32f10x_tim.c ****   /* Check the parameters */
 912:../Libraries/STM32F10x_StdPeriph_Driver/src/stm32f10x_tim.c ****   assert_param(IS_TIM_ALL_PERIPH(TIMx));
 913:../Libraries/STM32F10x_StdPeriph_Driver/src/stm32f10x_tim.c ****   assert_param(IS_TIM_EVENT_SOURCE(TIM_EventSource));
 914:../Libraries/STM32F10x_StdPeriph_Driver/src/stm32f10x_tim.c ****   
 915:../Libraries/STM32F10x_StdPeriph_Driver/src/stm32f10x_tim.c ****   /* Set the event sources */
 916:../Libraries/STM32F10x_StdPeriph_Driver/src/stm32f10x_tim.c ****   TIMx->EGR = TIM_EventSource;
 22375              		.loc 1 916 0
 22376 000c 7B68     		ldr	r3, [r7, #4]
 22377 000e 7A88     		ldrh	r2, [r7, #2]	@ movhi
 22378 0010 9A82     		strh	r2, [r3, #20]	@ movhi
 917:../Libraries/STM32F10x_StdPeriph_Driver/src/stm32f10x_tim.c **** }
 22379              		.loc 1 917 0
 22380 0012 07F10C07 		add	r7, r7, #12
 22381 0016 BD46     		mov	sp, r7
 22382 0018 80BC     		pop	{r7}
 22383 001a 7047     		bx	lr
 22384              		.cfi_endproc
 22385              	.LFE45:
 22387              		.section	.text.TIM_DMAConfig,"ax",%progbits
 22388              		.align	2
 22389              		.global	TIM_DMAConfig
 22390              		.thumb
 22391              		.thumb_func
 22393              	TIM_DMAConfig:
 22394              	.LFB46:
 918:../Libraries/STM32F10x_StdPeriph_Driver/src/stm32f10x_tim.c **** 
 919:../Libraries/STM32F10x_StdPeriph_Driver/src/stm32f10x_tim.c **** /**
 920:../Libraries/STM32F10x_StdPeriph_Driver/src/stm32f10x_tim.c ****   * @brief  Configures the TIMx's DMA interface.
 921:../Libraries/STM32F10x_StdPeriph_Driver/src/stm32f10x_tim.c ****   * @param  TIMx: where x can be  1, 2, 3, 4, 5, 8, 15, 16 or 17 to select 
 922:../Libraries/STM32F10x_StdPeriph_Driver/src/stm32f10x_tim.c ****   *   the TIM peripheral.
 923:../Libraries/STM32F10x_StdPeriph_Driver/src/stm32f10x_tim.c ****   * @param  TIM_DMABase: DMA Base address.
 924:../Libraries/STM32F10x_StdPeriph_Driver/src/stm32f10x_tim.c ****   *   This parameter can be one of the following values:
 925:../Libraries/STM32F10x_StdPeriph_Driver/src/stm32f10x_tim.c ****   *     @arg TIM_DMABase_CR, TIM_DMABase_CR2, TIM_DMABase_SMCR,
 926:../Libraries/STM32F10x_StdPeriph_Driver/src/stm32f10x_tim.c ****   *          TIM_DMABase_DIER, TIM1_DMABase_SR, TIM_DMABase_EGR,
 927:../Libraries/STM32F10x_StdPeriph_Driver/src/stm32f10x_tim.c ****   *          TIM_DMABase_CCMR1, TIM_DMABase_CCMR2, TIM_DMABase_CCER,
 928:../Libraries/STM32F10x_StdPeriph_Driver/src/stm32f10x_tim.c ****   *          TIM_DMABase_CNT, TIM_DMABase_PSC, TIM_DMABase_ARR,
 929:../Libraries/STM32F10x_StdPeriph_Driver/src/stm32f10x_tim.c ****   *          TIM_DMABase_RCR, TIM_DMABase_CCR1, TIM_DMABase_CCR2,
 930:../Libraries/STM32F10x_StdPeriph_Driver/src/stm32f10x_tim.c ****   *          TIM_DMABase_CCR3, TIM_DMABase_CCR4, TIM_DMABase_BDTR,
 931:../Libraries/STM32F10x_StdPeriph_Driver/src/stm32f10x_tim.c ****   *          TIM_DMABase_DCR.
 932:../Libraries/STM32F10x_StdPeriph_Driver/src/stm32f10x_tim.c ****   * @param  TIM_DMABurstLength: DMA Burst length.
 933:../Libraries/STM32F10x_StdPeriph_Driver/src/stm32f10x_tim.c ****   *   This parameter can be one value between:
 934:../Libraries/STM32F10x_StdPeriph_Driver/src/stm32f10x_tim.c ****   *   TIM_DMABurstLength_1Transfer and TIM_DMABurstLength_18Transfers.
 935:../Libraries/STM32F10x_StdPeriph_Driver/src/stm32f10x_tim.c ****   * @retval None
 936:../Libraries/STM32F10x_StdPeriph_Driver/src/stm32f10x_tim.c ****   */
 937:../Libraries/STM32F10x_StdPeriph_Driver/src/stm32f10x_tim.c **** void TIM_DMAConfig(TIM_TypeDef* TIMx, uint16_t TIM_DMABase, uint16_t TIM_DMABurstLength)
 938:../Libraries/STM32F10x_StdPeriph_Driver/src/stm32f10x_tim.c **** {
 22395              		.loc 1 938 0
 22396              		.cfi_startproc
 22397              		@ args = 0, pretend = 0, frame = 8
 22398              		@ frame_needed = 1, uses_anonymous_args = 0
 22399              		@ link register save eliminated.
 22400 0000 80B4     		push	{r7}
 22401              	.LCFI51:
 22402              		.cfi_def_cfa_offset 4
 22403 0002 83B0     		sub	sp, sp, #12
 22404              	.LCFI52:
 22405              		.cfi_def_cfa_offset 16
 22406 0004 00AF     		add	r7, sp, #0
 22407              		.cfi_offset 7, -4
 22408              	.LCFI53:
 22409              		.cfi_def_cfa_register 7
 22410 0006 7860     		str	r0, [r7, #4]
 22411 0008 1346     		mov	r3, r2
 22412 000a 0A46     		mov	r2, r1	@ movhi
 22413 000c 7A80     		strh	r2, [r7, #2]	@ movhi
 22414 000e 3B80     		strh	r3, [r7, #0]	@ movhi
 939:../Libraries/STM32F10x_StdPeriph_Driver/src/stm32f10x_tim.c ****   /* Check the parameters */
 940:../Libraries/STM32F10x_StdPeriph_Driver/src/stm32f10x_tim.c ****   assert_param(IS_TIM_LIST4_PERIPH(TIMx));
 941:../Libraries/STM32F10x_StdPeriph_Driver/src/stm32f10x_tim.c ****   assert_param(IS_TIM_DMA_BASE(TIM_DMABase));
 942:../Libraries/STM32F10x_StdPeriph_Driver/src/stm32f10x_tim.c ****   assert_param(IS_TIM_DMA_LENGTH(TIM_DMABurstLength));
 943:../Libraries/STM32F10x_StdPeriph_Driver/src/stm32f10x_tim.c ****   /* Set the DMA Base and the DMA Burst Length */
 944:../Libraries/STM32F10x_StdPeriph_Driver/src/stm32f10x_tim.c ****   TIMx->DCR = TIM_DMABase | TIM_DMABurstLength;
 22415              		.loc 1 944 0
 22416 0010 7A88     		ldrh	r2, [r7, #2]	@ movhi
 22417 0012 3B88     		ldrh	r3, [r7, #0]	@ movhi
 22418 0014 42EA0303 		orr	r3, r2, r3
 22419 0018 9AB2     		uxth	r2, r3
 22420 001a 7B68     		ldr	r3, [r7, #4]
 22421 001c A3F84820 		strh	r2, [r3, #72]	@ movhi
 945:../Libraries/STM32F10x_StdPeriph_Driver/src/stm32f10x_tim.c **** }
 22422              		.loc 1 945 0
 22423 0020 07F10C07 		add	r7, r7, #12
 22424 0024 BD46     		mov	sp, r7
 22425 0026 80BC     		pop	{r7}
 22426 0028 7047     		bx	lr
 22427              		.cfi_endproc
 22428              	.LFE46:
 22430 002a 00BF     		.section	.text.TIM_DMACmd,"ax",%progbits
 22431              		.align	2
 22432              		.global	TIM_DMACmd
 22433              		.thumb
 22434              		.thumb_func
 22436              	TIM_DMACmd:
 22437              	.LFB47:
 946:../Libraries/STM32F10x_StdPeriph_Driver/src/stm32f10x_tim.c **** 
 947:../Libraries/STM32F10x_StdPeriph_Driver/src/stm32f10x_tim.c **** /**
 948:../Libraries/STM32F10x_StdPeriph_Driver/src/stm32f10x_tim.c ****   * @brief  Enables or disables the TIMx's DMA Requests.
 949:../Libraries/STM32F10x_StdPeriph_Driver/src/stm32f10x_tim.c ****   * @param  TIMx: where x can be  1, 2, 3, 4, 5, 6, 7, 8, 15, 16 or 17 
 950:../Libraries/STM32F10x_StdPeriph_Driver/src/stm32f10x_tim.c ****   *   to select the TIM peripheral. 
 951:../Libraries/STM32F10x_StdPeriph_Driver/src/stm32f10x_tim.c ****   * @param  TIM_DMASource: specifies the DMA Request sources.
 952:../Libraries/STM32F10x_StdPeriph_Driver/src/stm32f10x_tim.c ****   *   This parameter can be any combination of the following values:
 953:../Libraries/STM32F10x_StdPeriph_Driver/src/stm32f10x_tim.c ****   *     @arg TIM_DMA_Update: TIM update Interrupt source
 954:../Libraries/STM32F10x_StdPeriph_Driver/src/stm32f10x_tim.c ****   *     @arg TIM_DMA_CC1: TIM Capture Compare 1 DMA source
 955:../Libraries/STM32F10x_StdPeriph_Driver/src/stm32f10x_tim.c ****   *     @arg TIM_DMA_CC2: TIM Capture Compare 2 DMA source
 956:../Libraries/STM32F10x_StdPeriph_Driver/src/stm32f10x_tim.c ****   *     @arg TIM_DMA_CC3: TIM Capture Compare 3 DMA source
 957:../Libraries/STM32F10x_StdPeriph_Driver/src/stm32f10x_tim.c ****   *     @arg TIM_DMA_CC4: TIM Capture Compare 4 DMA source
 958:../Libraries/STM32F10x_StdPeriph_Driver/src/stm32f10x_tim.c ****   *     @arg TIM_DMA_COM: TIM Commutation DMA source
 959:../Libraries/STM32F10x_StdPeriph_Driver/src/stm32f10x_tim.c ****   *     @arg TIM_DMA_Trigger: TIM Trigger DMA source
 960:../Libraries/STM32F10x_StdPeriph_Driver/src/stm32f10x_tim.c ****   * @param  NewState: new state of the DMA Request sources.
 961:../Libraries/STM32F10x_StdPeriph_Driver/src/stm32f10x_tim.c ****   *   This parameter can be: ENABLE or DISABLE.
 962:../Libraries/STM32F10x_StdPeriph_Driver/src/stm32f10x_tim.c ****   * @retval None
 963:../Libraries/STM32F10x_StdPeriph_Driver/src/stm32f10x_tim.c ****   */
 964:../Libraries/STM32F10x_StdPeriph_Driver/src/stm32f10x_tim.c **** void TIM_DMACmd(TIM_TypeDef* TIMx, uint16_t TIM_DMASource, FunctionalState NewState)
 965:../Libraries/STM32F10x_StdPeriph_Driver/src/stm32f10x_tim.c **** { 
 22438              		.loc 1 965 0
 22439              		.cfi_startproc
 22440              		@ args = 0, pretend = 0, frame = 8
 22441              		@ frame_needed = 1, uses_anonymous_args = 0
 22442              		@ link register save eliminated.
 22443 0000 80B4     		push	{r7}
 22444              	.LCFI54:
 22445              		.cfi_def_cfa_offset 4
 22446 0002 83B0     		sub	sp, sp, #12
 22447              	.LCFI55:
 22448              		.cfi_def_cfa_offset 16
 22449 0004 00AF     		add	r7, sp, #0
 22450              		.cfi_offset 7, -4
 22451              	.LCFI56:
 22452              		.cfi_def_cfa_register 7
 22453 0006 7860     		str	r0, [r7, #4]
 22454 0008 1346     		mov	r3, r2
 22455 000a 0A46     		mov	r2, r1	@ movhi
 22456 000c 7A80     		strh	r2, [r7, #2]	@ movhi
 22457 000e 7B70     		strb	r3, [r7, #1]
 966:../Libraries/STM32F10x_StdPeriph_Driver/src/stm32f10x_tim.c ****   /* Check the parameters */
 967:../Libraries/STM32F10x_StdPeriph_Driver/src/stm32f10x_tim.c ****   assert_param(IS_TIM_LIST9_PERIPH(TIMx));
 968:../Libraries/STM32F10x_StdPeriph_Driver/src/stm32f10x_tim.c ****   assert_param(IS_TIM_DMA_SOURCE(TIM_DMASource));
 969:../Libraries/STM32F10x_StdPeriph_Driver/src/stm32f10x_tim.c ****   assert_param(IS_FUNCTIONAL_STATE(NewState));
 970:../Libraries/STM32F10x_StdPeriph_Driver/src/stm32f10x_tim.c ****   
 971:../Libraries/STM32F10x_StdPeriph_Driver/src/stm32f10x_tim.c ****   if (NewState != DISABLE)
 22458              		.loc 1 971 0
 22459 0010 7B78     		ldrb	r3, [r7, #1]	@ zero_extendqisi2
 22460 0012 002B     		cmp	r3, #0
 22461 0014 09D0     		beq	.L78
 972:../Libraries/STM32F10x_StdPeriph_Driver/src/stm32f10x_tim.c ****   {
 973:../Libraries/STM32F10x_StdPeriph_Driver/src/stm32f10x_tim.c ****     /* Enable the DMA sources */
 974:../Libraries/STM32F10x_StdPeriph_Driver/src/stm32f10x_tim.c ****     TIMx->DIER |= TIM_DMASource; 
 22462              		.loc 1 974 0
 22463 0016 7B68     		ldr	r3, [r7, #4]
 22464 0018 9B89     		ldrh	r3, [r3, #12]	@ movhi
 22465 001a 9AB2     		uxth	r2, r3
 22466 001c 7B88     		ldrh	r3, [r7, #2]	@ movhi
 22467 001e 42EA0303 		orr	r3, r2, r3
 22468 0022 9AB2     		uxth	r2, r3
 22469 0024 7B68     		ldr	r3, [r7, #4]
 22470 0026 9A81     		strh	r2, [r3, #12]	@ movhi
 22471 0028 0BE0     		b	.L77
 22472              	.L78:
 975:../Libraries/STM32F10x_StdPeriph_Driver/src/stm32f10x_tim.c ****   }
 976:../Libraries/STM32F10x_StdPeriph_Driver/src/stm32f10x_tim.c ****   else
 977:../Libraries/STM32F10x_StdPeriph_Driver/src/stm32f10x_tim.c ****   {
 978:../Libraries/STM32F10x_StdPeriph_Driver/src/stm32f10x_tim.c ****     /* Disable the DMA sources */
 979:../Libraries/STM32F10x_StdPeriph_Driver/src/stm32f10x_tim.c ****     TIMx->DIER &= (uint16_t)~TIM_DMASource;
 22473              		.loc 1 979 0
 22474 002a 7B68     		ldr	r3, [r7, #4]
 22475 002c 9B89     		ldrh	r3, [r3, #12]	@ movhi
 22476 002e 9AB2     		uxth	r2, r3
 22477 0030 7B88     		ldrh	r3, [r7, #2]	@ movhi
 22478 0032 6FEA0303 		mvn	r3, r3
 22479 0036 9BB2     		uxth	r3, r3
 22480 0038 02EA0303 		and	r3, r2, r3
 22481 003c 9AB2     		uxth	r2, r3
 22482 003e 7B68     		ldr	r3, [r7, #4]
 22483 0040 9A81     		strh	r2, [r3, #12]	@ movhi
 22484              	.L77:
 980:../Libraries/STM32F10x_StdPeriph_Driver/src/stm32f10x_tim.c ****   }
 981:../Libraries/STM32F10x_StdPeriph_Driver/src/stm32f10x_tim.c **** }
 22485              		.loc 1 981 0
 22486 0042 07F10C07 		add	r7, r7, #12
 22487 0046 BD46     		mov	sp, r7
 22488 0048 80BC     		pop	{r7}
 22489 004a 7047     		bx	lr
 22490              		.cfi_endproc
 22491              	.LFE47:
 22493              		.section	.text.TIM_InternalClockConfig,"ax",%progbits
 22494              		.align	2
 22495              		.global	TIM_InternalClockConfig
 22496              		.thumb
 22497              		.thumb_func
 22499              	TIM_InternalClockConfig:
 22500              	.LFB48:
 982:../Libraries/STM32F10x_StdPeriph_Driver/src/stm32f10x_tim.c **** 
 983:../Libraries/STM32F10x_StdPeriph_Driver/src/stm32f10x_tim.c **** /**
 984:../Libraries/STM32F10x_StdPeriph_Driver/src/stm32f10x_tim.c ****   * @brief  Configures the TIMx internal Clock
 985:../Libraries/STM32F10x_StdPeriph_Driver/src/stm32f10x_tim.c ****   * @param  TIMx: where x can be  1, 2, 3, 4, 5, 8, 9, 12 or 15
 986:../Libraries/STM32F10x_StdPeriph_Driver/src/stm32f10x_tim.c ****   *         to select the TIM peripheral.
 987:../Libraries/STM32F10x_StdPeriph_Driver/src/stm32f10x_tim.c ****   * @retval None
 988:../Libraries/STM32F10x_StdPeriph_Driver/src/stm32f10x_tim.c ****   */
 989:../Libraries/STM32F10x_StdPeriph_Driver/src/stm32f10x_tim.c **** void TIM_InternalClockConfig(TIM_TypeDef* TIMx)
 990:../Libraries/STM32F10x_StdPeriph_Driver/src/stm32f10x_tim.c **** {
 22501              		.loc 1 990 0
 22502              		.cfi_startproc
 22503              		@ args = 0, pretend = 0, frame = 8
 22504              		@ frame_needed = 1, uses_anonymous_args = 0
 22505              		@ link register save eliminated.
 22506 0000 80B4     		push	{r7}
 22507              	.LCFI57:
 22508              		.cfi_def_cfa_offset 4
 22509 0002 83B0     		sub	sp, sp, #12
 22510              	.LCFI58:
 22511              		.cfi_def_cfa_offset 16
 22512 0004 00AF     		add	r7, sp, #0
 22513              		.cfi_offset 7, -4
 22514              	.LCFI59:
 22515              		.cfi_def_cfa_register 7
 22516 0006 7860     		str	r0, [r7, #4]
 991:../Libraries/STM32F10x_StdPeriph_Driver/src/stm32f10x_tim.c ****   /* Check the parameters */
 992:../Libraries/STM32F10x_StdPeriph_Driver/src/stm32f10x_tim.c ****   assert_param(IS_TIM_LIST6_PERIPH(TIMx));
 993:../Libraries/STM32F10x_StdPeriph_Driver/src/stm32f10x_tim.c ****   /* Disable slave mode to clock the prescaler directly with the internal clock */
 994:../Libraries/STM32F10x_StdPeriph_Driver/src/stm32f10x_tim.c ****   TIMx->SMCR &=  (uint16_t)(~((uint16_t)TIM_SMCR_SMS));
 22517              		.loc 1 994 0
 22518 0008 7B68     		ldr	r3, [r7, #4]
 22519 000a 1B89     		ldrh	r3, [r3, #8]	@ movhi
 22520 000c 9BB2     		uxth	r3, r3
 22521 000e 23F00703 		bic	r3, r3, #7
 22522 0012 9AB2     		uxth	r2, r3
 22523 0014 7B68     		ldr	r3, [r7, #4]
 22524 0016 1A81     		strh	r2, [r3, #8]	@ movhi
 995:../Libraries/STM32F10x_StdPeriph_Driver/src/stm32f10x_tim.c **** }
 22525              		.loc 1 995 0
 22526 0018 07F10C07 		add	r7, r7, #12
 22527 001c BD46     		mov	sp, r7
 22528 001e 80BC     		pop	{r7}
 22529 0020 7047     		bx	lr
 22530              		.cfi_endproc
 22531              	.LFE48:
 22533 0022 00BF     		.section	.text.TIM_ITRxExternalClockConfig,"ax",%progbits
 22534              		.align	2
 22535              		.global	TIM_ITRxExternalClockConfig
 22536              		.thumb
 22537              		.thumb_func
 22539              	TIM_ITRxExternalClockConfig:
 22540              	.LFB49:
 996:../Libraries/STM32F10x_StdPeriph_Driver/src/stm32f10x_tim.c **** 
 997:../Libraries/STM32F10x_StdPeriph_Driver/src/stm32f10x_tim.c **** /**
 998:../Libraries/STM32F10x_StdPeriph_Driver/src/stm32f10x_tim.c ****   * @brief  Configures the TIMx Internal Trigger as External Clock
 999:../Libraries/STM32F10x_StdPeriph_Driver/src/stm32f10x_tim.c ****   * @param  TIMx: where x can be  1, 2, 3, 4, 5, 9, 12 or 15 to select the TIM peripheral.
1000:../Libraries/STM32F10x_StdPeriph_Driver/src/stm32f10x_tim.c ****   * @param  TIM_ITRSource: Trigger source.
1001:../Libraries/STM32F10x_StdPeriph_Driver/src/stm32f10x_tim.c ****   *   This parameter can be one of the following values:
1002:../Libraries/STM32F10x_StdPeriph_Driver/src/stm32f10x_tim.c ****   * @param  TIM_TS_ITR0: Internal Trigger 0
1003:../Libraries/STM32F10x_StdPeriph_Driver/src/stm32f10x_tim.c ****   * @param  TIM_TS_ITR1: Internal Trigger 1
1004:../Libraries/STM32F10x_StdPeriph_Driver/src/stm32f10x_tim.c ****   * @param  TIM_TS_ITR2: Internal Trigger 2
1005:../Libraries/STM32F10x_StdPeriph_Driver/src/stm32f10x_tim.c ****   * @param  TIM_TS_ITR3: Internal Trigger 3
1006:../Libraries/STM32F10x_StdPeriph_Driver/src/stm32f10x_tim.c ****   * @retval None
1007:../Libraries/STM32F10x_StdPeriph_Driver/src/stm32f10x_tim.c ****   */
1008:../Libraries/STM32F10x_StdPeriph_Driver/src/stm32f10x_tim.c **** void TIM_ITRxExternalClockConfig(TIM_TypeDef* TIMx, uint16_t TIM_InputTriggerSource)
1009:../Libraries/STM32F10x_StdPeriph_Driver/src/stm32f10x_tim.c **** {
 22541              		.loc 1 1009 0
 22542              		.cfi_startproc
 22543              		@ args = 0, pretend = 0, frame = 8
 22544              		@ frame_needed = 1, uses_anonymous_args = 0
 22545 0000 80B5     		push	{r7, lr}
 22546              	.LCFI60:
 22547              		.cfi_def_cfa_offset 8
 22548 0002 82B0     		sub	sp, sp, #8
 22549              	.LCFI61:
 22550              		.cfi_def_cfa_offset 16
 22551 0004 00AF     		add	r7, sp, #0
 22552              		.cfi_offset 14, -4
 22553              		.cfi_offset 7, -8
 22554              	.LCFI62:
 22555              		.cfi_def_cfa_register 7
 22556 0006 7860     		str	r0, [r7, #4]
 22557 0008 0B46     		mov	r3, r1
 22558 000a 7B80     		strh	r3, [r7, #2]	@ movhi
1010:../Libraries/STM32F10x_StdPeriph_Driver/src/stm32f10x_tim.c ****   /* Check the parameters */
1011:../Libraries/STM32F10x_StdPeriph_Driver/src/stm32f10x_tim.c ****   assert_param(IS_TIM_LIST6_PERIPH(TIMx));
1012:../Libraries/STM32F10x_StdPeriph_Driver/src/stm32f10x_tim.c ****   assert_param(IS_TIM_INTERNAL_TRIGGER_SELECTION(TIM_InputTriggerSource));
1013:../Libraries/STM32F10x_StdPeriph_Driver/src/stm32f10x_tim.c ****   /* Select the Internal Trigger */
1014:../Libraries/STM32F10x_StdPeriph_Driver/src/stm32f10x_tim.c ****   TIM_SelectInputTrigger(TIMx, TIM_InputTriggerSource);
 22559              		.loc 1 1014 0
 22560 000c 7B88     		ldrh	r3, [r7, #2]
 22561 000e 7868     		ldr	r0, [r7, #4]
 22562 0010 1946     		mov	r1, r3
 22563 0012 FFF7FEFF 		bl	TIM_SelectInputTrigger
1015:../Libraries/STM32F10x_StdPeriph_Driver/src/stm32f10x_tim.c ****   /* Select the External clock mode1 */
1016:../Libraries/STM32F10x_StdPeriph_Driver/src/stm32f10x_tim.c ****   TIMx->SMCR |= TIM_SlaveMode_External1;
 22564              		.loc 1 1016 0
 22565 0016 7B68     		ldr	r3, [r7, #4]
 22566 0018 1B89     		ldrh	r3, [r3, #8]	@ movhi
 22567 001a 9BB2     		uxth	r3, r3
 22568 001c 43F00703 		orr	r3, r3, #7
 22569 0020 9AB2     		uxth	r2, r3
 22570 0022 7B68     		ldr	r3, [r7, #4]
 22571 0024 1A81     		strh	r2, [r3, #8]	@ movhi
1017:../Libraries/STM32F10x_StdPeriph_Driver/src/stm32f10x_tim.c **** }
 22572              		.loc 1 1017 0
 22573 0026 07F10807 		add	r7, r7, #8
 22574 002a BD46     		mov	sp, r7
 22575 002c 80BD     		pop	{r7, pc}
 22576              		.cfi_endproc
 22577              	.LFE49:
 22579 002e 00BF     		.section	.text.TIM_TIxExternalClockConfig,"ax",%progbits
 22580              		.align	2
 22581              		.global	TIM_TIxExternalClockConfig
 22582              		.thumb
 22583              		.thumb_func
 22585              	TIM_TIxExternalClockConfig:
 22586              	.LFB50:
1018:../Libraries/STM32F10x_StdPeriph_Driver/src/stm32f10x_tim.c **** 
1019:../Libraries/STM32F10x_StdPeriph_Driver/src/stm32f10x_tim.c **** /**
1020:../Libraries/STM32F10x_StdPeriph_Driver/src/stm32f10x_tim.c ****   * @brief  Configures the TIMx Trigger as External Clock
1021:../Libraries/STM32F10x_StdPeriph_Driver/src/stm32f10x_tim.c ****   * @param  TIMx: where x can be  1, 2, 3, 4, 5, 9, 12 or 15 to select the TIM peripheral.
1022:../Libraries/STM32F10x_StdPeriph_Driver/src/stm32f10x_tim.c ****   * @param  TIM_TIxExternalCLKSource: Trigger source.
1023:../Libraries/STM32F10x_StdPeriph_Driver/src/stm32f10x_tim.c ****   *   This parameter can be one of the following values:
1024:../Libraries/STM32F10x_StdPeriph_Driver/src/stm32f10x_tim.c ****   *     @arg TIM_TIxExternalCLK1Source_TI1ED: TI1 Edge Detector
1025:../Libraries/STM32F10x_StdPeriph_Driver/src/stm32f10x_tim.c ****   *     @arg TIM_TIxExternalCLK1Source_TI1: Filtered Timer Input 1
1026:../Libraries/STM32F10x_StdPeriph_Driver/src/stm32f10x_tim.c ****   *     @arg TIM_TIxExternalCLK1Source_TI2: Filtered Timer Input 2
1027:../Libraries/STM32F10x_StdPeriph_Driver/src/stm32f10x_tim.c ****   * @param  TIM_ICPolarity: specifies the TIx Polarity.
1028:../Libraries/STM32F10x_StdPeriph_Driver/src/stm32f10x_tim.c ****   *   This parameter can be one of the following values:
1029:../Libraries/STM32F10x_StdPeriph_Driver/src/stm32f10x_tim.c ****   *     @arg TIM_ICPolarity_Rising
1030:../Libraries/STM32F10x_StdPeriph_Driver/src/stm32f10x_tim.c ****   *     @arg TIM_ICPolarity_Falling
1031:../Libraries/STM32F10x_StdPeriph_Driver/src/stm32f10x_tim.c ****   * @param  ICFilter : specifies the filter value.
1032:../Libraries/STM32F10x_StdPeriph_Driver/src/stm32f10x_tim.c ****   *   This parameter must be a value between 0x0 and 0xF.
1033:../Libraries/STM32F10x_StdPeriph_Driver/src/stm32f10x_tim.c ****   * @retval None
1034:../Libraries/STM32F10x_StdPeriph_Driver/src/stm32f10x_tim.c ****   */
1035:../Libraries/STM32F10x_StdPeriph_Driver/src/stm32f10x_tim.c **** void TIM_TIxExternalClockConfig(TIM_TypeDef* TIMx, uint16_t TIM_TIxExternalCLKSource,
1036:../Libraries/STM32F10x_StdPeriph_Driver/src/stm32f10x_tim.c ****                                 uint16_t TIM_ICPolarity, uint16_t ICFilter)
1037:../Libraries/STM32F10x_StdPeriph_Driver/src/stm32f10x_tim.c **** {
 22587              		.loc 1 1037 0
 22588              		.cfi_startproc
 22589              		@ args = 0, pretend = 0, frame = 16
 22590              		@ frame_needed = 1, uses_anonymous_args = 0
 22591 0000 80B5     		push	{r7, lr}
 22592              	.LCFI63:
 22593              		.cfi_def_cfa_offset 8
 22594 0002 84B0     		sub	sp, sp, #16
 22595              	.LCFI64:
 22596              		.cfi_def_cfa_offset 24
 22597 0004 00AF     		add	r7, sp, #0
 22598              		.cfi_offset 14, -4
 22599              		.cfi_offset 7, -8
 22600              	.LCFI65:
 22601              		.cfi_def_cfa_register 7
 22602 0006 F860     		str	r0, [r7, #12]
 22603 0008 7981     		strh	r1, [r7, #10]	@ movhi
 22604 000a 3A81     		strh	r2, [r7, #8]	@ movhi
 22605 000c FB80     		strh	r3, [r7, #6]	@ movhi
1038:../Libraries/STM32F10x_StdPeriph_Driver/src/stm32f10x_tim.c ****   /* Check the parameters */
1039:../Libraries/STM32F10x_StdPeriph_Driver/src/stm32f10x_tim.c ****   assert_param(IS_TIM_LIST6_PERIPH(TIMx));
1040:../Libraries/STM32F10x_StdPeriph_Driver/src/stm32f10x_tim.c ****   assert_param(IS_TIM_TIXCLK_SOURCE(TIM_TIxExternalCLKSource));
1041:../Libraries/STM32F10x_StdPeriph_Driver/src/stm32f10x_tim.c ****   assert_param(IS_TIM_IC_POLARITY(TIM_ICPolarity));
1042:../Libraries/STM32F10x_StdPeriph_Driver/src/stm32f10x_tim.c ****   assert_param(IS_TIM_IC_FILTER(ICFilter));
1043:../Libraries/STM32F10x_StdPeriph_Driver/src/stm32f10x_tim.c ****   /* Configure the Timer Input Clock Source */
1044:../Libraries/STM32F10x_StdPeriph_Driver/src/stm32f10x_tim.c ****   if (TIM_TIxExternalCLKSource == TIM_TIxExternalCLK1Source_TI2)
 22606              		.loc 1 1044 0
 22607 000e 7B89     		ldrh	r3, [r7, #10]
 22608 0010 602B     		cmp	r3, #96
 22609 0012 08D1     		bne	.L83
1045:../Libraries/STM32F10x_StdPeriph_Driver/src/stm32f10x_tim.c ****   {
1046:../Libraries/STM32F10x_StdPeriph_Driver/src/stm32f10x_tim.c ****     TI2_Config(TIMx, TIM_ICPolarity, TIM_ICSelection_DirectTI, ICFilter);
 22610              		.loc 1 1046 0
 22611 0014 3A89     		ldrh	r2, [r7, #8]
 22612 0016 FB88     		ldrh	r3, [r7, #6]
 22613 0018 F868     		ldr	r0, [r7, #12]
 22614 001a 1146     		mov	r1, r2
 22615 001c 4FF00102 		mov	r2, #1
 22616 0020 FFF7FEFF 		bl	TI2_Config
 22617 0024 07E0     		b	.L84
 22618              	.L83:
1047:../Libraries/STM32F10x_StdPeriph_Driver/src/stm32f10x_tim.c ****   }
1048:../Libraries/STM32F10x_StdPeriph_Driver/src/stm32f10x_tim.c ****   else
1049:../Libraries/STM32F10x_StdPeriph_Driver/src/stm32f10x_tim.c ****   {
1050:../Libraries/STM32F10x_StdPeriph_Driver/src/stm32f10x_tim.c ****     TI1_Config(TIMx, TIM_ICPolarity, TIM_ICSelection_DirectTI, ICFilter);
 22619              		.loc 1 1050 0
 22620 0026 3A89     		ldrh	r2, [r7, #8]
 22621 0028 FB88     		ldrh	r3, [r7, #6]
 22622 002a F868     		ldr	r0, [r7, #12]
 22623 002c 1146     		mov	r1, r2
 22624 002e 4FF00102 		mov	r2, #1
 22625 0032 FFF7FEFF 		bl	TI1_Config
 22626              	.L84:
1051:../Libraries/STM32F10x_StdPeriph_Driver/src/stm32f10x_tim.c ****   }
1052:../Libraries/STM32F10x_StdPeriph_Driver/src/stm32f10x_tim.c ****   /* Select the Trigger source */
1053:../Libraries/STM32F10x_StdPeriph_Driver/src/stm32f10x_tim.c ****   TIM_SelectInputTrigger(TIMx, TIM_TIxExternalCLKSource);
 22627              		.loc 1 1053 0
 22628 0036 7B89     		ldrh	r3, [r7, #10]
 22629 0038 F868     		ldr	r0, [r7, #12]
 22630 003a 1946     		mov	r1, r3
 22631 003c FFF7FEFF 		bl	TIM_SelectInputTrigger
1054:../Libraries/STM32F10x_StdPeriph_Driver/src/stm32f10x_tim.c ****   /* Select the External clock mode1 */
1055:../Libraries/STM32F10x_StdPeriph_Driver/src/stm32f10x_tim.c ****   TIMx->SMCR |= TIM_SlaveMode_External1;
 22632              		.loc 1 1055 0
 22633 0040 FB68     		ldr	r3, [r7, #12]
 22634 0042 1B89     		ldrh	r3, [r3, #8]	@ movhi
 22635 0044 9BB2     		uxth	r3, r3
 22636 0046 43F00703 		orr	r3, r3, #7
 22637 004a 9AB2     		uxth	r2, r3
 22638 004c FB68     		ldr	r3, [r7, #12]
 22639 004e 1A81     		strh	r2, [r3, #8]	@ movhi
1056:../Libraries/STM32F10x_StdPeriph_Driver/src/stm32f10x_tim.c **** }
 22640              		.loc 1 1056 0
 22641 0050 07F11007 		add	r7, r7, #16
 22642 0054 BD46     		mov	sp, r7
 22643 0056 80BD     		pop	{r7, pc}
 22644              		.cfi_endproc
 22645              	.LFE50:
 22647              		.section	.text.TIM_ETRClockMode1Config,"ax",%progbits
 22648              		.align	2
 22649              		.global	TIM_ETRClockMode1Config
 22650              		.thumb
 22651              		.thumb_func
 22653              	TIM_ETRClockMode1Config:
 22654              	.LFB51:
1057:../Libraries/STM32F10x_StdPeriph_Driver/src/stm32f10x_tim.c **** 
1058:../Libraries/STM32F10x_StdPeriph_Driver/src/stm32f10x_tim.c **** /**
1059:../Libraries/STM32F10x_StdPeriph_Driver/src/stm32f10x_tim.c ****   * @brief  Configures the External clock Mode1
1060:../Libraries/STM32F10x_StdPeriph_Driver/src/stm32f10x_tim.c ****   * @param  TIMx: where x can be  1, 2, 3, 4, 5 or 8 to select the TIM peripheral.
1061:../Libraries/STM32F10x_StdPeriph_Driver/src/stm32f10x_tim.c ****   * @param  TIM_ExtTRGPrescaler: The external Trigger Prescaler.
1062:../Libraries/STM32F10x_StdPeriph_Driver/src/stm32f10x_tim.c ****   *   This parameter can be one of the following values:
1063:../Libraries/STM32F10x_StdPeriph_Driver/src/stm32f10x_tim.c ****   *     @arg TIM_ExtTRGPSC_OFF: ETRP Prescaler OFF.
1064:../Libraries/STM32F10x_StdPeriph_Driver/src/stm32f10x_tim.c ****   *     @arg TIM_ExtTRGPSC_DIV2: ETRP frequency divided by 2.
1065:../Libraries/STM32F10x_StdPeriph_Driver/src/stm32f10x_tim.c ****   *     @arg TIM_ExtTRGPSC_DIV4: ETRP frequency divided by 4.
1066:../Libraries/STM32F10x_StdPeriph_Driver/src/stm32f10x_tim.c ****   *     @arg TIM_ExtTRGPSC_DIV8: ETRP frequency divided by 8.
1067:../Libraries/STM32F10x_StdPeriph_Driver/src/stm32f10x_tim.c ****   * @param  TIM_ExtTRGPolarity: The external Trigger Polarity.
1068:../Libraries/STM32F10x_StdPeriph_Driver/src/stm32f10x_tim.c ****   *   This parameter can be one of the following values:
1069:../Libraries/STM32F10x_StdPeriph_Driver/src/stm32f10x_tim.c ****   *     @arg TIM_ExtTRGPolarity_Inverted: active low or falling edge active.
1070:../Libraries/STM32F10x_StdPeriph_Driver/src/stm32f10x_tim.c ****   *     @arg TIM_ExtTRGPolarity_NonInverted: active high or rising edge active.
1071:../Libraries/STM32F10x_StdPeriph_Driver/src/stm32f10x_tim.c ****   * @param  ExtTRGFilter: External Trigger Filter.
1072:../Libraries/STM32F10x_StdPeriph_Driver/src/stm32f10x_tim.c ****   *   This parameter must be a value between 0x00 and 0x0F
1073:../Libraries/STM32F10x_StdPeriph_Driver/src/stm32f10x_tim.c ****   * @retval None
1074:../Libraries/STM32F10x_StdPeriph_Driver/src/stm32f10x_tim.c ****   */
1075:../Libraries/STM32F10x_StdPeriph_Driver/src/stm32f10x_tim.c **** void TIM_ETRClockMode1Config(TIM_TypeDef* TIMx, uint16_t TIM_ExtTRGPrescaler, uint16_t TIM_ExtTRGPo
1076:../Libraries/STM32F10x_StdPeriph_Driver/src/stm32f10x_tim.c ****                              uint16_t ExtTRGFilter)
1077:../Libraries/STM32F10x_StdPeriph_Driver/src/stm32f10x_tim.c **** {
 22655              		.loc 1 1077 0
 22656              		.cfi_startproc
 22657              		@ args = 0, pretend = 0, frame = 24
 22658              		@ frame_needed = 1, uses_anonymous_args = 0
 22659 0000 80B5     		push	{r7, lr}
 22660              	.LCFI66:
 22661              		.cfi_def_cfa_offset 8
 22662 0002 86B0     		sub	sp, sp, #24
 22663              	.LCFI67:
 22664              		.cfi_def_cfa_offset 32
 22665 0004 00AF     		add	r7, sp, #0
 22666              		.cfi_offset 14, -4
 22667              		.cfi_offset 7, -8
 22668              	.LCFI68:
 22669              		.cfi_def_cfa_register 7
 22670 0006 F860     		str	r0, [r7, #12]
 22671 0008 7981     		strh	r1, [r7, #10]	@ movhi
 22672 000a 3A81     		strh	r2, [r7, #8]	@ movhi
 22673 000c FB80     		strh	r3, [r7, #6]	@ movhi
1078:../Libraries/STM32F10x_StdPeriph_Driver/src/stm32f10x_tim.c ****   uint16_t tmpsmcr = 0;
 22674              		.loc 1 1078 0
 22675 000e 4FF00003 		mov	r3, #0
 22676 0012 FB82     		strh	r3, [r7, #22]	@ movhi
1079:../Libraries/STM32F10x_StdPeriph_Driver/src/stm32f10x_tim.c ****   /* Check the parameters */
1080:../Libraries/STM32F10x_StdPeriph_Driver/src/stm32f10x_tim.c ****   assert_param(IS_TIM_LIST3_PERIPH(TIMx));
1081:../Libraries/STM32F10x_StdPeriph_Driver/src/stm32f10x_tim.c ****   assert_param(IS_TIM_EXT_PRESCALER(TIM_ExtTRGPrescaler));
1082:../Libraries/STM32F10x_StdPeriph_Driver/src/stm32f10x_tim.c ****   assert_param(IS_TIM_EXT_POLARITY(TIM_ExtTRGPolarity));
1083:../Libraries/STM32F10x_StdPeriph_Driver/src/stm32f10x_tim.c ****   assert_param(IS_TIM_EXT_FILTER(ExtTRGFilter));
1084:../Libraries/STM32F10x_StdPeriph_Driver/src/stm32f10x_tim.c ****   /* Configure the ETR Clock source */
1085:../Libraries/STM32F10x_StdPeriph_Driver/src/stm32f10x_tim.c ****   TIM_ETRConfig(TIMx, TIM_ExtTRGPrescaler, TIM_ExtTRGPolarity, ExtTRGFilter);
 22677              		.loc 1 1085 0
 22678 0014 7989     		ldrh	r1, [r7, #10]
 22679 0016 3A89     		ldrh	r2, [r7, #8]
 22680 0018 FB88     		ldrh	r3, [r7, #6]
 22681 001a F868     		ldr	r0, [r7, #12]
 22682 001c FFF7FEFF 		bl	TIM_ETRConfig
1086:../Libraries/STM32F10x_StdPeriph_Driver/src/stm32f10x_tim.c ****   
1087:../Libraries/STM32F10x_StdPeriph_Driver/src/stm32f10x_tim.c ****   /* Get the TIMx SMCR register value */
1088:../Libraries/STM32F10x_StdPeriph_Driver/src/stm32f10x_tim.c ****   tmpsmcr = TIMx->SMCR;
 22683              		.loc 1 1088 0
 22684 0020 FB68     		ldr	r3, [r7, #12]
 22685 0022 1B89     		ldrh	r3, [r3, #8]	@ movhi
 22686 0024 FB82     		strh	r3, [r7, #22]	@ movhi
1089:../Libraries/STM32F10x_StdPeriph_Driver/src/stm32f10x_tim.c ****   /* Reset the SMS Bits */
1090:../Libraries/STM32F10x_StdPeriph_Driver/src/stm32f10x_tim.c ****   tmpsmcr &= (uint16_t)(~((uint16_t)TIM_SMCR_SMS));
 22687              		.loc 1 1090 0
 22688 0026 FB8A     		ldrh	r3, [r7, #22]	@ movhi
 22689 0028 23F00703 		bic	r3, r3, #7
 22690 002c FB82     		strh	r3, [r7, #22]	@ movhi
1091:../Libraries/STM32F10x_StdPeriph_Driver/src/stm32f10x_tim.c ****   /* Select the External clock mode1 */
1092:../Libraries/STM32F10x_StdPeriph_Driver/src/stm32f10x_tim.c ****   tmpsmcr |= TIM_SlaveMode_External1;
 22691              		.loc 1 1092 0
 22692 002e FB8A     		ldrh	r3, [r7, #22]	@ movhi
 22693 0030 43F00703 		orr	r3, r3, #7
 22694 0034 FB82     		strh	r3, [r7, #22]	@ movhi
1093:../Libraries/STM32F10x_StdPeriph_Driver/src/stm32f10x_tim.c ****   /* Select the Trigger selection : ETRF */
1094:../Libraries/STM32F10x_StdPeriph_Driver/src/stm32f10x_tim.c ****   tmpsmcr &= (uint16_t)(~((uint16_t)TIM_SMCR_TS));
 22695              		.loc 1 1094 0
 22696 0036 FB8A     		ldrh	r3, [r7, #22]	@ movhi
 22697 0038 23F07003 		bic	r3, r3, #112
 22698 003c FB82     		strh	r3, [r7, #22]	@ movhi
1095:../Libraries/STM32F10x_StdPeriph_Driver/src/stm32f10x_tim.c ****   tmpsmcr |= TIM_TS_ETRF;
 22699              		.loc 1 1095 0
 22700 003e FB8A     		ldrh	r3, [r7, #22]	@ movhi
 22701 0040 43F07003 		orr	r3, r3, #112
 22702 0044 FB82     		strh	r3, [r7, #22]	@ movhi
1096:../Libraries/STM32F10x_StdPeriph_Driver/src/stm32f10x_tim.c ****   /* Write to TIMx SMCR */
1097:../Libraries/STM32F10x_StdPeriph_Driver/src/stm32f10x_tim.c ****   TIMx->SMCR = tmpsmcr;
 22703              		.loc 1 1097 0
 22704 0046 FB68     		ldr	r3, [r7, #12]
 22705 0048 FA8A     		ldrh	r2, [r7, #22]	@ movhi
 22706 004a 1A81     		strh	r2, [r3, #8]	@ movhi
1098:../Libraries/STM32F10x_StdPeriph_Driver/src/stm32f10x_tim.c **** }
 22707              		.loc 1 1098 0
 22708 004c 07F11807 		add	r7, r7, #24
 22709 0050 BD46     		mov	sp, r7
 22710 0052 80BD     		pop	{r7, pc}
 22711              		.cfi_endproc
 22712              	.LFE51:
 22714              		.section	.text.TIM_ETRClockMode2Config,"ax",%progbits
 22715              		.align	2
 22716              		.global	TIM_ETRClockMode2Config
 22717              		.thumb
 22718              		.thumb_func
 22720              	TIM_ETRClockMode2Config:
 22721              	.LFB52:
1099:../Libraries/STM32F10x_StdPeriph_Driver/src/stm32f10x_tim.c **** 
1100:../Libraries/STM32F10x_StdPeriph_Driver/src/stm32f10x_tim.c **** /**
1101:../Libraries/STM32F10x_StdPeriph_Driver/src/stm32f10x_tim.c ****   * @brief  Configures the External clock Mode2
1102:../Libraries/STM32F10x_StdPeriph_Driver/src/stm32f10x_tim.c ****   * @param  TIMx: where x can be  1, 2, 3, 4, 5 or 8 to select the TIM peripheral.
1103:../Libraries/STM32F10x_StdPeriph_Driver/src/stm32f10x_tim.c ****   * @param  TIM_ExtTRGPrescaler: The external Trigger Prescaler.
1104:../Libraries/STM32F10x_StdPeriph_Driver/src/stm32f10x_tim.c ****   *   This parameter can be one of the following values:
1105:../Libraries/STM32F10x_StdPeriph_Driver/src/stm32f10x_tim.c ****   *     @arg TIM_ExtTRGPSC_OFF: ETRP Prescaler OFF.
1106:../Libraries/STM32F10x_StdPeriph_Driver/src/stm32f10x_tim.c ****   *     @arg TIM_ExtTRGPSC_DIV2: ETRP frequency divided by 2.
1107:../Libraries/STM32F10x_StdPeriph_Driver/src/stm32f10x_tim.c ****   *     @arg TIM_ExtTRGPSC_DIV4: ETRP frequency divided by 4.
1108:../Libraries/STM32F10x_StdPeriph_Driver/src/stm32f10x_tim.c ****   *     @arg TIM_ExtTRGPSC_DIV8: ETRP frequency divided by 8.
1109:../Libraries/STM32F10x_StdPeriph_Driver/src/stm32f10x_tim.c ****   * @param  TIM_ExtTRGPolarity: The external Trigger Polarity.
1110:../Libraries/STM32F10x_StdPeriph_Driver/src/stm32f10x_tim.c ****   *   This parameter can be one of the following values:
1111:../Libraries/STM32F10x_StdPeriph_Driver/src/stm32f10x_tim.c ****   *     @arg TIM_ExtTRGPolarity_Inverted: active low or falling edge active.
1112:../Libraries/STM32F10x_StdPeriph_Driver/src/stm32f10x_tim.c ****   *     @arg TIM_ExtTRGPolarity_NonInverted: active high or rising edge active.
1113:../Libraries/STM32F10x_StdPeriph_Driver/src/stm32f10x_tim.c ****   * @param  ExtTRGFilter: External Trigger Filter.
1114:../Libraries/STM32F10x_StdPeriph_Driver/src/stm32f10x_tim.c ****   *   This parameter must be a value between 0x00 and 0x0F
1115:../Libraries/STM32F10x_StdPeriph_Driver/src/stm32f10x_tim.c ****   * @retval None
1116:../Libraries/STM32F10x_StdPeriph_Driver/src/stm32f10x_tim.c ****   */
1117:../Libraries/STM32F10x_StdPeriph_Driver/src/stm32f10x_tim.c **** void TIM_ETRClockMode2Config(TIM_TypeDef* TIMx, uint16_t TIM_ExtTRGPrescaler, 
1118:../Libraries/STM32F10x_StdPeriph_Driver/src/stm32f10x_tim.c ****                              uint16_t TIM_ExtTRGPolarity, uint16_t ExtTRGFilter)
1119:../Libraries/STM32F10x_StdPeriph_Driver/src/stm32f10x_tim.c **** {
 22722              		.loc 1 1119 0
 22723              		.cfi_startproc
 22724              		@ args = 0, pretend = 0, frame = 16
 22725              		@ frame_needed = 1, uses_anonymous_args = 0
 22726 0000 80B5     		push	{r7, lr}
 22727              	.LCFI69:
 22728              		.cfi_def_cfa_offset 8
 22729 0002 84B0     		sub	sp, sp, #16
 22730              	.LCFI70:
 22731              		.cfi_def_cfa_offset 24
 22732 0004 00AF     		add	r7, sp, #0
 22733              		.cfi_offset 14, -4
 22734              		.cfi_offset 7, -8
 22735              	.LCFI71:
 22736              		.cfi_def_cfa_register 7
 22737 0006 F860     		str	r0, [r7, #12]
 22738 0008 7981     		strh	r1, [r7, #10]	@ movhi
 22739 000a 3A81     		strh	r2, [r7, #8]	@ movhi
 22740 000c FB80     		strh	r3, [r7, #6]	@ movhi
1120:../Libraries/STM32F10x_StdPeriph_Driver/src/stm32f10x_tim.c ****   /* Check the parameters */
1121:../Libraries/STM32F10x_StdPeriph_Driver/src/stm32f10x_tim.c ****   assert_param(IS_TIM_LIST3_PERIPH(TIMx));
1122:../Libraries/STM32F10x_StdPeriph_Driver/src/stm32f10x_tim.c ****   assert_param(IS_TIM_EXT_PRESCALER(TIM_ExtTRGPrescaler));
1123:../Libraries/STM32F10x_StdPeriph_Driver/src/stm32f10x_tim.c ****   assert_param(IS_TIM_EXT_POLARITY(TIM_ExtTRGPolarity));
1124:../Libraries/STM32F10x_StdPeriph_Driver/src/stm32f10x_tim.c ****   assert_param(IS_TIM_EXT_FILTER(ExtTRGFilter));
1125:../Libraries/STM32F10x_StdPeriph_Driver/src/stm32f10x_tim.c ****   /* Configure the ETR Clock source */
1126:../Libraries/STM32F10x_StdPeriph_Driver/src/stm32f10x_tim.c ****   TIM_ETRConfig(TIMx, TIM_ExtTRGPrescaler, TIM_ExtTRGPolarity, ExtTRGFilter);
 22741              		.loc 1 1126 0
 22742 000e 7989     		ldrh	r1, [r7, #10]
 22743 0010 3A89     		ldrh	r2, [r7, #8]
 22744 0012 FB88     		ldrh	r3, [r7, #6]
 22745 0014 F868     		ldr	r0, [r7, #12]
 22746 0016 FFF7FEFF 		bl	TIM_ETRConfig
1127:../Libraries/STM32F10x_StdPeriph_Driver/src/stm32f10x_tim.c ****   /* Enable the External clock mode2 */
1128:../Libraries/STM32F10x_StdPeriph_Driver/src/stm32f10x_tim.c ****   TIMx->SMCR |= TIM_SMCR_ECE;
 22747              		.loc 1 1128 0
 22748 001a FB68     		ldr	r3, [r7, #12]
 22749 001c 1B89     		ldrh	r3, [r3, #8]	@ movhi
 22750 001e 9BB2     		uxth	r3, r3
 22751 0020 43F48043 		orr	r3, r3, #16384
 22752 0024 9AB2     		uxth	r2, r3
 22753 0026 FB68     		ldr	r3, [r7, #12]
 22754 0028 1A81     		strh	r2, [r3, #8]	@ movhi
1129:../Libraries/STM32F10x_StdPeriph_Driver/src/stm32f10x_tim.c **** }
 22755              		.loc 1 1129 0
 22756 002a 07F11007 		add	r7, r7, #16
 22757 002e BD46     		mov	sp, r7
 22758 0030 80BD     		pop	{r7, pc}
 22759              		.cfi_endproc
 22760              	.LFE52:
 22762 0032 00BF     		.section	.text.TIM_ETRConfig,"ax",%progbits
 22763              		.align	2
 22764              		.global	TIM_ETRConfig
 22765              		.thumb
 22766              		.thumb_func
 22768              	TIM_ETRConfig:
 22769              	.LFB53:
1130:../Libraries/STM32F10x_StdPeriph_Driver/src/stm32f10x_tim.c **** 
1131:../Libraries/STM32F10x_StdPeriph_Driver/src/stm32f10x_tim.c **** /**
1132:../Libraries/STM32F10x_StdPeriph_Driver/src/stm32f10x_tim.c ****   * @brief  Configures the TIMx External Trigger (ETR).
1133:../Libraries/STM32F10x_StdPeriph_Driver/src/stm32f10x_tim.c ****   * @param  TIMx: where x can be  1, 2, 3, 4, 5 or 8 to select the TIM peripheral.
1134:../Libraries/STM32F10x_StdPeriph_Driver/src/stm32f10x_tim.c ****   * @param  TIM_ExtTRGPrescaler: The external Trigger Prescaler.
1135:../Libraries/STM32F10x_StdPeriph_Driver/src/stm32f10x_tim.c ****   *   This parameter can be one of the following values:
1136:../Libraries/STM32F10x_StdPeriph_Driver/src/stm32f10x_tim.c ****   *     @arg TIM_ExtTRGPSC_OFF: ETRP Prescaler OFF.
1137:../Libraries/STM32F10x_StdPeriph_Driver/src/stm32f10x_tim.c ****   *     @arg TIM_ExtTRGPSC_DIV2: ETRP frequency divided by 2.
1138:../Libraries/STM32F10x_StdPeriph_Driver/src/stm32f10x_tim.c ****   *     @arg TIM_ExtTRGPSC_DIV4: ETRP frequency divided by 4.
1139:../Libraries/STM32F10x_StdPeriph_Driver/src/stm32f10x_tim.c ****   *     @arg TIM_ExtTRGPSC_DIV8: ETRP frequency divided by 8.
1140:../Libraries/STM32F10x_StdPeriph_Driver/src/stm32f10x_tim.c ****   * @param  TIM_ExtTRGPolarity: The external Trigger Polarity.
1141:../Libraries/STM32F10x_StdPeriph_Driver/src/stm32f10x_tim.c ****   *   This parameter can be one of the following values:
1142:../Libraries/STM32F10x_StdPeriph_Driver/src/stm32f10x_tim.c ****   *     @arg TIM_ExtTRGPolarity_Inverted: active low or falling edge active.
1143:../Libraries/STM32F10x_StdPeriph_Driver/src/stm32f10x_tim.c ****   *     @arg TIM_ExtTRGPolarity_NonInverted: active high or rising edge active.
1144:../Libraries/STM32F10x_StdPeriph_Driver/src/stm32f10x_tim.c ****   * @param  ExtTRGFilter: External Trigger Filter.
1145:../Libraries/STM32F10x_StdPeriph_Driver/src/stm32f10x_tim.c ****   *   This parameter must be a value between 0x00 and 0x0F
1146:../Libraries/STM32F10x_StdPeriph_Driver/src/stm32f10x_tim.c ****   * @retval None
1147:../Libraries/STM32F10x_StdPeriph_Driver/src/stm32f10x_tim.c ****   */
1148:../Libraries/STM32F10x_StdPeriph_Driver/src/stm32f10x_tim.c **** void TIM_ETRConfig(TIM_TypeDef* TIMx, uint16_t TIM_ExtTRGPrescaler, uint16_t TIM_ExtTRGPolarity,
1149:../Libraries/STM32F10x_StdPeriph_Driver/src/stm32f10x_tim.c ****                    uint16_t ExtTRGFilter)
1150:../Libraries/STM32F10x_StdPeriph_Driver/src/stm32f10x_tim.c **** {
 22770              		.loc 1 1150 0
 22771              		.cfi_startproc
 22772              		@ args = 0, pretend = 0, frame = 24
 22773              		@ frame_needed = 1, uses_anonymous_args = 0
 22774              		@ link register save eliminated.
 22775 0000 80B4     		push	{r7}
 22776              	.LCFI72:
 22777              		.cfi_def_cfa_offset 4
 22778 0002 87B0     		sub	sp, sp, #28
 22779              	.LCFI73:
 22780              		.cfi_def_cfa_offset 32
 22781 0004 00AF     		add	r7, sp, #0
 22782              		.cfi_offset 7, -4
 22783              	.LCFI74:
 22784              		.cfi_def_cfa_register 7
 22785 0006 F860     		str	r0, [r7, #12]
 22786 0008 7981     		strh	r1, [r7, #10]	@ movhi
 22787 000a 3A81     		strh	r2, [r7, #8]	@ movhi
 22788 000c FB80     		strh	r3, [r7, #6]	@ movhi
1151:../Libraries/STM32F10x_StdPeriph_Driver/src/stm32f10x_tim.c ****   uint16_t tmpsmcr = 0;
 22789              		.loc 1 1151 0
 22790 000e 4FF00003 		mov	r3, #0
 22791 0012 FB82     		strh	r3, [r7, #22]	@ movhi
1152:../Libraries/STM32F10x_StdPeriph_Driver/src/stm32f10x_tim.c ****   /* Check the parameters */
1153:../Libraries/STM32F10x_StdPeriph_Driver/src/stm32f10x_tim.c ****   assert_param(IS_TIM_LIST3_PERIPH(TIMx));
1154:../Libraries/STM32F10x_StdPeriph_Driver/src/stm32f10x_tim.c ****   assert_param(IS_TIM_EXT_PRESCALER(TIM_ExtTRGPrescaler));
1155:../Libraries/STM32F10x_StdPeriph_Driver/src/stm32f10x_tim.c ****   assert_param(IS_TIM_EXT_POLARITY(TIM_ExtTRGPolarity));
1156:../Libraries/STM32F10x_StdPeriph_Driver/src/stm32f10x_tim.c ****   assert_param(IS_TIM_EXT_FILTER(ExtTRGFilter));
1157:../Libraries/STM32F10x_StdPeriph_Driver/src/stm32f10x_tim.c ****   tmpsmcr = TIMx->SMCR;
 22792              		.loc 1 1157 0
 22793 0014 FB68     		ldr	r3, [r7, #12]
 22794 0016 1B89     		ldrh	r3, [r3, #8]	@ movhi
 22795 0018 FB82     		strh	r3, [r7, #22]	@ movhi
1158:../Libraries/STM32F10x_StdPeriph_Driver/src/stm32f10x_tim.c ****   /* Reset the ETR Bits */
1159:../Libraries/STM32F10x_StdPeriph_Driver/src/stm32f10x_tim.c ****   tmpsmcr &= SMCR_ETR_Mask;
 22796              		.loc 1 1159 0
 22797 001a FB8A     		ldrh	r3, [r7, #22]	@ movhi
 22798 001c 03F0FF03 		and	r3, r3, #255
 22799 0020 FB82     		strh	r3, [r7, #22]	@ movhi
1160:../Libraries/STM32F10x_StdPeriph_Driver/src/stm32f10x_tim.c ****   /* Set the Prescaler, the Filter value and the Polarity */
1161:../Libraries/STM32F10x_StdPeriph_Driver/src/stm32f10x_tim.c ****   tmpsmcr |= (uint16_t)(TIM_ExtTRGPrescaler | (uint16_t)(TIM_ExtTRGPolarity | (uint16_t)(ExtTRGFilt
 22800              		.loc 1 1161 0
 22801 0022 FB88     		ldrh	r3, [r7, #6]	@ movhi
 22802 0024 4FEA0323 		lsl	r3, r3, #8
 22803 0028 9AB2     		uxth	r2, r3
 22804 002a 3B89     		ldrh	r3, [r7, #8]	@ movhi
 22805 002c 42EA0303 		orr	r3, r2, r3
 22806 0030 9AB2     		uxth	r2, r3
 22807 0032 7B89     		ldrh	r3, [r7, #10]	@ movhi
 22808 0034 42EA0303 		orr	r3, r2, r3
 22809 0038 9AB2     		uxth	r2, r3
 22810 003a FB8A     		ldrh	r3, [r7, #22]	@ movhi
 22811 003c 42EA0303 		orr	r3, r2, r3
 22812 0040 FB82     		strh	r3, [r7, #22]	@ movhi
1162:../Libraries/STM32F10x_StdPeriph_Driver/src/stm32f10x_tim.c ****   /* Write to TIMx SMCR */
1163:../Libraries/STM32F10x_StdPeriph_Driver/src/stm32f10x_tim.c ****   TIMx->SMCR = tmpsmcr;
 22813              		.loc 1 1163 0
 22814 0042 FB68     		ldr	r3, [r7, #12]
 22815 0044 FA8A     		ldrh	r2, [r7, #22]	@ movhi
 22816 0046 1A81     		strh	r2, [r3, #8]	@ movhi
1164:../Libraries/STM32F10x_StdPeriph_Driver/src/stm32f10x_tim.c **** }
 22817              		.loc 1 1164 0
 22818 0048 07F11C07 		add	r7, r7, #28
 22819 004c BD46     		mov	sp, r7
 22820 004e 80BC     		pop	{r7}
 22821 0050 7047     		bx	lr
 22822              		.cfi_endproc
 22823              	.LFE53:
 22825 0052 00BF     		.section	.text.TIM_PrescalerConfig,"ax",%progbits
 22826              		.align	2
 22827              		.global	TIM_PrescalerConfig
 22828              		.thumb
 22829              		.thumb_func
 22831              	TIM_PrescalerConfig:
 22832              	.LFB54:
1165:../Libraries/STM32F10x_StdPeriph_Driver/src/stm32f10x_tim.c **** 
1166:../Libraries/STM32F10x_StdPeriph_Driver/src/stm32f10x_tim.c **** /**
1167:../Libraries/STM32F10x_StdPeriph_Driver/src/stm32f10x_tim.c ****   * @brief  Configures the TIMx Prescaler.
1168:../Libraries/STM32F10x_StdPeriph_Driver/src/stm32f10x_tim.c ****   * @param  TIMx: where x can be 1 to 17 to select the TIM peripheral.
1169:../Libraries/STM32F10x_StdPeriph_Driver/src/stm32f10x_tim.c ****   * @param  Prescaler: specifies the Prescaler Register value
1170:../Libraries/STM32F10x_StdPeriph_Driver/src/stm32f10x_tim.c ****   * @param  TIM_PSCReloadMode: specifies the TIM Prescaler Reload mode
1171:../Libraries/STM32F10x_StdPeriph_Driver/src/stm32f10x_tim.c ****   *   This parameter can be one of the following values:
1172:../Libraries/STM32F10x_StdPeriph_Driver/src/stm32f10x_tim.c ****   *     @arg TIM_PSCReloadMode_Update: The Prescaler is loaded at the update event.
1173:../Libraries/STM32F10x_StdPeriph_Driver/src/stm32f10x_tim.c ****   *     @arg TIM_PSCReloadMode_Immediate: The Prescaler is loaded immediately.
1174:../Libraries/STM32F10x_StdPeriph_Driver/src/stm32f10x_tim.c ****   * @retval None
1175:../Libraries/STM32F10x_StdPeriph_Driver/src/stm32f10x_tim.c ****   */
1176:../Libraries/STM32F10x_StdPeriph_Driver/src/stm32f10x_tim.c **** void TIM_PrescalerConfig(TIM_TypeDef* TIMx, uint16_t Prescaler, uint16_t TIM_PSCReloadMode)
1177:../Libraries/STM32F10x_StdPeriph_Driver/src/stm32f10x_tim.c **** {
 22833              		.loc 1 1177 0
 22834              		.cfi_startproc
 22835              		@ args = 0, pretend = 0, frame = 8
 22836              		@ frame_needed = 1, uses_anonymous_args = 0
 22837              		@ link register save eliminated.
 22838 0000 80B4     		push	{r7}
 22839              	.LCFI75:
 22840              		.cfi_def_cfa_offset 4
 22841 0002 83B0     		sub	sp, sp, #12
 22842              	.LCFI76:
 22843              		.cfi_def_cfa_offset 16
 22844 0004 00AF     		add	r7, sp, #0
 22845              		.cfi_offset 7, -4
 22846              	.LCFI77:
 22847              		.cfi_def_cfa_register 7
 22848 0006 7860     		str	r0, [r7, #4]
 22849 0008 1346     		mov	r3, r2
 22850 000a 0A46     		mov	r2, r1	@ movhi
 22851 000c 7A80     		strh	r2, [r7, #2]	@ movhi
 22852 000e 3B80     		strh	r3, [r7, #0]	@ movhi
1178:../Libraries/STM32F10x_StdPeriph_Driver/src/stm32f10x_tim.c ****   /* Check the parameters */
1179:../Libraries/STM32F10x_StdPeriph_Driver/src/stm32f10x_tim.c ****   assert_param(IS_TIM_ALL_PERIPH(TIMx));
1180:../Libraries/STM32F10x_StdPeriph_Driver/src/stm32f10x_tim.c ****   assert_param(IS_TIM_PRESCALER_RELOAD(TIM_PSCReloadMode));
1181:../Libraries/STM32F10x_StdPeriph_Driver/src/stm32f10x_tim.c ****   /* Set the Prescaler value */
1182:../Libraries/STM32F10x_StdPeriph_Driver/src/stm32f10x_tim.c ****   TIMx->PSC = Prescaler;
 22853              		.loc 1 1182 0
 22854 0010 7B68     		ldr	r3, [r7, #4]
 22855 0012 7A88     		ldrh	r2, [r7, #2]	@ movhi
 22856 0014 1A85     		strh	r2, [r3, #40]	@ movhi
1183:../Libraries/STM32F10x_StdPeriph_Driver/src/stm32f10x_tim.c ****   /* Set or reset the UG Bit */
1184:../Libraries/STM32F10x_StdPeriph_Driver/src/stm32f10x_tim.c ****   TIMx->EGR = TIM_PSCReloadMode;
 22857              		.loc 1 1184 0
 22858 0016 7B68     		ldr	r3, [r7, #4]
 22859 0018 3A88     		ldrh	r2, [r7, #0]	@ movhi
 22860 001a 9A82     		strh	r2, [r3, #20]	@ movhi
1185:../Libraries/STM32F10x_StdPeriph_Driver/src/stm32f10x_tim.c **** }
 22861              		.loc 1 1185 0
 22862 001c 07F10C07 		add	r7, r7, #12
 22863 0020 BD46     		mov	sp, r7
 22864 0022 80BC     		pop	{r7}
 22865 0024 7047     		bx	lr
 22866              		.cfi_endproc
 22867              	.LFE54:
 22869 0026 00BF     		.section	.text.TIM_CounterModeConfig,"ax",%progbits
 22870              		.align	2
 22871              		.global	TIM_CounterModeConfig
 22872              		.thumb
 22873              		.thumb_func
 22875              	TIM_CounterModeConfig:
 22876              	.LFB55:
1186:../Libraries/STM32F10x_StdPeriph_Driver/src/stm32f10x_tim.c **** 
1187:../Libraries/STM32F10x_StdPeriph_Driver/src/stm32f10x_tim.c **** /**
1188:../Libraries/STM32F10x_StdPeriph_Driver/src/stm32f10x_tim.c ****   * @brief  Specifies the TIMx Counter Mode to be used.
1189:../Libraries/STM32F10x_StdPeriph_Driver/src/stm32f10x_tim.c ****   * @param  TIMx: where x can be  1, 2, 3, 4, 5 or 8 to select the TIM peripheral.
1190:../Libraries/STM32F10x_StdPeriph_Driver/src/stm32f10x_tim.c ****   * @param  TIM_CounterMode: specifies the Counter Mode to be used
1191:../Libraries/STM32F10x_StdPeriph_Driver/src/stm32f10x_tim.c ****   *   This parameter can be one of the following values:
1192:../Libraries/STM32F10x_StdPeriph_Driver/src/stm32f10x_tim.c ****   *     @arg TIM_CounterMode_Up: TIM Up Counting Mode
1193:../Libraries/STM32F10x_StdPeriph_Driver/src/stm32f10x_tim.c ****   *     @arg TIM_CounterMode_Down: TIM Down Counting Mode
1194:../Libraries/STM32F10x_StdPeriph_Driver/src/stm32f10x_tim.c ****   *     @arg TIM_CounterMode_CenterAligned1: TIM Center Aligned Mode1
1195:../Libraries/STM32F10x_StdPeriph_Driver/src/stm32f10x_tim.c ****   *     @arg TIM_CounterMode_CenterAligned2: TIM Center Aligned Mode2
1196:../Libraries/STM32F10x_StdPeriph_Driver/src/stm32f10x_tim.c ****   *     @arg TIM_CounterMode_CenterAligned3: TIM Center Aligned Mode3
1197:../Libraries/STM32F10x_StdPeriph_Driver/src/stm32f10x_tim.c ****   * @retval None
1198:../Libraries/STM32F10x_StdPeriph_Driver/src/stm32f10x_tim.c ****   */
1199:../Libraries/STM32F10x_StdPeriph_Driver/src/stm32f10x_tim.c **** void TIM_CounterModeConfig(TIM_TypeDef* TIMx, uint16_t TIM_CounterMode)
1200:../Libraries/STM32F10x_StdPeriph_Driver/src/stm32f10x_tim.c **** {
 22877              		.loc 1 1200 0
 22878              		.cfi_startproc
 22879              		@ args = 0, pretend = 0, frame = 16
 22880              		@ frame_needed = 1, uses_anonymous_args = 0
 22881              		@ link register save eliminated.
 22882 0000 80B4     		push	{r7}
 22883              	.LCFI78:
 22884              		.cfi_def_cfa_offset 4
 22885 0002 85B0     		sub	sp, sp, #20
 22886              	.LCFI79:
 22887              		.cfi_def_cfa_offset 24
 22888 0004 00AF     		add	r7, sp, #0
 22889              		.cfi_offset 7, -4
 22890              	.LCFI80:
 22891              		.cfi_def_cfa_register 7
 22892 0006 7860     		str	r0, [r7, #4]
 22893 0008 0B46     		mov	r3, r1
 22894 000a 7B80     		strh	r3, [r7, #2]	@ movhi
1201:../Libraries/STM32F10x_StdPeriph_Driver/src/stm32f10x_tim.c ****   uint16_t tmpcr1 = 0;
 22895              		.loc 1 1201 0
 22896 000c 4FF00003 		mov	r3, #0
 22897 0010 FB81     		strh	r3, [r7, #14]	@ movhi
1202:../Libraries/STM32F10x_StdPeriph_Driver/src/stm32f10x_tim.c ****   /* Check the parameters */
1203:../Libraries/STM32F10x_StdPeriph_Driver/src/stm32f10x_tim.c ****   assert_param(IS_TIM_LIST3_PERIPH(TIMx));
1204:../Libraries/STM32F10x_StdPeriph_Driver/src/stm32f10x_tim.c ****   assert_param(IS_TIM_COUNTER_MODE(TIM_CounterMode));
1205:../Libraries/STM32F10x_StdPeriph_Driver/src/stm32f10x_tim.c ****   tmpcr1 = TIMx->CR1;
 22898              		.loc 1 1205 0
 22899 0012 7B68     		ldr	r3, [r7, #4]
 22900 0014 1B88     		ldrh	r3, [r3, #0]	@ movhi
 22901 0016 FB81     		strh	r3, [r7, #14]	@ movhi
1206:../Libraries/STM32F10x_StdPeriph_Driver/src/stm32f10x_tim.c ****   /* Reset the CMS and DIR Bits */
1207:../Libraries/STM32F10x_StdPeriph_Driver/src/stm32f10x_tim.c ****   tmpcr1 &= (uint16_t)(~((uint16_t)(TIM_CR1_DIR | TIM_CR1_CMS)));
 22902              		.loc 1 1207 0
 22903 0018 FB89     		ldrh	r3, [r7, #14]	@ movhi
 22904 001a 23F07003 		bic	r3, r3, #112
 22905 001e FB81     		strh	r3, [r7, #14]	@ movhi
1208:../Libraries/STM32F10x_StdPeriph_Driver/src/stm32f10x_tim.c ****   /* Set the Counter Mode */
1209:../Libraries/STM32F10x_StdPeriph_Driver/src/stm32f10x_tim.c ****   tmpcr1 |= TIM_CounterMode;
 22906              		.loc 1 1209 0
 22907 0020 FA89     		ldrh	r2, [r7, #14]	@ movhi
 22908 0022 7B88     		ldrh	r3, [r7, #2]	@ movhi
 22909 0024 42EA0303 		orr	r3, r2, r3
 22910 0028 FB81     		strh	r3, [r7, #14]	@ movhi
1210:../Libraries/STM32F10x_StdPeriph_Driver/src/stm32f10x_tim.c ****   /* Write to TIMx CR1 register */
1211:../Libraries/STM32F10x_StdPeriph_Driver/src/stm32f10x_tim.c ****   TIMx->CR1 = tmpcr1;
 22911              		.loc 1 1211 0
 22912 002a 7B68     		ldr	r3, [r7, #4]
 22913 002c FA89     		ldrh	r2, [r7, #14]	@ movhi
 22914 002e 1A80     		strh	r2, [r3, #0]	@ movhi
1212:../Libraries/STM32F10x_StdPeriph_Driver/src/stm32f10x_tim.c **** }
 22915              		.loc 1 1212 0
 22916 0030 07F11407 		add	r7, r7, #20
 22917 0034 BD46     		mov	sp, r7
 22918 0036 80BC     		pop	{r7}
 22919 0038 7047     		bx	lr
 22920              		.cfi_endproc
 22921              	.LFE55:
 22923 003a 00BF     		.section	.text.TIM_SelectInputTrigger,"ax",%progbits
 22924              		.align	2
 22925              		.global	TIM_SelectInputTrigger
 22926              		.thumb
 22927              		.thumb_func
 22929              	TIM_SelectInputTrigger:
 22930              	.LFB56:
1213:../Libraries/STM32F10x_StdPeriph_Driver/src/stm32f10x_tim.c **** 
1214:../Libraries/STM32F10x_StdPeriph_Driver/src/stm32f10x_tim.c **** /**
1215:../Libraries/STM32F10x_StdPeriph_Driver/src/stm32f10x_tim.c ****   * @brief  Selects the Input Trigger source
1216:../Libraries/STM32F10x_StdPeriph_Driver/src/stm32f10x_tim.c ****   * @param  TIMx: where x can be  1, 2, 3, 4, 5, 8, 9, 12 or 15 to select the TIM peripheral.
1217:../Libraries/STM32F10x_StdPeriph_Driver/src/stm32f10x_tim.c ****   * @param  TIM_InputTriggerSource: The Input Trigger source.
1218:../Libraries/STM32F10x_StdPeriph_Driver/src/stm32f10x_tim.c ****   *   This parameter can be one of the following values:
1219:../Libraries/STM32F10x_StdPeriph_Driver/src/stm32f10x_tim.c ****   *     @arg TIM_TS_ITR0: Internal Trigger 0
1220:../Libraries/STM32F10x_StdPeriph_Driver/src/stm32f10x_tim.c ****   *     @arg TIM_TS_ITR1: Internal Trigger 1
1221:../Libraries/STM32F10x_StdPeriph_Driver/src/stm32f10x_tim.c ****   *     @arg TIM_TS_ITR2: Internal Trigger 2
1222:../Libraries/STM32F10x_StdPeriph_Driver/src/stm32f10x_tim.c ****   *     @arg TIM_TS_ITR3: Internal Trigger 3
1223:../Libraries/STM32F10x_StdPeriph_Driver/src/stm32f10x_tim.c ****   *     @arg TIM_TS_TI1F_ED: TI1 Edge Detector
1224:../Libraries/STM32F10x_StdPeriph_Driver/src/stm32f10x_tim.c ****   *     @arg TIM_TS_TI1FP1: Filtered Timer Input 1
1225:../Libraries/STM32F10x_StdPeriph_Driver/src/stm32f10x_tim.c ****   *     @arg TIM_TS_TI2FP2: Filtered Timer Input 2
1226:../Libraries/STM32F10x_StdPeriph_Driver/src/stm32f10x_tim.c ****   *     @arg TIM_TS_ETRF: External Trigger input
1227:../Libraries/STM32F10x_StdPeriph_Driver/src/stm32f10x_tim.c ****   * @retval None
1228:../Libraries/STM32F10x_StdPeriph_Driver/src/stm32f10x_tim.c ****   */
1229:../Libraries/STM32F10x_StdPeriph_Driver/src/stm32f10x_tim.c **** void TIM_SelectInputTrigger(TIM_TypeDef* TIMx, uint16_t TIM_InputTriggerSource)
1230:../Libraries/STM32F10x_StdPeriph_Driver/src/stm32f10x_tim.c **** {
 22931              		.loc 1 1230 0
 22932              		.cfi_startproc
 22933              		@ args = 0, pretend = 0, frame = 16
 22934              		@ frame_needed = 1, uses_anonymous_args = 0
 22935              		@ link register save eliminated.
 22936 0000 80B4     		push	{r7}
 22937              	.LCFI81:
 22938              		.cfi_def_cfa_offset 4
 22939 0002 85B0     		sub	sp, sp, #20
 22940              	.LCFI82:
 22941              		.cfi_def_cfa_offset 24
 22942 0004 00AF     		add	r7, sp, #0
 22943              		.cfi_offset 7, -4
 22944              	.LCFI83:
 22945              		.cfi_def_cfa_register 7
 22946 0006 7860     		str	r0, [r7, #4]
 22947 0008 0B46     		mov	r3, r1
 22948 000a 7B80     		strh	r3, [r7, #2]	@ movhi
1231:../Libraries/STM32F10x_StdPeriph_Driver/src/stm32f10x_tim.c ****   uint16_t tmpsmcr = 0;
 22949              		.loc 1 1231 0
 22950 000c 4FF00003 		mov	r3, #0
 22951 0010 FB81     		strh	r3, [r7, #14]	@ movhi
1232:../Libraries/STM32F10x_StdPeriph_Driver/src/stm32f10x_tim.c ****   /* Check the parameters */
1233:../Libraries/STM32F10x_StdPeriph_Driver/src/stm32f10x_tim.c ****   assert_param(IS_TIM_LIST6_PERIPH(TIMx));
1234:../Libraries/STM32F10x_StdPeriph_Driver/src/stm32f10x_tim.c ****   assert_param(IS_TIM_TRIGGER_SELECTION(TIM_InputTriggerSource));
1235:../Libraries/STM32F10x_StdPeriph_Driver/src/stm32f10x_tim.c ****   /* Get the TIMx SMCR register value */
1236:../Libraries/STM32F10x_StdPeriph_Driver/src/stm32f10x_tim.c ****   tmpsmcr = TIMx->SMCR;
 22952              		.loc 1 1236 0
 22953 0012 7B68     		ldr	r3, [r7, #4]
 22954 0014 1B89     		ldrh	r3, [r3, #8]	@ movhi
 22955 0016 FB81     		strh	r3, [r7, #14]	@ movhi
1237:../Libraries/STM32F10x_StdPeriph_Driver/src/stm32f10x_tim.c ****   /* Reset the TS Bits */
1238:../Libraries/STM32F10x_StdPeriph_Driver/src/stm32f10x_tim.c ****   tmpsmcr &= (uint16_t)(~((uint16_t)TIM_SMCR_TS));
 22956              		.loc 1 1238 0
 22957 0018 FB89     		ldrh	r3, [r7, #14]	@ movhi
 22958 001a 23F07003 		bic	r3, r3, #112
 22959 001e FB81     		strh	r3, [r7, #14]	@ movhi
1239:../Libraries/STM32F10x_StdPeriph_Driver/src/stm32f10x_tim.c ****   /* Set the Input Trigger source */
1240:../Libraries/STM32F10x_StdPeriph_Driver/src/stm32f10x_tim.c ****   tmpsmcr |= TIM_InputTriggerSource;
 22960              		.loc 1 1240 0
 22961 0020 FA89     		ldrh	r2, [r7, #14]	@ movhi
 22962 0022 7B88     		ldrh	r3, [r7, #2]	@ movhi
 22963 0024 42EA0303 		orr	r3, r2, r3
 22964 0028 FB81     		strh	r3, [r7, #14]	@ movhi
1241:../Libraries/STM32F10x_StdPeriph_Driver/src/stm32f10x_tim.c ****   /* Write to TIMx SMCR */
1242:../Libraries/STM32F10x_StdPeriph_Driver/src/stm32f10x_tim.c ****   TIMx->SMCR = tmpsmcr;
 22965              		.loc 1 1242 0
 22966 002a 7B68     		ldr	r3, [r7, #4]
 22967 002c FA89     		ldrh	r2, [r7, #14]	@ movhi
 22968 002e 1A81     		strh	r2, [r3, #8]	@ movhi
1243:../Libraries/STM32F10x_StdPeriph_Driver/src/stm32f10x_tim.c **** }
 22969              		.loc 1 1243 0
 22970 0030 07F11407 		add	r7, r7, #20
 22971 0034 BD46     		mov	sp, r7
 22972 0036 80BC     		pop	{r7}
 22973 0038 7047     		bx	lr
 22974              		.cfi_endproc
 22975              	.LFE56:
 22977 003a 00BF     		.section	.text.TIM_EncoderInterfaceConfig,"ax",%progbits
 22978              		.align	2
 22979              		.global	TIM_EncoderInterfaceConfig
 22980              		.thumb
 22981              		.thumb_func
 22983              	TIM_EncoderInterfaceConfig:
 22984              	.LFB57:
1244:../Libraries/STM32F10x_StdPeriph_Driver/src/stm32f10x_tim.c **** 
1245:../Libraries/STM32F10x_StdPeriph_Driver/src/stm32f10x_tim.c **** /**
1246:../Libraries/STM32F10x_StdPeriph_Driver/src/stm32f10x_tim.c ****   * @brief  Configures the TIMx Encoder Interface.
1247:../Libraries/STM32F10x_StdPeriph_Driver/src/stm32f10x_tim.c ****   * @param  TIMx: where x can be  1, 2, 3, 4, 5 or 8 to select the TIM peripheral.
1248:../Libraries/STM32F10x_StdPeriph_Driver/src/stm32f10x_tim.c ****   * @param  TIM_EncoderMode: specifies the TIMx Encoder Mode.
1249:../Libraries/STM32F10x_StdPeriph_Driver/src/stm32f10x_tim.c ****   *   This parameter can be one of the following values:
1250:../Libraries/STM32F10x_StdPeriph_Driver/src/stm32f10x_tim.c ****   *     @arg TIM_EncoderMode_TI1: Counter counts on TI1FP1 edge depending on TI2FP2 level.
1251:../Libraries/STM32F10x_StdPeriph_Driver/src/stm32f10x_tim.c ****   *     @arg TIM_EncoderMode_TI2: Counter counts on TI2FP2 edge depending on TI1FP1 level.
1252:../Libraries/STM32F10x_StdPeriph_Driver/src/stm32f10x_tim.c ****   *     @arg TIM_EncoderMode_TI12: Counter counts on both TI1FP1 and TI2FP2 edges depending
1253:../Libraries/STM32F10x_StdPeriph_Driver/src/stm32f10x_tim.c ****   *                                on the level of the other input.
1254:../Libraries/STM32F10x_StdPeriph_Driver/src/stm32f10x_tim.c ****   * @param  TIM_IC1Polarity: specifies the IC1 Polarity
1255:../Libraries/STM32F10x_StdPeriph_Driver/src/stm32f10x_tim.c ****   *   This parameter can be one of the following values:
1256:../Libraries/STM32F10x_StdPeriph_Driver/src/stm32f10x_tim.c ****   *     @arg TIM_ICPolarity_Falling: IC Falling edge.
1257:../Libraries/STM32F10x_StdPeriph_Driver/src/stm32f10x_tim.c ****   *     @arg TIM_ICPolarity_Rising: IC Rising edge.
1258:../Libraries/STM32F10x_StdPeriph_Driver/src/stm32f10x_tim.c ****   * @param  TIM_IC2Polarity: specifies the IC2 Polarity
1259:../Libraries/STM32F10x_StdPeriph_Driver/src/stm32f10x_tim.c ****   *   This parameter can be one of the following values:
1260:../Libraries/STM32F10x_StdPeriph_Driver/src/stm32f10x_tim.c ****   *     @arg TIM_ICPolarity_Falling: IC Falling edge.
1261:../Libraries/STM32F10x_StdPeriph_Driver/src/stm32f10x_tim.c ****   *     @arg TIM_ICPolarity_Rising: IC Rising edge.
1262:../Libraries/STM32F10x_StdPeriph_Driver/src/stm32f10x_tim.c ****   * @retval None
1263:../Libraries/STM32F10x_StdPeriph_Driver/src/stm32f10x_tim.c ****   */
1264:../Libraries/STM32F10x_StdPeriph_Driver/src/stm32f10x_tim.c **** void TIM_EncoderInterfaceConfig(TIM_TypeDef* TIMx, uint16_t TIM_EncoderMode,
1265:../Libraries/STM32F10x_StdPeriph_Driver/src/stm32f10x_tim.c ****                                 uint16_t TIM_IC1Polarity, uint16_t TIM_IC2Polarity)
1266:../Libraries/STM32F10x_StdPeriph_Driver/src/stm32f10x_tim.c **** {
 22985              		.loc 1 1266 0
 22986              		.cfi_startproc
 22987              		@ args = 0, pretend = 0, frame = 24
 22988              		@ frame_needed = 1, uses_anonymous_args = 0
 22989              		@ link register save eliminated.
 22990 0000 80B4     		push	{r7}
 22991              	.LCFI84:
 22992              		.cfi_def_cfa_offset 4
 22993 0002 87B0     		sub	sp, sp, #28
 22994              	.LCFI85:
 22995              		.cfi_def_cfa_offset 32
 22996 0004 00AF     		add	r7, sp, #0
 22997              		.cfi_offset 7, -4
 22998              	.LCFI86:
 22999              		.cfi_def_cfa_register 7
 23000 0006 F860     		str	r0, [r7, #12]
 23001 0008 7981     		strh	r1, [r7, #10]	@ movhi
 23002 000a 3A81     		strh	r2, [r7, #8]	@ movhi
 23003 000c FB80     		strh	r3, [r7, #6]	@ movhi
1267:../Libraries/STM32F10x_StdPeriph_Driver/src/stm32f10x_tim.c ****   uint16_t tmpsmcr = 0;
 23004              		.loc 1 1267 0
 23005 000e 4FF00003 		mov	r3, #0
 23006 0012 FB82     		strh	r3, [r7, #22]	@ movhi
1268:../Libraries/STM32F10x_StdPeriph_Driver/src/stm32f10x_tim.c ****   uint16_t tmpccmr1 = 0;
 23007              		.loc 1 1268 0
 23008 0014 4FF00003 		mov	r3, #0
 23009 0018 BB82     		strh	r3, [r7, #20]	@ movhi
1269:../Libraries/STM32F10x_StdPeriph_Driver/src/stm32f10x_tim.c ****   uint16_t tmpccer = 0;
 23010              		.loc 1 1269 0
 23011 001a 4FF00003 		mov	r3, #0
 23012 001e 7B82     		strh	r3, [r7, #18]	@ movhi
1270:../Libraries/STM32F10x_StdPeriph_Driver/src/stm32f10x_tim.c ****     
1271:../Libraries/STM32F10x_StdPeriph_Driver/src/stm32f10x_tim.c ****   /* Check the parameters */
1272:../Libraries/STM32F10x_StdPeriph_Driver/src/stm32f10x_tim.c ****   assert_param(IS_TIM_LIST5_PERIPH(TIMx));
1273:../Libraries/STM32F10x_StdPeriph_Driver/src/stm32f10x_tim.c ****   assert_param(IS_TIM_ENCODER_MODE(TIM_EncoderMode));
1274:../Libraries/STM32F10x_StdPeriph_Driver/src/stm32f10x_tim.c ****   assert_param(IS_TIM_IC_POLARITY(TIM_IC1Polarity));
1275:../Libraries/STM32F10x_StdPeriph_Driver/src/stm32f10x_tim.c ****   assert_param(IS_TIM_IC_POLARITY(TIM_IC2Polarity));
1276:../Libraries/STM32F10x_StdPeriph_Driver/src/stm32f10x_tim.c **** 
1277:../Libraries/STM32F10x_StdPeriph_Driver/src/stm32f10x_tim.c ****   /* Get the TIMx SMCR register value */
1278:../Libraries/STM32F10x_StdPeriph_Driver/src/stm32f10x_tim.c ****   tmpsmcr = TIMx->SMCR;
 23013              		.loc 1 1278 0
 23014 0020 FB68     		ldr	r3, [r7, #12]
 23015 0022 1B89     		ldrh	r3, [r3, #8]	@ movhi
 23016 0024 FB82     		strh	r3, [r7, #22]	@ movhi
1279:../Libraries/STM32F10x_StdPeriph_Driver/src/stm32f10x_tim.c ****   
1280:../Libraries/STM32F10x_StdPeriph_Driver/src/stm32f10x_tim.c ****   /* Get the TIMx CCMR1 register value */
1281:../Libraries/STM32F10x_StdPeriph_Driver/src/stm32f10x_tim.c ****   tmpccmr1 = TIMx->CCMR1;
 23017              		.loc 1 1281 0
 23018 0026 FB68     		ldr	r3, [r7, #12]
 23019 0028 1B8B     		ldrh	r3, [r3, #24]	@ movhi
 23020 002a BB82     		strh	r3, [r7, #20]	@ movhi
1282:../Libraries/STM32F10x_StdPeriph_Driver/src/stm32f10x_tim.c ****   
1283:../Libraries/STM32F10x_StdPeriph_Driver/src/stm32f10x_tim.c ****   /* Get the TIMx CCER register value */
1284:../Libraries/STM32F10x_StdPeriph_Driver/src/stm32f10x_tim.c ****   tmpccer = TIMx->CCER;
 23021              		.loc 1 1284 0
 23022 002c FB68     		ldr	r3, [r7, #12]
 23023 002e 1B8C     		ldrh	r3, [r3, #32]	@ movhi
 23024 0030 7B82     		strh	r3, [r7, #18]	@ movhi
1285:../Libraries/STM32F10x_StdPeriph_Driver/src/stm32f10x_tim.c ****   
1286:../Libraries/STM32F10x_StdPeriph_Driver/src/stm32f10x_tim.c ****   /* Set the encoder Mode */
1287:../Libraries/STM32F10x_StdPeriph_Driver/src/stm32f10x_tim.c ****   tmpsmcr &= (uint16_t)(~((uint16_t)TIM_SMCR_SMS));
 23025              		.loc 1 1287 0
 23026 0032 FB8A     		ldrh	r3, [r7, #22]	@ movhi
 23027 0034 23F00703 		bic	r3, r3, #7
 23028 0038 FB82     		strh	r3, [r7, #22]	@ movhi
1288:../Libraries/STM32F10x_StdPeriph_Driver/src/stm32f10x_tim.c ****   tmpsmcr |= TIM_EncoderMode;
 23029              		.loc 1 1288 0
 23030 003a FA8A     		ldrh	r2, [r7, #22]	@ movhi
 23031 003c 7B89     		ldrh	r3, [r7, #10]	@ movhi
 23032 003e 42EA0303 		orr	r3, r2, r3
 23033 0042 FB82     		strh	r3, [r7, #22]	@ movhi
1289:../Libraries/STM32F10x_StdPeriph_Driver/src/stm32f10x_tim.c ****   
1290:../Libraries/STM32F10x_StdPeriph_Driver/src/stm32f10x_tim.c ****   /* Select the Capture Compare 1 and the Capture Compare 2 as input */
1291:../Libraries/STM32F10x_StdPeriph_Driver/src/stm32f10x_tim.c ****   tmpccmr1 &= (uint16_t)(((uint16_t)~((uint16_t)TIM_CCMR1_CC1S)) & (uint16_t)(~((uint16_t)TIM_CCMR1
 23034              		.loc 1 1291 0
 23035 0044 BB8A     		ldrh	r3, [r7, #20]	@ movhi
 23036 0046 23F44073 		bic	r3, r3, #768
 23037 004a 23F00303 		bic	r3, r3, #3
 23038 004e BB82     		strh	r3, [r7, #20]	@ movhi
1292:../Libraries/STM32F10x_StdPeriph_Driver/src/stm32f10x_tim.c ****   tmpccmr1 |= TIM_CCMR1_CC1S_0 | TIM_CCMR1_CC2S_0;
 23039              		.loc 1 1292 0
 23040 0050 BB8A     		ldrh	r3, [r7, #20]	@ movhi
 23041 0052 43F48073 		orr	r3, r3, #256
 23042 0056 43F00103 		orr	r3, r3, #1
 23043 005a BB82     		strh	r3, [r7, #20]	@ movhi
1293:../Libraries/STM32F10x_StdPeriph_Driver/src/stm32f10x_tim.c ****   
1294:../Libraries/STM32F10x_StdPeriph_Driver/src/stm32f10x_tim.c ****   /* Set the TI1 and the TI2 Polarities */
1295:../Libraries/STM32F10x_StdPeriph_Driver/src/stm32f10x_tim.c ****   tmpccer &= (uint16_t)(((uint16_t)~((uint16_t)TIM_CCER_CC1P)) & ((uint16_t)~((uint16_t)TIM_CCER_CC
 23044              		.loc 1 1295 0
 23045 005c 7B8A     		ldrh	r3, [r7, #18]	@ movhi
 23046 005e 23F02203 		bic	r3, r3, #34
 23047 0062 7B82     		strh	r3, [r7, #18]	@ movhi
1296:../Libraries/STM32F10x_StdPeriph_Driver/src/stm32f10x_tim.c ****   tmpccer |= (uint16_t)(TIM_IC1Polarity | (uint16_t)(TIM_IC2Polarity << (uint16_t)4));
 23048              		.loc 1 1296 0
 23049 0064 FB88     		ldrh	r3, [r7, #6]	@ movhi
 23050 0066 4FEA0313 		lsl	r3, r3, #4
 23051 006a 9AB2     		uxth	r2, r3
 23052 006c 3B89     		ldrh	r3, [r7, #8]	@ movhi
 23053 006e 42EA0303 		orr	r3, r2, r3
 23054 0072 9AB2     		uxth	r2, r3
 23055 0074 7B8A     		ldrh	r3, [r7, #18]	@ movhi
 23056 0076 42EA0303 		orr	r3, r2, r3
 23057 007a 7B82     		strh	r3, [r7, #18]	@ movhi
1297:../Libraries/STM32F10x_StdPeriph_Driver/src/stm32f10x_tim.c ****   
1298:../Libraries/STM32F10x_StdPeriph_Driver/src/stm32f10x_tim.c ****   /* Write to TIMx SMCR */
1299:../Libraries/STM32F10x_StdPeriph_Driver/src/stm32f10x_tim.c ****   TIMx->SMCR = tmpsmcr;
 23058              		.loc 1 1299 0
 23059 007c FB68     		ldr	r3, [r7, #12]
 23060 007e FA8A     		ldrh	r2, [r7, #22]	@ movhi
 23061 0080 1A81     		strh	r2, [r3, #8]	@ movhi
1300:../Libraries/STM32F10x_StdPeriph_Driver/src/stm32f10x_tim.c ****   /* Write to TIMx CCMR1 */
1301:../Libraries/STM32F10x_StdPeriph_Driver/src/stm32f10x_tim.c ****   TIMx->CCMR1 = tmpccmr1;
 23062              		.loc 1 1301 0
 23063 0082 FB68     		ldr	r3, [r7, #12]
 23064 0084 BA8A     		ldrh	r2, [r7, #20]	@ movhi
 23065 0086 1A83     		strh	r2, [r3, #24]	@ movhi
1302:../Libraries/STM32F10x_StdPeriph_Driver/src/stm32f10x_tim.c ****   /* Write to TIMx CCER */
1303:../Libraries/STM32F10x_StdPeriph_Driver/src/stm32f10x_tim.c ****   TIMx->CCER = tmpccer;
 23066              		.loc 1 1303 0
 23067 0088 FB68     		ldr	r3, [r7, #12]
 23068 008a 7A8A     		ldrh	r2, [r7, #18]	@ movhi
 23069 008c 1A84     		strh	r2, [r3, #32]	@ movhi
1304:../Libraries/STM32F10x_StdPeriph_Driver/src/stm32f10x_tim.c **** }
 23070              		.loc 1 1304 0
 23071 008e 07F11C07 		add	r7, r7, #28
 23072 0092 BD46     		mov	sp, r7
 23073 0094 80BC     		pop	{r7}
 23074 0096 7047     		bx	lr
 23075              		.cfi_endproc
 23076              	.LFE57:
 23078              		.section	.text.TIM_ForcedOC1Config,"ax",%progbits
 23079              		.align	2
 23080              		.global	TIM_ForcedOC1Config
 23081              		.thumb
 23082              		.thumb_func
 23084              	TIM_ForcedOC1Config:
 23085              	.LFB58:
1305:../Libraries/STM32F10x_StdPeriph_Driver/src/stm32f10x_tim.c **** 
1306:../Libraries/STM32F10x_StdPeriph_Driver/src/stm32f10x_tim.c **** /**
1307:../Libraries/STM32F10x_StdPeriph_Driver/src/stm32f10x_tim.c ****   * @brief  Forces the TIMx output 1 waveform to active or inactive level.
1308:../Libraries/STM32F10x_StdPeriph_Driver/src/stm32f10x_tim.c ****   * @param  TIMx: where x can be  1 to 17 except 6 and 7 to select the TIM peripheral.
1309:../Libraries/STM32F10x_StdPeriph_Driver/src/stm32f10x_tim.c ****   * @param  TIM_ForcedAction: specifies the forced Action to be set to the output waveform.
1310:../Libraries/STM32F10x_StdPeriph_Driver/src/stm32f10x_tim.c ****   *   This parameter can be one of the following values:
1311:../Libraries/STM32F10x_StdPeriph_Driver/src/stm32f10x_tim.c ****   *     @arg TIM_ForcedAction_Active: Force active level on OC1REF
1312:../Libraries/STM32F10x_StdPeriph_Driver/src/stm32f10x_tim.c ****   *     @arg TIM_ForcedAction_InActive: Force inactive level on OC1REF.
1313:../Libraries/STM32F10x_StdPeriph_Driver/src/stm32f10x_tim.c ****   * @retval None
1314:../Libraries/STM32F10x_StdPeriph_Driver/src/stm32f10x_tim.c ****   */
1315:../Libraries/STM32F10x_StdPeriph_Driver/src/stm32f10x_tim.c **** void TIM_ForcedOC1Config(TIM_TypeDef* TIMx, uint16_t TIM_ForcedAction)
1316:../Libraries/STM32F10x_StdPeriph_Driver/src/stm32f10x_tim.c **** {
 23086              		.loc 1 1316 0
 23087              		.cfi_startproc
 23088              		@ args = 0, pretend = 0, frame = 16
 23089              		@ frame_needed = 1, uses_anonymous_args = 0
 23090              		@ link register save eliminated.
 23091 0000 80B4     		push	{r7}
 23092              	.LCFI87:
 23093              		.cfi_def_cfa_offset 4
 23094 0002 85B0     		sub	sp, sp, #20
 23095              	.LCFI88:
 23096              		.cfi_def_cfa_offset 24
 23097 0004 00AF     		add	r7, sp, #0
 23098              		.cfi_offset 7, -4
 23099              	.LCFI89:
 23100              		.cfi_def_cfa_register 7
 23101 0006 7860     		str	r0, [r7, #4]
 23102 0008 0B46     		mov	r3, r1
 23103 000a 7B80     		strh	r3, [r7, #2]	@ movhi
1317:../Libraries/STM32F10x_StdPeriph_Driver/src/stm32f10x_tim.c ****   uint16_t tmpccmr1 = 0;
